   1                     ; C Compiler for ST7 (COSMIC Software)
   2                     ; Generator V4.5.5 - 12 Jan 2006
1280                     .const:	section	.text
1281  0000               L327_mc_displayNextScreen:
1282  0000 ff            	dc.b	255
1283  0001 ff            	dc.b	255
1284  0002 ff            	dc.b	255
1285  0003 ff            	dc.b	255
1286  0004 ff            	dc.b	255
1287  0005 01            	dc.b	1
1288  0006 ff            	dc.b	255
1289  0007 ff            	dc.b	255
1290  0008 ff            	dc.b	255
1291  0009 ff            	dc.b	255
1292  000a ff            	dc.b	255
1293  000b ff            	dc.b	255
1294  000c ff            	dc.b	255
1295  000d 01            	dc.b	1
1296  000e 01            	dc.b	1
1297  000f 01            	dc.b	1
1298  0010 01            	dc.b	1
1299  0011 14            	dc.b	20
1300  0012 ff            	dc.b	255
1301  0013 ff            	dc.b	255
1302  0014 02            	dc.b	2
1303  0015 01            	dc.b	1
1304  0016 55            	dc.b	85
1305  0017 53            	dc.b	83
1306  0018 0e            	dc.b	14
1307  0019 10            	dc.b	16
1308  001a 02            	dc.b	2
1309  001b 02            	dc.b	2
1310  001c 02            	dc.b	2
1311  001d 02            	dc.b	2
1312  001e 14            	dc.b	20
1313  001f ff            	dc.b	255
1314  0020 ff            	dc.b	255
1315  0021 03            	dc.b	3
1316  0022 02            	dc.b	2
1317  0023 55            	dc.b	85
1318  0024 53            	dc.b	83
1319  0025 0e            	dc.b	14
1320  0026 10            	dc.b	16
1321  0027 03            	dc.b	3
1322  0028 03            	dc.b	3
1323  0029 03            	dc.b	3
1324  002a 03            	dc.b	3
1325  002b 14            	dc.b	20
1326  002c ff            	dc.b	255
1327  002d ff            	dc.b	255
1328  002e 04            	dc.b	4
1329  002f 03            	dc.b	3
1330  0030 55            	dc.b	85
1331  0031 53            	dc.b	83
1332  0032 0e            	dc.b	14
1333  0033 10            	dc.b	16
1334  0034 04            	dc.b	4
1335  0035 04            	dc.b	4
1336  0036 04            	dc.b	4
1337  0037 04            	dc.b	4
1338  0038 14            	dc.b	20
1339  0039 ff            	dc.b	255
1340  003a ff            	dc.b	255
1341  003b 01            	dc.b	1
1342  003c 04            	dc.b	4
1343  003d 55            	dc.b	85
1344  003e 53            	dc.b	83
1345  003f 0e            	dc.b	14
1346  0040 10            	dc.b	16
1347  0041 ff            	dc.b	255
1348  0042 ff            	dc.b	255
1349  0043 ff            	dc.b	255
1350  0044 ff            	dc.b	255
1351  0045 ff            	dc.b	255
1352  0046 ff            	dc.b	255
1353  0047 01            	dc.b	1
1354  0048 ff            	dc.b	255
1355  0049 ff            	dc.b	255
1356  004a ff            	dc.b	255
1357  004b ff            	dc.b	255
1358  004c ff            	dc.b	255
1359  004d ff            	dc.b	255
1360  004e 55            	dc.b	85
1361  004f 55            	dc.b	85
1362  0050 55            	dc.b	85
1363  0051 55            	dc.b	85
1364  0052 55            	dc.b	85
1365  0053 55            	dc.b	85
1366  0054 55            	dc.b	85
1367  0055 55            	dc.b	85
1368  0056 55            	dc.b	85
1369  0057 55            	dc.b	85
1370  0058 55            	dc.b	85
1371  0059 55            	dc.b	85
1372  005a 55            	dc.b	85
1373  005b 53            	dc.b	83
1374  005c 53            	dc.b	83
1375  005d 53            	dc.b	83
1376  005e 53            	dc.b	83
1377  005f 53            	dc.b	83
1378  0060 53            	dc.b	83
1379  0061 53            	dc.b	83
1380  0062 53            	dc.b	83
1381  0063 53            	dc.b	83
1382  0064 53            	dc.b	83
1383  0065 53            	dc.b	83
1384  0066 53            	dc.b	83
1385  0067 53            	dc.b	83
1386  0068 0d            	dc.b	13
1387  0069 0d            	dc.b	13
1388  006a 0d            	dc.b	13
1389  006b 0d            	dc.b	13
1390  006c 0d            	dc.b	13
1391  006d 0d            	dc.b	13
1392  006e 0d            	dc.b	13
1393  006f 0d            	dc.b	13
1394  0070 0d            	dc.b	13
1395  0071 0d            	dc.b	13
1396  0072 0d            	dc.b	13
1397  0073 0d            	dc.b	13
1398  0074 0d            	dc.b	13
1399  0075 ff            	dc.b	255
1400  0076 ff            	dc.b	255
1401  0077 ff            	dc.b	255
1402  0078 ff            	dc.b	255
1403  0079 ff            	dc.b	255
1404  007a 01            	dc.b	1
1405  007b 01            	dc.b	1
1406  007c ff            	dc.b	255
1407  007d ff            	dc.b	255
1408  007e ff            	dc.b	255
1409  007f ff            	dc.b	255
1410  0080 ff            	dc.b	255
1411  0081 ff            	dc.b	255
1412  0082 ff            	dc.b	255
1413  0083 ff            	dc.b	255
1414  0084 ff            	dc.b	255
1415  0085 ff            	dc.b	255
1416  0086 ff            	dc.b	255
1417  0087 02            	dc.b	2
1418  0088 02            	dc.b	2
1419  0089 ff            	dc.b	255
1420  008a ff            	dc.b	255
1421  008b ff            	dc.b	255
1422  008c ff            	dc.b	255
1423  008d ff            	dc.b	255
1424  008e ff            	dc.b	255
1425  008f ff            	dc.b	255
1426  0090 ff            	dc.b	255
1427  0091 ff            	dc.b	255
1428  0092 ff            	dc.b	255
1429  0093 ff            	dc.b	255
1430  0094 03            	dc.b	3
1431  0095 03            	dc.b	3
1432  0096 ff            	dc.b	255
1433  0097 ff            	dc.b	255
1434  0098 ff            	dc.b	255
1435  0099 ff            	dc.b	255
1436  009a ff            	dc.b	255
1437  009b ff            	dc.b	255
1438  009c ff            	dc.b	255
1439  009d ff            	dc.b	255
1440  009e ff            	dc.b	255
1441  009f ff            	dc.b	255
1442  00a0 ff            	dc.b	255
1443  00a1 01            	dc.b	1
1444  00a2 01            	dc.b	1
1445  00a3 ff            	dc.b	255
1446  00a4 ff            	dc.b	255
1447  00a5 ff            	dc.b	255
1448  00a6 ff            	dc.b	255
1449  00a7 ff            	dc.b	255
1450  00a8 ff            	dc.b	255
1451  00a9 ff            	dc.b	255
1452  00aa ff            	dc.b	255
1453  00ab ff            	dc.b	255
1454  00ac 0e            	dc.b	14
1455  00ad 0e            	dc.b	14
1456  00ae 08            	dc.b	8
1457  00af 01            	dc.b	1
1458  00b0 ff            	dc.b	255
1459  00b1 ff            	dc.b	255
1460  00b2 ff            	dc.b	255
1461  00b3 ff            	dc.b	255
1462  00b4 ff            	dc.b	255
1463  00b5 ff            	dc.b	255
1464  00b6 ff            	dc.b	255
1465  00b7 ff            	dc.b	255
1466  00b8 0d            	dc.b	13
1467  00b9 ff            	dc.b	255
1468  00ba 0d            	dc.b	13
1469  00bb 01            	dc.b	1
1470  00bc 01            	dc.b	1
1471  00bd ff            	dc.b	255
1472  00be ff            	dc.b	255
1473  00bf ff            	dc.b	255
1474  00c0 ff            	dc.b	255
1475  00c1 ff            	dc.b	255
1476  00c2 ff            	dc.b	255
1477  00c3 ff            	dc.b	255
1478  00c4 ff            	dc.b	255
1479  00c5 ff            	dc.b	255
1480  00c6 14            	dc.b	20
1481  00c7 14            	dc.b	20
1482  00c8 10            	dc.b	16
1483  00c9 01            	dc.b	1
1484  00ca ff            	dc.b	255
1485  00cb ff            	dc.b	255
1486  00cc ff            	dc.b	255
1487  00cd ff            	dc.b	255
1488  00ce ff            	dc.b	255
1489  00cf ff            	dc.b	255
1490  00d0 ff            	dc.b	255
1491  00d1 ff            	dc.b	255
1492  00d2 ff            	dc.b	255
1493  00d3 12            	dc.b	18
1494  00d4 12            	dc.b	18
1495  00d5 11            	dc.b	17
1496  00d6 01            	dc.b	1
1497  00d7 ff            	dc.b	255
1498  00d8 ff            	dc.b	255
1499  00d9 ff            	dc.b	255
1500  00da ff            	dc.b	255
1501  00db ff            	dc.b	255
1502  00dc ff            	dc.b	255
1503  00dd 11            	dc.b	17
1504  00de 11            	dc.b	17
1505  00df 11            	dc.b	17
1506  00e0 11            	dc.b	17
1507  00e1 ff            	dc.b	255
1508  00e2 10            	dc.b	16
1509  00e3 10            	dc.b	16
1510  00e4 ff            	dc.b	255
1511  00e5 ff            	dc.b	255
1512  00e6 ff            	dc.b	255
1513  00e7 ff            	dc.b	255
1514  00e8 ff            	dc.b	255
1515  00e9 ff            	dc.b	255
1516  00ea ff            	dc.b	255
1517  00eb ff            	dc.b	255
1518  00ec 10            	dc.b	16
1519  00ed ff            	dc.b	255
1520  00ee 10            	dc.b	16
1521  00ef 13            	dc.b	19
1522  00f0 01            	dc.b	1
1523  00f1 ff            	dc.b	255
1524  00f2 ff            	dc.b	255
1525  00f3 ff            	dc.b	255
1526  00f4 ff            	dc.b	255
1527  00f5 ff            	dc.b	255
1528  00f6 ff            	dc.b	255
1529  00f7 13            	dc.b	19
1530  00f8 13            	dc.b	19
1531  00f9 13            	dc.b	19
1532  00fa 13            	dc.b	19
1533  00fb ff            	dc.b	255
1534  00fc 01            	dc.b	1
1535  00fd 12            	dc.b	18
1536  00fe ff            	dc.b	255
1537  00ff ff            	dc.b	255
1538  0100 ff            	dc.b	255
1539  0101 ff            	dc.b	255
1540  0102 ff            	dc.b	255
1541  0103 ff            	dc.b	255
1542  0104 ff            	dc.b	255
1543  0105 ff            	dc.b	255
1544  0106 ff            	dc.b	255
1545  0107 1b            	dc.b	27
1546  0108 1b            	dc.b	27
1547  0109 15            	dc.b	21
1548  010a 01            	dc.b	1
1549  010b ff            	dc.b	255
1550  010c ff            	dc.b	255
1551  010d ff            	dc.b	255
1552  010e ff            	dc.b	255
1553  010f ff            	dc.b	255
1554  0110 ff            	dc.b	255
1555  0111 ff            	dc.b	255
1556  0112 ff            	dc.b	255
1557  0113 ff            	dc.b	255
1558  0114 17            	dc.b	23
1559  0115 17            	dc.b	23
1560  0116 16            	dc.b	22
1561  0117 14            	dc.b	20
1562  0118 ff            	dc.b	255
1563  0119 ff            	dc.b	255
1564  011a ff            	dc.b	255
1565  011b ff            	dc.b	255
1566  011c ff            	dc.b	255
1567  011d ff            	dc.b	255
1568  011e 16            	dc.b	22
1569  011f 16            	dc.b	22
1570  0120 16            	dc.b	22
1571  0121 16            	dc.b	22
1572  0122 ff            	dc.b	255
1573  0123 15            	dc.b	21
1574  0124 15            	dc.b	21
1575  0125 ff            	dc.b	255
1576  0126 ff            	dc.b	255
1577  0127 ff            	dc.b	255
1578  0128 ff            	dc.b	255
1579  0129 ff            	dc.b	255
1580  012a ff            	dc.b	255
1581  012b ff            	dc.b	255
1582  012c ff            	dc.b	255
1583  012d 15            	dc.b	21
1584  012e 19            	dc.b	25
1585  012f 19            	dc.b	25
1586  0130 18            	dc.b	24
1587  0131 14            	dc.b	20
1588  0132 ff            	dc.b	255
1589  0133 ff            	dc.b	255
1590  0134 ff            	dc.b	255
1591  0135 ff            	dc.b	255
1592  0136 ff            	dc.b	255
1593  0137 ff            	dc.b	255
1594  0138 18            	dc.b	24
1595  0139 18            	dc.b	24
1596  013a 18            	dc.b	24
1597  013b 18            	dc.b	24
1598  013c ff            	dc.b	255
1599  013d 17            	dc.b	23
1600  013e 17            	dc.b	23
1601  013f ff            	dc.b	255
1602  0140 ff            	dc.b	255
1603  0141 ff            	dc.b	255
1604  0142 ff            	dc.b	255
1605  0143 ff            	dc.b	255
1606  0144 ff            	dc.b	255
1607  0145 ff            	dc.b	255
1608  0146 ff            	dc.b	255
1609  0147 17            	dc.b	23
1610  0148 ff            	dc.b	255
1611  0149 15            	dc.b	21
1612  014a 1a            	dc.b	26
1613  014b 14            	dc.b	20
1614  014c ff            	dc.b	255
1615  014d ff            	dc.b	255
1616  014e ff            	dc.b	255
1617  014f ff            	dc.b	255
1618  0150 ff            	dc.b	255
1619  0151 ff            	dc.b	255
1620  0152 1a            	dc.b	26
1621  0153 1a            	dc.b	26
1622  0154 1a            	dc.b	26
1623  0155 1a            	dc.b	26
1624  0156 ff            	dc.b	255
1625  0157 19            	dc.b	25
1626  0158 19            	dc.b	25
1627  0159 ff            	dc.b	255
1628  015a ff            	dc.b	255
1629  015b ff            	dc.b	255
1630  015c ff            	dc.b	255
1631  015d ff            	dc.b	255
1632  015e ff            	dc.b	255
1633  015f ff            	dc.b	255
1634  0160 ff            	dc.b	255
1635  0161 14            	dc.b	20
1636  0162 ff            	dc.b	255
1637  0163 14            	dc.b	20
1638  0164 1c            	dc.b	28
1639  0165 01            	dc.b	1
1640  0166 ff            	dc.b	255
1641  0167 ff            	dc.b	255
1642  0168 ff            	dc.b	255
1643  0169 ff            	dc.b	255
1644  016a ff            	dc.b	255
1645  016b ff            	dc.b	255
1646  016c ff            	dc.b	255
1647  016d ff            	dc.b	255
1648  016e ff            	dc.b	255
1649  016f 21            	dc.b	33
1650  0170 21            	dc.b	33
1651  0171 1d            	dc.b	29
1652  0172 1b            	dc.b	27
1653  0173 ff            	dc.b	255
1654  0174 ff            	dc.b	255
1655  0175 ff            	dc.b	255
1656  0176 ff            	dc.b	255
1657  0177 ff            	dc.b	255
1658  0178 ff            	dc.b	255
1659  0179 ff            	dc.b	255
1660  017a ff            	dc.b	255
1661  017b ff            	dc.b	255
1662  017c 1f            	dc.b	31
1663  017d 1f            	dc.b	31
1664  017e 1e            	dc.b	30
1665  017f 1c            	dc.b	28
1666  0180 ff            	dc.b	255
1667  0181 ff            	dc.b	255
1668  0182 ff            	dc.b	255
1669  0183 ff            	dc.b	255
1670  0184 ff            	dc.b	255
1671  0185 ff            	dc.b	255
1672  0186 1e            	dc.b	30
1673  0187 1e            	dc.b	30
1674  0188 1e            	dc.b	30
1675  0189 1e            	dc.b	30
1676  018a ff            	dc.b	255
1677  018b 1d            	dc.b	29
1678  018c 1d            	dc.b	29
1679  018d ff            	dc.b	255
1680  018e ff            	dc.b	255
1681  018f ff            	dc.b	255
1682  0190 ff            	dc.b	255
1683  0191 ff            	dc.b	255
1684  0192 ff            	dc.b	255
1685  0193 ff            	dc.b	255
1686  0194 ff            	dc.b	255
1687  0195 1d            	dc.b	29
1688  0196 ff            	dc.b	255
1689  0197 1d            	dc.b	29
1690  0198 20            	dc.b	32
1691  0199 1c            	dc.b	28
1692  019a ff            	dc.b	255
1693  019b ff            	dc.b	255
1694  019c ff            	dc.b	255
1695  019d ff            	dc.b	255
1696  019e ff            	dc.b	255
1697  019f ff            	dc.b	255
1698  01a0 20            	dc.b	32
1699  01a1 20            	dc.b	32
1700  01a2 20            	dc.b	32
1701  01a3 20            	dc.b	32
1702  01a4 ff            	dc.b	255
1703  01a5 1f            	dc.b	31
1704  01a6 1f            	dc.b	31
1705  01a7 ff            	dc.b	255
1706  01a8 ff            	dc.b	255
1707  01a9 ff            	dc.b	255
1708  01aa ff            	dc.b	255
1709  01ab ff            	dc.b	255
1710  01ac ff            	dc.b	255
1711  01ad ff            	dc.b	255
1712  01ae ff            	dc.b	255
1713  01af 1c            	dc.b	28
1714  01b0 30            	dc.b	48
1715  01b1 30            	dc.b	48
1716  01b2 22            	dc.b	34
1717  01b3 1b            	dc.b	27
1718  01b4 ff            	dc.b	255
1719  01b5 ff            	dc.b	255
1720  01b6 ff            	dc.b	255
1721  01b7 ff            	dc.b	255
1722  01b8 ff            	dc.b	255
1723  01b9 ff            	dc.b	255
1724  01ba ff            	dc.b	255
1725  01bb ff            	dc.b	255
1726  01bc ff            	dc.b	255
1727  01bd 24            	dc.b	36
1728  01be 24            	dc.b	36
1729  01bf 23            	dc.b	35
1730  01c0 21            	dc.b	33
1731  01c1 ff            	dc.b	255
1732  01c2 ff            	dc.b	255
1733  01c3 ff            	dc.b	255
1734  01c4 ff            	dc.b	255
1735  01c5 ff            	dc.b	255
1736  01c6 ff            	dc.b	255
1737  01c7 23            	dc.b	35
1738  01c8 23            	dc.b	35
1739  01c9 23            	dc.b	35
1740  01ca 23            	dc.b	35
1741  01cb ff            	dc.b	255
1742  01cc 22            	dc.b	34
1743  01cd 22            	dc.b	34
1744  01ce ff            	dc.b	255
1745  01cf ff            	dc.b	255
1746  01d0 ff            	dc.b	255
1747  01d1 ff            	dc.b	255
1748  01d2 ff            	dc.b	255
1749  01d3 ff            	dc.b	255
1750  01d4 ff            	dc.b	255
1751  01d5 ff            	dc.b	255
1752  01d6 22            	dc.b	34
1753  01d7 26            	dc.b	38
1754  01d8 26            	dc.b	38
1755  01d9 25            	dc.b	37
1756  01da 21            	dc.b	33
1757  01db ff            	dc.b	255
1758  01dc ff            	dc.b	255
1759  01dd ff            	dc.b	255
1760  01de ff            	dc.b	255
1761  01df ff            	dc.b	255
1762  01e0 ff            	dc.b	255
1763  01e1 25            	dc.b	37
1764  01e2 25            	dc.b	37
1765  01e3 25            	dc.b	37
1766  01e4 25            	dc.b	37
1767  01e5 ff            	dc.b	255
1768  01e6 24            	dc.b	36
1769  01e7 24            	dc.b	36
1770  01e8 ff            	dc.b	255
1771  01e9 ff            	dc.b	255
1772  01ea ff            	dc.b	255
1773  01eb ff            	dc.b	255
1774  01ec ff            	dc.b	255
1775  01ed ff            	dc.b	255
1776  01ee ff            	dc.b	255
1777  01ef ff            	dc.b	255
1778  01f0 24            	dc.b	36
1779  01f1 28            	dc.b	40
1780  01f2 28            	dc.b	40
1781  01f3 27            	dc.b	39
1782  01f4 21            	dc.b	33
1783  01f5 ff            	dc.b	255
1784  01f6 ff            	dc.b	255
1785  01f7 ff            	dc.b	255
1786  01f8 ff            	dc.b	255
1787  01f9 ff            	dc.b	255
1788  01fa ff            	dc.b	255
1789  01fb 27            	dc.b	39
1790  01fc 27            	dc.b	39
1791  01fd 27            	dc.b	39
1792  01fe 27            	dc.b	39
1793  01ff ff            	dc.b	255
1794  0200 26            	dc.b	38
1795  0201 26            	dc.b	38
1796  0202 ff            	dc.b	255
1797  0203 ff            	dc.b	255
1798  0204 ff            	dc.b	255
1799  0205 ff            	dc.b	255
1800  0206 ff            	dc.b	255
1801  0207 ff            	dc.b	255
1802  0208 ff            	dc.b	255
1803  0209 ff            	dc.b	255
1804  020a 26            	dc.b	38
1805  020b 2a            	dc.b	42
1806  020c 2a            	dc.b	42
1807  020d 29            	dc.b	41
1808  020e 21            	dc.b	33
1809  020f ff            	dc.b	255
1810  0210 ff            	dc.b	255
1811  0211 ff            	dc.b	255
1812  0212 ff            	dc.b	255
1813  0213 ff            	dc.b	255
1814  0214 ff            	dc.b	255
1815  0215 29            	dc.b	41
1816  0216 29            	dc.b	41
1817  0217 29            	dc.b	41
1818  0218 29            	dc.b	41
1819  0219 ff            	dc.b	255
1820  021a 28            	dc.b	40
1821  021b 28            	dc.b	40
1822  021c ff            	dc.b	255
1823  021d ff            	dc.b	255
1824  021e ff            	dc.b	255
1825  021f ff            	dc.b	255
1826  0220 ff            	dc.b	255
1827  0221 ff            	dc.b	255
1828  0222 ff            	dc.b	255
1829  0223 ff            	dc.b	255
1830  0224 28            	dc.b	40
1831  0225 2c            	dc.b	44
1832  0226 2c            	dc.b	44
1833  0227 2b            	dc.b	43
1834  0228 21            	dc.b	33
1835  0229 ff            	dc.b	255
1836  022a ff            	dc.b	255
1837  022b ff            	dc.b	255
1838  022c ff            	dc.b	255
1839  022d ff            	dc.b	255
1840  022e ff            	dc.b	255
1841  022f 2b            	dc.b	43
1842  0230 2b            	dc.b	43
1843  0231 2b            	dc.b	43
1844  0232 2b            	dc.b	43
1845  0233 ff            	dc.b	255
1846  0234 2a            	dc.b	42
1847  0235 2a            	dc.b	42
1848  0236 ff            	dc.b	255
1849  0237 ff            	dc.b	255
1850  0238 ff            	dc.b	255
1851  0239 ff            	dc.b	255
1852  023a ff            	dc.b	255
1853  023b ff            	dc.b	255
1854  023c ff            	dc.b	255
1855  023d ff            	dc.b	255
1856  023e 2a            	dc.b	42
1857  023f 2e            	dc.b	46
1858  0240 2e            	dc.b	46
1859  0241 2d            	dc.b	45
1860  0242 21            	dc.b	33
1861  0243 ff            	dc.b	255
1862  0244 ff            	dc.b	255
1863  0245 ff            	dc.b	255
1864  0246 ff            	dc.b	255
1865  0247 ff            	dc.b	255
1866  0248 ff            	dc.b	255
1867  0249 2d            	dc.b	45
1868  024a 2d            	dc.b	45
1869  024b 2d            	dc.b	45
1870  024c 2d            	dc.b	45
1871  024d ff            	dc.b	255
1872  024e 2c            	dc.b	44
1873  024f 2c            	dc.b	44
1874  0250 ff            	dc.b	255
1875  0251 ff            	dc.b	255
1876  0252 ff            	dc.b	255
1877  0253 ff            	dc.b	255
1878  0254 ff            	dc.b	255
1879  0255 ff            	dc.b	255
1880  0256 ff            	dc.b	255
1881  0257 ff            	dc.b	255
1882  0258 2c            	dc.b	44
1883  0259 ff            	dc.b	255
1884  025a 22            	dc.b	34
1885  025b 2f            	dc.b	47
1886  025c 21            	dc.b	33
1887  025d ff            	dc.b	255
1888  025e ff            	dc.b	255
1889  025f ff            	dc.b	255
1890  0260 ff            	dc.b	255
1891  0261 ff            	dc.b	255
1892  0262 ff            	dc.b	255
1893  0263 2f            	dc.b	47
1894  0264 2f            	dc.b	47
1895  0265 2f            	dc.b	47
1896  0266 2f            	dc.b	47
1897  0267 ff            	dc.b	255
1898  0268 2e            	dc.b	46
1899  0269 2e            	dc.b	46
1900  026a ff            	dc.b	255
1901  026b ff            	dc.b	255
1902  026c ff            	dc.b	255
1903  026d ff            	dc.b	255
1904  026e ff            	dc.b	255
1905  026f ff            	dc.b	255
1906  0270 ff            	dc.b	255
1907  0271 ff            	dc.b	255
1908  0272 21            	dc.b	33
1909  0273 3d            	dc.b	61
1910  0274 3d            	dc.b	61
1911  0275 31            	dc.b	49
1912  0276 1b            	dc.b	27
1913  0277 ff            	dc.b	255
1914  0278 ff            	dc.b	255
1915  0279 ff            	dc.b	255
1916  027a ff            	dc.b	255
1917  027b ff            	dc.b	255
1918  027c ff            	dc.b	255
1919  027d ff            	dc.b	255
1920  027e ff            	dc.b	255
1921  027f ff            	dc.b	255
1922  0280 33            	dc.b	51
1923  0281 33            	dc.b	51
1924  0282 32            	dc.b	50
1925  0283 30            	dc.b	48
1926  0284 ff            	dc.b	255
1927  0285 ff            	dc.b	255
1928  0286 ff            	dc.b	255
1929  0287 ff            	dc.b	255
1930  0288 ff            	dc.b	255
1931  0289 ff            	dc.b	255
1932  028a 32            	dc.b	50
1933  028b 32            	dc.b	50
1934  028c 32            	dc.b	50
1935  028d 32            	dc.b	50
1936  028e ff            	dc.b	255
1937  028f 31            	dc.b	49
1938  0290 31            	dc.b	49
1939  0291 ff            	dc.b	255
1940  0292 ff            	dc.b	255
1941  0293 ff            	dc.b	255
1942  0294 ff            	dc.b	255
1943  0295 ff            	dc.b	255
1944  0296 ff            	dc.b	255
1945  0297 ff            	dc.b	255
1946  0298 ff            	dc.b	255
1947  0299 31            	dc.b	49
1948  029a 35            	dc.b	53
1949  029b 35            	dc.b	53
1950  029c 34            	dc.b	52
1951  029d 30            	dc.b	48
1952  029e ff            	dc.b	255
1953  029f ff            	dc.b	255
1954  02a0 ff            	dc.b	255
1955  02a1 ff            	dc.b	255
1956  02a2 ff            	dc.b	255
1957  02a3 ff            	dc.b	255
1958  02a4 34            	dc.b	52
1959  02a5 34            	dc.b	52
1960  02a6 34            	dc.b	52
1961  02a7 34            	dc.b	52
1962  02a8 ff            	dc.b	255
1963  02a9 33            	dc.b	51
1964  02aa 33            	dc.b	51
1965  02ab ff            	dc.b	255
1966  02ac ff            	dc.b	255
1967  02ad ff            	dc.b	255
1968  02ae ff            	dc.b	255
1969  02af ff            	dc.b	255
1970  02b0 ff            	dc.b	255
1971  02b1 ff            	dc.b	255
1972  02b2 ff            	dc.b	255
1973  02b3 33            	dc.b	51
1974  02b4 37            	dc.b	55
1975  02b5 37            	dc.b	55
1976  02b6 36            	dc.b	54
1977  02b7 30            	dc.b	48
1978  02b8 ff            	dc.b	255
1979  02b9 ff            	dc.b	255
1980  02ba ff            	dc.b	255
1981  02bb ff            	dc.b	255
1982  02bc ff            	dc.b	255
1983  02bd ff            	dc.b	255
1984  02be 36            	dc.b	54
1985  02bf 36            	dc.b	54
1986  02c0 36            	dc.b	54
1987  02c1 36            	dc.b	54
1988  02c2 ff            	dc.b	255
1989  02c3 35            	dc.b	53
1990  02c4 35            	dc.b	53
1991  02c5 ff            	dc.b	255
1992  02c6 ff            	dc.b	255
1993  02c7 ff            	dc.b	255
1994  02c8 ff            	dc.b	255
1995  02c9 ff            	dc.b	255
1996  02ca ff            	dc.b	255
1997  02cb ff            	dc.b	255
1998  02cc ff            	dc.b	255
1999  02cd 35            	dc.b	53
2000  02ce 39            	dc.b	57
2001  02cf 39            	dc.b	57
2002  02d0 38            	dc.b	56
2003  02d1 30            	dc.b	48
2004  02d2 ff            	dc.b	255
2005  02d3 ff            	dc.b	255
2006  02d4 ff            	dc.b	255
2007  02d5 ff            	dc.b	255
2008  02d6 ff            	dc.b	255
2009  02d7 ff            	dc.b	255
2010  02d8 38            	dc.b	56
2011  02d9 38            	dc.b	56
2012  02da 38            	dc.b	56
2013  02db 38            	dc.b	56
2014  02dc ff            	dc.b	255
2015  02dd 37            	dc.b	55
2016  02de 37            	dc.b	55
2017  02df ff            	dc.b	255
2018  02e0 ff            	dc.b	255
2019  02e1 ff            	dc.b	255
2020  02e2 ff            	dc.b	255
2021  02e3 ff            	dc.b	255
2022  02e4 ff            	dc.b	255
2023  02e5 ff            	dc.b	255
2024  02e6 ff            	dc.b	255
2025  02e7 37            	dc.b	55
2026  02e8 3b            	dc.b	59
2027  02e9 3b            	dc.b	59
2028  02ea 3a            	dc.b	58
2029  02eb 30            	dc.b	48
2030  02ec ff            	dc.b	255
2031  02ed ff            	dc.b	255
2032  02ee ff            	dc.b	255
2033  02ef ff            	dc.b	255
2034  02f0 ff            	dc.b	255
2035  02f1 ff            	dc.b	255
2036  02f2 3a            	dc.b	58
2037  02f3 3a            	dc.b	58
2038  02f4 3a            	dc.b	58
2039  02f5 3a            	dc.b	58
2040  02f6 ff            	dc.b	255
2041  02f7 39            	dc.b	57
2042  02f8 39            	dc.b	57
2043  02f9 ff            	dc.b	255
2044  02fa ff            	dc.b	255
2045  02fb ff            	dc.b	255
2046  02fc ff            	dc.b	255
2047  02fd ff            	dc.b	255
2048  02fe ff            	dc.b	255
2049  02ff ff            	dc.b	255
2050  0300 ff            	dc.b	255
2051  0301 39            	dc.b	57
2052  0302 ff            	dc.b	255
2053  0303 31            	dc.b	49
2054  0304 3c            	dc.b	60
2055  0305 30            	dc.b	48
2056  0306 ff            	dc.b	255
2057  0307 ff            	dc.b	255
2058  0308 ff            	dc.b	255
2059  0309 ff            	dc.b	255
2060  030a ff            	dc.b	255
2061  030b ff            	dc.b	255
2062  030c 3c            	dc.b	60
2063  030d 3c            	dc.b	60
2064  030e 3c            	dc.b	60
2065  030f 3c            	dc.b	60
2066  0310 ff            	dc.b	255
2067  0311 3b            	dc.b	59
2068  0312 3b            	dc.b	59
2069  0313 ff            	dc.b	255
2070  0314 ff            	dc.b	255
2071  0315 ff            	dc.b	255
2072  0316 ff            	dc.b	255
2073  0317 ff            	dc.b	255
2074  0318 ff            	dc.b	255
2075  0319 ff            	dc.b	255
2076  031a ff            	dc.b	255
2077  031b 30            	dc.b	48
2078  031c 46            	dc.b	70
2079  031d 46            	dc.b	70
2080  031e 3e            	dc.b	62
2081  031f 1b            	dc.b	27
2082  0320 ff            	dc.b	255
2083  0321 ff            	dc.b	255
2084  0322 ff            	dc.b	255
2085  0323 ff            	dc.b	255
2086  0324 ff            	dc.b	255
2087  0325 ff            	dc.b	255
2088  0326 ff            	dc.b	255
2089  0327 ff            	dc.b	255
2090  0328 ff            	dc.b	255
2091  0329 3f            	dc.b	63
2092  032a 3f            	dc.b	63
2093  032b 3d            	dc.b	61
2094  032c 3d            	dc.b	61
2095  032d ff            	dc.b	255
2096  032e ff            	dc.b	255
2097  032f ff            	dc.b	255
2098  0330 ff            	dc.b	255
2099  0331 ff            	dc.b	255
2100  0332 ff            	dc.b	255
2101  0333 ff            	dc.b	255
2102  0334 ff            	dc.b	255
2103  0335 3e            	dc.b	62
2104  0336 40            	dc.b	64
2105  0337 40            	dc.b	64
2106  0338 3d            	dc.b	61
2107  0339 3d            	dc.b	61
2108  033a ff            	dc.b	255
2109  033b ff            	dc.b	255
2110  033c ff            	dc.b	255
2111  033d ff            	dc.b	255
2112  033e ff            	dc.b	255
2113  033f ff            	dc.b	255
2114  0340 ff            	dc.b	255
2115  0341 ff            	dc.b	255
2116  0342 3f            	dc.b	63
2117  0343 41            	dc.b	65
2118  0344 41            	dc.b	65
2119  0345 3d            	dc.b	61
2120  0346 3d            	dc.b	61
2121  0347 ff            	dc.b	255
2122  0348 ff            	dc.b	255
2123  0349 ff            	dc.b	255
2124  034a ff            	dc.b	255
2125  034b ff            	dc.b	255
2126  034c ff            	dc.b	255
2127  034d ff            	dc.b	255
2128  034e ff            	dc.b	255
2129  034f 40            	dc.b	64
2130  0350 42            	dc.b	66
2131  0351 42            	dc.b	66
2132  0352 3d            	dc.b	61
2133  0353 3d            	dc.b	61
2134  0354 ff            	dc.b	255
2135  0355 ff            	dc.b	255
2136  0356 ff            	dc.b	255
2137  0357 ff            	dc.b	255
2138  0358 ff            	dc.b	255
2139  0359 ff            	dc.b	255
2140  035a ff            	dc.b	255
2141  035b ff            	dc.b	255
2142  035c 41            	dc.b	65
2143  035d 43            	dc.b	67
2144  035e 43            	dc.b	67
2145  035f 3d            	dc.b	61
2146  0360 3d            	dc.b	61
2147  0361 ff            	dc.b	255
2148  0362 ff            	dc.b	255
2149  0363 ff            	dc.b	255
2150  0364 ff            	dc.b	255
2151  0365 ff            	dc.b	255
2152  0366 ff            	dc.b	255
2153  0367 ff            	dc.b	255
2154  0368 ff            	dc.b	255
2155  0369 42            	dc.b	66
2156  036a 44            	dc.b	68
2157  036b 44            	dc.b	68
2158  036c 3d            	dc.b	61
2159  036d 3d            	dc.b	61
2160  036e ff            	dc.b	255
2161  036f ff            	dc.b	255
2162  0370 ff            	dc.b	255
2163  0371 ff            	dc.b	255
2164  0372 ff            	dc.b	255
2165  0373 ff            	dc.b	255
2166  0374 ff            	dc.b	255
2167  0375 ff            	dc.b	255
2168  0376 43            	dc.b	67
2169  0377 45            	dc.b	69
2170  0378 45            	dc.b	69
2171  0379 3d            	dc.b	61
2172  037a 3d            	dc.b	61
2173  037b ff            	dc.b	255
2174  037c ff            	dc.b	255
2175  037d ff            	dc.b	255
2176  037e ff            	dc.b	255
2177  037f ff            	dc.b	255
2178  0380 ff            	dc.b	255
2179  0381 ff            	dc.b	255
2180  0382 ff            	dc.b	255
2181  0383 44            	dc.b	68
2182  0384 ff            	dc.b	255
2183  0385 3e            	dc.b	62
2184  0386 3d            	dc.b	61
2185  0387 3d            	dc.b	61
2186  0388 ff            	dc.b	255
2187  0389 ff            	dc.b	255
2188  038a ff            	dc.b	255
2189  038b ff            	dc.b	255
2190  038c ff            	dc.b	255
2191  038d ff            	dc.b	255
2192  038e ff            	dc.b	255
2193  038f ff            	dc.b	255
2194  0390 3d            	dc.b	61
2195  0391 50            	dc.b	80
2196  0392 50            	dc.b	80
2197  0393 47            	dc.b	71
2198  0394 1b            	dc.b	27
2199  0395 ff            	dc.b	255
2200  0396 ff            	dc.b	255
2201  0397 ff            	dc.b	255
2202  0398 ff            	dc.b	255
2203  0399 ff            	dc.b	255
2204  039a ff            	dc.b	255
2205  039b ff            	dc.b	255
2206  039c ff            	dc.b	255
2207  039d ff            	dc.b	255
2208  039e 4b            	dc.b	75
2209  039f 4b            	dc.b	75
2210  03a0 48            	dc.b	72
2211  03a1 46            	dc.b	70
2212  03a2 ff            	dc.b	255
2213  03a3 ff            	dc.b	255
2214  03a4 ff            	dc.b	255
2215  03a5 ff            	dc.b	255
2216  03a6 ff            	dc.b	255
2217  03a7 ff            	dc.b	255
2218  03a8 ff            	dc.b	255
2219  03a9 ff            	dc.b	255
2220  03aa ff            	dc.b	255
2221  03ab 49            	dc.b	73
2222  03ac 49            	dc.b	73
2223  03ad 47            	dc.b	71
2224  03ae 47            	dc.b	71
2225  03af ff            	dc.b	255
2226  03b0 ff            	dc.b	255
2227  03b1 ff            	dc.b	255
2228  03b2 ff            	dc.b	255
2229  03b3 ff            	dc.b	255
2230  03b4 ff            	dc.b	255
2231  03b5 ff            	dc.b	255
2232  03b6 ff            	dc.b	255
2233  03b7 48            	dc.b	72
2234  03b8 4a            	dc.b	74
2235  03b9 4a            	dc.b	74
2236  03ba 47            	dc.b	71
2237  03bb 47            	dc.b	71
2238  03bc ff            	dc.b	255
2239  03bd ff            	dc.b	255
2240  03be ff            	dc.b	255
2241  03bf ff            	dc.b	255
2242  03c0 ff            	dc.b	255
2243  03c1 ff            	dc.b	255
2244  03c2 ff            	dc.b	255
2245  03c3 ff            	dc.b	255
2246  03c4 49            	dc.b	73
2247  03c5 ff            	dc.b	255
2248  03c6 48            	dc.b	72
2249  03c7 47            	dc.b	71
2250  03c8 47            	dc.b	71
2251  03c9 ff            	dc.b	255
2252  03ca ff            	dc.b	255
2253  03cb ff            	dc.b	255
2254  03cc ff            	dc.b	255
2255  03cd ff            	dc.b	255
2256  03ce ff            	dc.b	255
2257  03cf ff            	dc.b	255
2258  03d0 ff            	dc.b	255
2259  03d1 47            	dc.b	71
2260  03d2 4d            	dc.b	77
2261  03d3 4d            	dc.b	77
2262  03d4 4c            	dc.b	76
2263  03d5 46            	dc.b	70
2264  03d6 ff            	dc.b	255
2265  03d7 ff            	dc.b	255
2266  03d8 ff            	dc.b	255
2267  03d9 ff            	dc.b	255
2268  03da ff            	dc.b	255
2269  03db ff            	dc.b	255
2270  03dc ff            	dc.b	255
2271  03dd ff            	dc.b	255
2272  03de ff            	dc.b	255
2273  03df ff            	dc.b	255
2274  03e0 ff            	dc.b	255
2275  03e1 4b            	dc.b	75
2276  03e2 4b            	dc.b	75
2277  03e3 ff            	dc.b	255
2278  03e4 ff            	dc.b	255
2279  03e5 ff            	dc.b	255
2280  03e6 ff            	dc.b	255
2281  03e7 ff            	dc.b	255
2282  03e8 ff            	dc.b	255
2283  03e9 ff            	dc.b	255
2284  03ea ff            	dc.b	255
2285  03eb 4b            	dc.b	75
2286  03ec ff            	dc.b	255
2287  03ed 47            	dc.b	71
2288  03ee 4e            	dc.b	78
2289  03ef 46            	dc.b	70
2290  03f0 ff            	dc.b	255
2291  03f1 ff            	dc.b	255
2292  03f2 ff            	dc.b	255
2293  03f3 ff            	dc.b	255
2294  03f4 ff            	dc.b	255
2295  03f5 ff            	dc.b	255
2296  03f6 ff            	dc.b	255
2297  03f7 ff            	dc.b	255
2298  03f8 ff            	dc.b	255
2299  03f9 4f            	dc.b	79
2300  03fa 4f            	dc.b	79
2301  03fb 4d            	dc.b	77
2302  03fc 4d            	dc.b	77
2303  03fd ff            	dc.b	255
2304  03fe ff            	dc.b	255
2305  03ff ff            	dc.b	255
2306  0400 ff            	dc.b	255
2307  0401 ff            	dc.b	255
2308  0402 ff            	dc.b	255
2309  0403 ff            	dc.b	255
2310  0404 ff            	dc.b	255
2311  0405 4e            	dc.b	78
2312  0406 ff            	dc.b	255
2313  0407 4e            	dc.b	78
2314  0408 4d            	dc.b	77
2315  0409 4d            	dc.b	77
2316  040a ff            	dc.b	255
2317  040b ff            	dc.b	255
2318  040c ff            	dc.b	255
2319  040d ff            	dc.b	255
2320  040e ff            	dc.b	255
2321  040f ff            	dc.b	255
2322  0410 ff            	dc.b	255
2323  0411 ff            	dc.b	255
2324  0412 46            	dc.b	70
2325  0413 ff            	dc.b	255
2326  0414 1c            	dc.b	28
2327  0415 52            	dc.b	82
2328  0416 1b            	dc.b	27
2329  0417 ff            	dc.b	255
2330  0418 ff            	dc.b	255
2331  0419 ff            	dc.b	255
2332  041a ff            	dc.b	255
2333  041b ff            	dc.b	255
2334  041c ff            	dc.b	255
2335  041d ff            	dc.b	255
2336  041e ff            	dc.b	255
2337  041f ff            	dc.b	255
2338  0420 52            	dc.b	82
2339  0421 52            	dc.b	82
2340  0422 00            	dc.b	0
2341  0423 50            	dc.b	80
2342  0424 ff            	dc.b	255
2343  0425 ff            	dc.b	255
2344  0426 ff            	dc.b	255
2345  0427 ff            	dc.b	255
2346  0428 ff            	dc.b	255
2347  0429 ff            	dc.b	255
2348  042a ff            	dc.b	255
2349  042b ff            	dc.b	255
2350  042c 51            	dc.b	81
2351  042d ff            	dc.b	255
2352  042e 51            	dc.b	81
2353  042f 50            	dc.b	80
2354  0430 50            	dc.b	80
2355  0431 ff            	dc.b	255
2356  0432 ff            	dc.b	255
2357  0433 ff            	dc.b	255
2358  0434 ff            	dc.b	255
2359  0435 ff            	dc.b	255
2360  0436 ff            	dc.b	255
2361  0437 ff            	dc.b	255
2362  0438 ff            	dc.b	255
2363  0439 ff            	dc.b	255
2364  043a 54            	dc.b	84
2365  043b 54            	dc.b	84
2366  043c 07            	dc.b	7
2367  043d 01            	dc.b	1
2368  043e ff            	dc.b	255
2369  043f ff            	dc.b	255
2370  0440 ff            	dc.b	255
2371  0441 ff            	dc.b	255
2372  0442 ff            	dc.b	255
2373  0443 ff            	dc.b	255
2374  0444 ff            	dc.b	255
2375  0445 ff            	dc.b	255
2376  0446 53            	dc.b	83
2377  0447 ff            	dc.b	255
2378  0448 53            	dc.b	83
2379  0449 01            	dc.b	1
2380  044a 01            	dc.b	1
2381  044b ff            	dc.b	255
2382  044c ff            	dc.b	255
2383  044d ff            	dc.b	255
2384  044e ff            	dc.b	255
2385  044f ff            	dc.b	255
2386  0450 ff            	dc.b	255
2387  0451 ff            	dc.b	255
2388  0452 ff            	dc.b	255
2389  0453 ff            	dc.b	255
2390  0454 56            	dc.b	86
2391  0455 56            	dc.b	86
2392  0456 06            	dc.b	6
2393  0457 01            	dc.b	1
2394  0458 ff            	dc.b	255
2395  0459 ff            	dc.b	255
2396  045a ff            	dc.b	255
2397  045b ff            	dc.b	255
2398  045c ff            	dc.b	255
2399  045d ff            	dc.b	255
2400  045e ff            	dc.b	255
2401  045f ff            	dc.b	255
2402  0460 55            	dc.b	85
2403  0461 ff            	dc.b	255
2404  0462 55            	dc.b	85
2405  0463 01            	dc.b	1
2406  0464 01            	dc.b	1
2407  0465 ff            	dc.b	255
2408  0466 ff            	dc.b	255
2409  0467 ff            	dc.b	255
2410  0468 ff            	dc.b	255
2411  0469 ff            	dc.b	255
2412  046a ff            	dc.b	255
2413  046b               L527_mc_strStringNull:
2414  046b 00            	dc.b	0
2415  046c               L727_mc_strReset:
2416  046c 19            	dc.b	25
2417  046d fe            	dc.b	254
2418  046e 10            	dc.b	16
2419  046f 00            	dc.b	0
2420  0470 00            	dc.b	0
2421  0471 fe            	dc.b	254
2422  0472 12            	dc.b	18
2423  0473 00            	dc.b	0
2424  0474 00            	dc.b	0
2425  0475 7e            	dc.b	126
2426  0476 40            	dc.b	64
2427  0477 fe            	dc.b	254
2428  0478 1b            	dc.b	27
2429  0479 4b            	dc.b	75
2430  047a fe            	dc.b	254
2431  047b ff            	dc.b	255
2432  047c               L137_mc_strClear:
2433  047c 12            	dc.b	18
2434  047d 00            	dc.b	0
2435  047e 00            	dc.b	0
2436  047f 7e            	dc.b	126
2437  0480 40            	dc.b	64
2438  0481 fe            	dc.b	254
2439  0482 ff            	dc.b	255
2440  0483               L337_mc_strReadPort:
2441  0483 1b            	dc.b	27
2442  0484 52            	dc.b	82
2443  0485 fe            	dc.b	254
2444  0486 ff            	dc.b	255
2445  0487               L537_mc_strErrMeasure1:
2446  0487 4572726f7265  	dc.b	"Errore",0
2447  048e               L737_mc_strErrMeasure2:
2448  048e 6d6973757261  	dc.b	"misurazione",0
2449  049a               L147_mc_strErrPh1:
2450  049a 704800        	dc.b	"pH",0
2451  049d               L347_mc_strErrPh2:
2452  049d 66756f726920  	dc.b	"fuori limite",0
2453  04aa               L547_mc_strErrTemperature1:
2454  04aa 54656d706572  	dc.b	"Temperatura",0
2455  04b6               L747_mc_strErrTemperature2:
2456  04b6 66756f726920  	dc.b	"fuori limite",0
2457  04c3               L157_mc_strErrViscosity1:
2458  04c3 566973636f73  	dc.b	"Viscosit",224,0
2459  04cd               L357_mc_strErrViscosity2:
2460  04cd 66756f726920  	dc.b	"fuori limite",0
2461  04da               L557_mc_strGphDown:
2462  04da 10            	dc.b	16
2463  04db 70            	dc.b	112
2464  04dc 30            	dc.b	48
2465  04dd fe            	dc.b	254
2466  04de 1a            	dc.b	26
2467  04df 40            	dc.b	64
2468  04e0 18            	dc.b	24
2469  04e1 08            	dc.b	8
2470  04e2 00            	dc.b	0
2471  04e3 18            	dc.b	24
2472  04e4 18            	dc.b	24
2473  04e5 18            	dc.b	24
2474  04e6 7e            	dc.b	126
2475  04e7 3c            	dc.b	60
2476  04e8 18            	dc.b	24
2477  04e9 00            	dc.b	0
2478  04ea fe            	dc.b	254
2479  04eb ff            	dc.b	255
2480  04ec               L757_mc_strGphModeAuto:
2481  04ec 10            	dc.b	16
2482  04ed 4a            	dc.b	74
2483  04ee 35            	dc.b	53
2484  04ef fe            	dc.b	254
2485  04f0 1a            	dc.b	26
2486  04f1 40            	dc.b	64
2487  04f2 18            	dc.b	24
2488  04f3 08            	dc.b	8
2489  04f4 00            	dc.b	0
2490  04f5 3c            	dc.b	60
2491  04f6 42            	dc.b	66
2492  04f7 02            	dc.b	2
2493  04f8 72            	dc.b	114
2494  04f9 62            	dc.b	98
2495  04fa 5c            	dc.b	92
2496  04fb 00            	dc.b	0
2497  04fc fe            	dc.b	254
2498  04fd 10            	dc.b	16
2499  04fe 54            	dc.b	84
2500  04ff 3d            	dc.b	61
2501  0500 fe            	dc.b	254
2502  0501 1d            	dc.b	29
2503  0502 fe            	dc.b	254
2504  0503 41            	dc.b	65
2505  0504 75            	dc.b	117
2506  0505 74            	dc.b	116
2507  0506 6f            	dc.b	111
2508  0507 20            	dc.b	32
2509  0508 20            	dc.b	32
2510  0509 ff            	dc.b	255
2511  050a               L167_mc_strGphModeManual:
2512  050a 10            	dc.b	16
2513  050b 4a            	dc.b	74
2514  050c 35            	dc.b	53
2515  050d fe            	dc.b	254
2516  050e 1a            	dc.b	26
2517  050f 40            	dc.b	64
2518  0510 18            	dc.b	24
2519  0511 08            	dc.b	8
2520  0512 30            	dc.b	48
2521  0513 30            	dc.b	48
2522  0514 00            	dc.b	0
2523  0515 78            	dc.b	120
2524  0516 78            	dc.b	120
2525  0517 78            	dc.b	120
2526  0518 30            	dc.b	48
2527  0519 30            	dc.b	48
2528  051a fe            	dc.b	254
2529  051b 10            	dc.b	16
2530  051c 54            	dc.b	84
2531  051d 3d            	dc.b	61
2532  051e fe            	dc.b	254
2533  051f 1d            	dc.b	29
2534  0520 fe            	dc.b	254
2535  0521 4d            	dc.b	77
2536  0522 61            	dc.b	97
2537  0523 6e            	dc.b	110
2538  0524 75            	dc.b	117
2539  0525 61            	dc.b	97
2540  0526 6c            	dc.b	108
2541  0527 ff            	dc.b	255
2542  0528               L367_mc_strGphScrollDown:
2543  0528 10            	dc.b	16
2544  0529 70            	dc.b	112
2545  052a 30            	dc.b	48
2546  052b fe            	dc.b	254
2547  052c 1a            	dc.b	26
2548  052d 40            	dc.b	64
2549  052e 18            	dc.b	24
2550  052f 08            	dc.b	8
2551  0530 00            	dc.b	0
2552  0531 18            	dc.b	24
2553  0532 18            	dc.b	24
2554  0533 18            	dc.b	24
2555  0534 7e            	dc.b	126
2556  0535 3c            	dc.b	60
2557  0536 18            	dc.b	24
2558  0537 00            	dc.b	0
2559  0538 fe            	dc.b	254
2560  0539 ff            	dc.b	255
2561  053a               L567_mc_strGphScrollUp:
2562  053a 10            	dc.b	16
2563  053b 70            	dc.b	112
2564  053c 06            	dc.b	6
2565  053d fe            	dc.b	254
2566  053e 1a            	dc.b	26
2567  053f 40            	dc.b	64
2568  0540 18            	dc.b	24
2569  0541 08            	dc.b	8
2570  0542 00            	dc.b	0
2571  0543 18            	dc.b	24
2572  0544 3c            	dc.b	60
2573  0545 7e            	dc.b	126
2574  0546 18            	dc.b	24
2575  0547 18            	dc.b	24
2576  0548 18            	dc.b	24
2577  0549 00            	dc.b	0
2578  054a fe            	dc.b	254
2579  054b ff            	dc.b	255
2580  054c               L767_mc_strGphUp:
2581  054c 10            	dc.b	16
2582  054d 70            	dc.b	112
2583  054e 23            	dc.b	35
2584  054f fe            	dc.b	254
2585  0550 1a            	dc.b	26
2586  0551 40            	dc.b	64
2587  0552 18            	dc.b	24
2588  0553 08            	dc.b	8
2589  0554 00            	dc.b	0
2590  0555 18            	dc.b	24
2591  0556 3c            	dc.b	60
2592  0557 7e            	dc.b	126
2593  0558 18            	dc.b	24
2594  0559 18            	dc.b	24
2595  055a 18            	dc.b	24
2596  055b 00            	dc.b	0
2597  055c fe            	dc.b	254
2598  055d ff            	dc.b	255
2599  055e               L177_mc_strMsgAddPh:
2600  055e 61676769756e  	dc.b	"aggiunta pH",0
2601  056a               L377_mc_strMsgAddSolvent:
2602  056a 61676769756e  	dc.b	"aggiunta solvente",0
2603  057c               L577_mc_strMsgAdvanced:
2604  057c 4176616e7a61  	dc.b	"Avanzato",0
2605  0585               L777_mc_strMsgAllarm:
2606  0585 416c6c61726d  	dc.b	"Allarmi",0
2607  058d               L1001_mc_strMsgAskCleaning:
2608  058d 456666657474  	dc.b	"Effettuare Lavaggi"
2609  059f 6f3f00        	dc.b	"o?",0
2610  05a2               L3001_mc_strMsgBetweenValves:
2611  05a2 4f6e2f4f6666  	dc.b	"On/Off valvole",0
2612  05b1               L5001_mc_strMsgCalibration:
2613  05b1 546172617475  	dc.b	"Taratura",0
2614  05ba               L7001_mc_strMsgClean:
2615  05ba 4c6176616767  	dc.b	"Lavaggio",0
2616  05c3               L1101_mc_strMsgTimeCleaning:
2617  05c3 447572617461  	dc.b	"Durata Lavaggio",0
2618  05d3               L3101_mc_strMsgCorrectionMax:
2619  05d3 54656d706f20  	dc.b	"Tempo Max Correzio"
2620  05e5 6e6500        	dc.b	"ne",0
2621  05e8               L5101_mc_strMsgCorrectionMin:
2622  05e8 54656d706f20  	dc.b	"Tempo Min Correzio"
2623  05fa 6e6500        	dc.b	"ne",0
2624  05fd               L7101_mc_strMsgCurrentPh:
2625  05fd 704820436f72  	dc.b	"pH Corrente",0
2626  0609               L1201_mc_strMsgCurrentTemp:
2627  0609 54656d706572  	dc.b	"Temperatura corren"
2628  061b 746500        	dc.b	"te",0
2629  061e               L3201_mc_strMsgCurrentViscosity:
2630  061e 566973636f73  	dc.b	"Viscosita' corrent"
2631  0630 6500          	dc.b	"e",0
2632  0632               L5201_mc_strMsgDots:
2633  0632 1c            	dc.b	28
2634  0633 fe            	dc.b	254
2635  0634 2e            	dc.b	46
2636  0635 2e            	dc.b	46
2637  0636 2e            	dc.b	46
2638  0637 fe            	dc.b	254
2639  0638 ff            	dc.b	255
2640  0639               L7201_mc_strMsgLanguage2:
2641  0639 456e676c6973  	dc.b	"English",0
2642  0641               L1301_mc_strMsgLanguage4:
2643  0641 4672616e6361  	dc.b	"Francais",0
2644  064a               L3301_mc_strMsgGain:
2645  064a 477561646167  	dc.b	"Guadagno",0
2646  0653               L5301_mc_strMsgGainPh:
2647  0653 477561646167  	dc.b	"Guadagno pH",0
2648  065f               L7301_mc_strMsgGainSolvent:
2649  065f 477561646167  	dc.b	"Guadagno Solvente",0
2650  0671               L1401_mc_strMsgGainValue:
2651  0671 56616c6f7265  	dc.b	"Valore guadagno ",0
2652  0682               L3401_mc_strMsgLanguage3:
2653  0682 446575747363  	dc.b	"Deutsch",0
2654  068a               L5401_mc_strMsgGraphic:
2655  068a 477261666963  	dc.b	"Grafico",0
2656  0692               L7401_mc_strMsgInsertDelay:
2657  0692 496e73657269  	dc.b	"Inserire ritardo",0
2658  06a3               L1501_mc_strMsgInsertTime:
2659  06a3 496e73657269  	dc.b	"Inserire tempo",0
2660  06b2               L3501_mc_strMsgInsertTimeOf:
2661  06b2 496e73657269  	dc.b	"Inserire tempo di",0
2662  06c4               L5501_mc_strMsgInsertValue:
2663  06c4 496e73657269  	dc.b	"Inserire valore",0
2664  06d4               L7501_mc_strMsgInsertValueOf:
2665  06d4 496e73657269  	dc.b	"Inserire valore di"
2666  06e6 2000          	dc.b	" ",0
2667  06e8               L1601_mc_strMsgInterMeasure:
2668  06e8 496e7465722e  	dc.b	"Inter. Misurazione",0
2669  06fb               L3601_mc_strMsgLanguage1:
2670  06fb 4974616c6961  	dc.b	"Italiano",0
2671  0704               L5601_mc_strMsgJobLoad:
2672  0704 436172696361  	dc.b	"Carica Lavoro",0
2673  0712               L7601_mc_strMsgJobLoadIn:
2674  0712 436172696361  	dc.b	"Carica Lavoro da ",0
2675  0724               L1701_mc_strMsgJobPosition:
2676  0724 506f73697a69  	dc.b	"Posizione",0
2677  072e               L3701_mc_strMsgJobs:
2678  072e 417263686976  	dc.b	"Archivio Lavori",0
2679  073e               L5701_mc_strMsgJobSave:
2680  073e 53616c766120  	dc.b	"Salva Lavoro",0
2681  074b               L7701_mc_strMsgJobSaveIn:
2682  074b 53616c766120  	dc.b	"Salva Lavoro in ",0
2683  075c               L1011_mc_strMsgLanguage:
2684  075c 4c696e677561  	dc.b	"Lingua",0
2685  0763               L3011_mc_strMsgLanguage8:
2686  0763 4c696e677561  	dc.b	"Lingua 8",0
2687  076c               L5011_mc_strMsgLanguage7:
2688  076c 4c696e677561  	dc.b	"Lingua 7",0
2689  0775               L7011_mc_strMsgLogo:
2690  0775 1e            	dc.b	30
2691  0776 fe            	dc.b	254
2692  0777 10            	dc.b	16
2693  0778 09            	dc.b	9
2694  0779 2b            	dc.b	43
2695  077a fe            	dc.b	254
2696  077b 56            	dc.b	86
2697  077c 49            	dc.b	73
2698  077d 53            	dc.b	83
2699  077e 43            	dc.b	67
2700  077f 4f            	dc.b	79
2701  0780 57            	dc.b	87
2702  0781 41            	dc.b	65
2703  0782 4c            	dc.b	76
2704  0783 fe            	dc.b	254
2705  0784 1d            	dc.b	29
2706  0785 fe            	dc.b	254
2707  0786 10            	dc.b	16
2708  0787 36            	dc.b	54
2709  0788 12            	dc.b	18
2710  0789 fe            	dc.b	254
2711  078a 65            	dc.b	101
2712  078b 6c            	dc.b	108
2713  078c 65            	dc.b	101
2714  078d 74            	dc.b	116
2715  078e 74            	dc.b	116
2716  078f 72            	dc.b	114
2717  0790 6f            	dc.b	111
2718  0791 6e            	dc.b	110
2719  0792 69            	dc.b	105
2720  0793 63            	dc.b	99
2721  0794 61            	dc.b	97
2722  0795 fe            	dc.b	254
2723  0796 1e            	dc.b	30
2724  0797 fe            	dc.b	254
2725  0798 10            	dc.b	16
2726  0799 05            	dc.b	5
2727  079a 12            	dc.b	18
2728  079b fe            	dc.b	254
2729  079c 7a            	dc.b	122
2730  079d 65            	dc.b	101
2731  079e 6c            	dc.b	108
2732  079f 6f            	dc.b	111
2733  07a0 fe            	dc.b	254
2734  07a1 1e            	dc.b	30
2735  07a2 fe            	dc.b	254
2736  07a3 10            	dc.b	16
2737  07a4 08            	dc.b	8
2738  07a5 3b            	dc.b	59
2739  07a6 fe            	dc.b	254
2740  07a7 31            	dc.b	49
2741  07a8 30            	dc.b	48
2742  07a9 30            	dc.b	48
2743  07aa fe            	dc.b	254
2744  07ab ff            	dc.b	255
2745  07ac               L1111_mc_strMsgMeasureTime:
2746  07ac 6469206d6973  	dc.b	"di misurazione (se"
2747  07be 632e2900      	dc.b	"c.)",0
2748  07c2               L3111_mc_strMsgMeasureTimeout:
2749  07c2 54696d656f75  	dc.b	"Timeout Misurazion"
2750  07d4 6500          	dc.b	"e",0
2751  07d6               L5111_mc_strMsgMilliSeconds:
2752  07d6 6d7365632e00  	dc.b	"msec.",0
2753  07dc               L7111_mc_strMsgMinutes:
2754  07dc 6d696e2e00    	dc.b	"min.",0
2755  07e1               L1211_mc_strMsgNo:
2756  07e1 4e6f00        	dc.b	"No",0
2757  07e4               L3211_mc_strMsgOnAddingPh1:
2758  07e4 41676769756e  	dc.b	"Aggiunta Acido/Bas"
2759  07f6 6500          	dc.b	"e",0
2760  07f8               L5211_mc_strMsgOnAddingPh2:
2761  07f8 696e20636f72  	dc.b	"in corso",0
2762  0801               L7211_mc_strMsgOnAddingSolvent1:
2763  0801 41676769756e  	dc.b	"Aggiunta Solvente",0
2764  0813               L1311_mc_strMsgOnAddingSolvent2:
2765  0813 696e20636f72  	dc.b	"in corso",0
2766  081c               L3311_mc_strMsgOnCleaning1:
2767  081c 4c6176616767  	dc.b	"Lavaggio",0
2768  0825               L5311_mc_strMsgOnCleaning2:
2769  0825 696e20636f72  	dc.b	"in corso",0
2770  082e               L7311_mc_strMsgOnMeasure1:
2771  082e 4d6973757261  	dc.b	"Misurazione",0
2772  083a               L1411_mc_strMsgOnMeasure2:
2773  083a 696e20636f72  	dc.b	"in corso",0
2774  0843               L3411_mc_strMsgPh:
2775  0843 704800        	dc.b	"pH",0
2776  0846               L5411_mc_strMsgPhMax:
2777  0846 7048206d6173  	dc.b	"pH massimo",0
2778  0851               L7411_mc_strMsgPhMin:
2779  0851 7048206d696e  	dc.b	"pH minimo",0
2780  085b               L1511_mc_strMsgLanguage6:
2781  085b 506f72747567  	dc.b	"Portugues",0
2782  0865               L3511_mc_strMsgReset:
2783  0865 526573657400  	dc.b	"Reset",0
2784  086b               L5511_mc_strMsgSeconds:
2785  086b 7365632e00    	dc.b	"sec.",0
2786  0870               L7511_mc_strMsgSetting:
2787  0870 506172616d65  	dc.b	"Parametri",0
2788  087a               L1611_mc_strMsgSolvent:
2789  087a 536f6c76656e  	dc.b	"Solvente",0
2790  0883               L3611_mc_strMsgLanguage5:
2791  0883 457370616e6f  	dc.b	"Espanol",0
2792  088b               L5611_mc_strMsgTemperature:
2793  088b 54656d706572  	dc.b	"Temperatura",0
2794  0897               L7611_mc_strMsgTimeMax:
2795  0897 496e73657269  	dc.b	"Inserire tempo Max",0
2796  08aa               L1711_mc_strMsgTimer:
2797  08aa 54656d706900  	dc.b	"Tempi",0
2798  08b0               L3711_mc_strMsgUnitCelsius:
2799  08b0 43656c736975  	dc.b	"Celsius",0
2800  08b8               L5711_mc_strMsgUnitDin:
2801  08b8 44494e00      	dc.b	"DIN",0
2802  08bc               L7711_mc_strMsgUnitFahrenheit:
2803  08bc 46616872656e  	dc.b	"Fahrenheit",0
2804  08c7               L1021_mc_strMsgUnitFord:
2805  08c7 466f726400    	dc.b	"Ford",0
2806  08cc               L3021_mc_strMsgUnitOfMeasure:
2807  08cc 556e69746127  	dc.b	"Unita' di misura",0
2808  08dd               L5021_mc_strMsgUnitPh:
2809  08dd 704820554d00  	dc.b	"pH UM",0
2810  08e3               L7021_mc_strMsgUnitZahn:
2811  08e3 5a61686e00    	dc.b	"Zahn",0
2812  08e8               L1121_mc_strMsgValve:
2813  08e8 506e65756d61  	dc.b	"Pneumatica",0
2814  08f3               L3121_mc_strMsgValveDelay:
2815  08f3 4f6e2f4f6666  	dc.b	"On/Off valvole",0
2816  0902               L5121_mc_strMsgVersion:
2817  0902 7620312e3030  	dc.b	"v 1.00",0
2818  0909               L7121_mc_strMsgViscosity:
2819  0909 566973636f73  	dc.b	"Viscosita'",0
2820  0914               L1221_mc_strMsgViscosityLittle:
2821  0914 566973636f73  	dc.b	"Viscosita",0
2822  091e               L3221_mc_strMsgViscosityMax:
2823  091e 566973636f73  	dc.b	"Viscosita' Max",0
2824  092d               L5221_mc_strMsgViscosityMin:
2825  092d 566973636f73  	dc.b	"Viscosita' Min",0
2826  093c               L7221_mc_strMsgVisual:
2827  093c 56697375616c  	dc.b	"Visualizzazione",0
2828  094c               L1321_mc_strMsgYes:
2829  094c 53692700      	dc.b	"Si'",0
2830  0950               L3321_mc_strNull:
2831  0950 ff            	dc.b	255
2832  0951               L5321_mc_strPosMain:
2833  0951 1c            	dc.b	28
2834  0952 fe            	dc.b	254
2835  0953 10            	dc.b	16
2836  0954 02            	dc.b	2
2837  0955 07            	dc.b	7
2838  0956 fe            	dc.b	254
2839  0957 ff            	dc.b	255
2840  0958               L7321_mc_strPosMain1:
2841  0958 1c            	dc.b	28
2842  0959 fe            	dc.b	254
2843  095a 10            	dc.b	16
2844  095b 4a            	dc.b	74
2845  095c 07            	dc.b	7
2846  095d fe            	dc.b	254
2847  095e ff            	dc.b	255
2848  095f               L1421_mc_strPosMain2:
2849  095f 1c            	dc.b	28
2850  0960 fe            	dc.b	254
2851  0961 10            	dc.b	16
2852  0962 4a            	dc.b	74
2853  0963 21            	dc.b	33
2854  0964 fe            	dc.b	254
2855  0965 ff            	dc.b	255
2856  0966               L3421_mc_strPosMainValue:
2857  0966 1e            	dc.b	30
2858  0967 fe            	dc.b	254
2859  0968 10            	dc.b	16
2860  0969 0b            	dc.b	11
2861  096a 24            	dc.b	36
2862  096b fe            	dc.b	254
2863  096c ff            	dc.b	255
2864  096d               L5421_mc_strPosMainValue1:
2865  096d 1d            	dc.b	29
2866  096e fe            	dc.b	254
2867  096f 10            	dc.b	16
2868  0970 49            	dc.b	73
2869  0971 12            	dc.b	18
2870  0972 fe            	dc.b	254
2871  0973 ff            	dc.b	255
2872  0974               L7421_mc_strPosMainValue2:
2873  0974 1d            	dc.b	29
2874  0975 fe            	dc.b	254
2875  0976 10            	dc.b	16
2876  0977 49            	dc.b	73
2877  0978 2c            	dc.b	44
2878  0979 fe            	dc.b	254
2879  097a ff            	dc.b	255
2880  097b               L1521_mc_strPosMainValueLittle:
2881  097b 1d            	dc.b	29
2882  097c fe            	dc.b	254
2883  097d 10            	dc.b	16
2884  097e 24            	dc.b	36
2885  097f 35            	dc.b	53
2886  0980 fe            	dc.b	254
2887  0981 ff            	dc.b	255
2888  0982               L3521_mc_strPosMainValueLittle1:
2889  0982 1c            	dc.b	28
2890  0983 fe            	dc.b	254
2891  0984 10            	dc.b	16
2892  0985 69            	dc.b	105
2893  0986 12            	dc.b	18
2894  0987 fe            	dc.b	254
2895  0988 ff            	dc.b	255
2896  0989               L5521_mc_strPosMainValueLittle2:
2897  0989 1c            	dc.b	28
2898  098a fe            	dc.b	254
2899  098b 10            	dc.b	16
2900  098c 69            	dc.b	105
2901  098d 2c            	dc.b	44
2902  098e fe            	dc.b	254
2903  098f ff            	dc.b	255
2904  0990               L7521_mc_strPosMenu1:
2905  0990 1d            	dc.b	29
2906  0991 fe            	dc.b	254
2907  0992 10            	dc.b	16
2908  0993 03            	dc.b	3
2909  0994 0d            	dc.b	13
2910  0995 fe            	dc.b	254
2911  0996 ff            	dc.b	255
2912  0997               L1621_mc_strPosMenu2:
2913  0997 1d            	dc.b	29
2914  0998 fe            	dc.b	254
2915  0999 10            	dc.b	16
2916  099a 03            	dc.b	3
2917  099b 1b            	dc.b	27
2918  099c fe            	dc.b	254
2919  099d ff            	dc.b	255
2920  099e               L3621_mc_strPosMenu3:
2921  099e 1d            	dc.b	29
2922  099f fe            	dc.b	254
2923  09a0 10            	dc.b	16
2924  09a1 03            	dc.b	3
2925  09a2 2a            	dc.b	42
2926  09a3 fe            	dc.b	254
2927  09a4 ff            	dc.b	255
2928  09a5               L5621_mc_strPosMenu4:
2929  09a5 1d            	dc.b	29
2930  09a6 fe            	dc.b	254
2931  09a7 10            	dc.b	16
2932  09a8 03            	dc.b	3
2933  09a9 38            	dc.b	56
2934  09aa fe            	dc.b	254
2935  09ab ff            	dc.b	255
2936  09ac               L7621_mc_strPosMenu1Mini:
2937  09ac 1c            	dc.b	28
2938  09ad fe            	dc.b	254
2939  09ae 10            	dc.b	16
2940  09af 03            	dc.b	3
2941  09b0 0d            	dc.b	13
2942  09b1 fe            	dc.b	254
2943  09b2 ff            	dc.b	255
2944  09b3               L1721_mc_strPosMenu2Mini:
2945  09b3 1c            	dc.b	28
2946  09b4 fe            	dc.b	254
2947  09b5 10            	dc.b	16
2948  09b6 03            	dc.b	3
2949  09b7 1b            	dc.b	27
2950  09b8 fe            	dc.b	254
2951  09b9 ff            	dc.b	255
2952  09ba               L3721_mc_strPosMenu3Mini:
2953  09ba 1c            	dc.b	28
2954  09bb fe            	dc.b	254
2955  09bc 10            	dc.b	16
2956  09bd 03            	dc.b	3
2957  09be 2a            	dc.b	42
2958  09bf fe            	dc.b	254
2959  09c0 ff            	dc.b	255
2960  09c1               L5721_mc_strPosMenu4Mini:
2961  09c1 1c            	dc.b	28
2962  09c2 fe            	dc.b	254
2963  09c3 10            	dc.b	16
2964  09c4 03            	dc.b	3
2965  09c5 38            	dc.b	56
2966  09c6 fe            	dc.b	254
2967  09c7 ff            	dc.b	255
2968  09c8               L7721_mc_strPosValueLabel:
2969  09c8 1d            	dc.b	29
2970  09c9 fe            	dc.b	254
2971  09ca 10            	dc.b	16
2972  09cb 03            	dc.b	3
2973  09cc 34            	dc.b	52
2974  09cd fe            	dc.b	254
2975  09ce ff            	dc.b	255
2976  09cf               L1031_mc_strPosValueVal:
2977  09cf 1e            	dc.b	30
2978  09d0 fe            	dc.b	254
2979  09d1 10            	dc.b	16
2980  09d2 36            	dc.b	54
2981  09d3 35            	dc.b	53
2982  09d4 fe            	dc.b	254
2983  09d5 ff            	dc.b	255
2984  09d6               L3031_mc_strPosVersion:
2985  09d6 1d            	dc.b	29
2986  09d7 fe            	dc.b	254
2987  09d8 10            	dc.b	16
2988  09d9 53            	dc.b	83
2989  09da 3e            	dc.b	62
2990  09db fe            	dc.b	254
2991  09dc ff            	dc.b	255
2992  09dd               L5031_mc_strRecClear:
2993  09dd 12            	dc.b	18
2994  09de 00            	dc.b	0
2995  09df 00            	dc.b	0
2996  09e0 7e            	dc.b	126
2997  09e1 40            	dc.b	64
2998  09e2 fe            	dc.b	254
2999  09e3 ff            	dc.b	255
3000  09e4               L7031_mc_strRectMain:
3001  09e4 14            	dc.b	20
3002  09e5 00            	dc.b	0
3003  09e6 00            	dc.b	0
3004  09e7 45            	dc.b	69
3005  09e8 3e            	dc.b	62
3006  09e9 fe            	dc.b	254
3007  09ea 11            	dc.b	17
3008  09eb 01            	dc.b	1
3009  09ec 3e            	dc.b	62
3010  09ed 45            	dc.b	69
3011  09ee 3e            	dc.b	62
3012  09ef fe            	dc.b	254
3013  09f0 11            	dc.b	17
3014  09f1 45            	dc.b	69
3015  09f2 01            	dc.b	1
3016  09f3 46            	dc.b	70
3017  09f4 3e            	dc.b	62
3018  09f5 fe            	dc.b	254
3019  09f6 ff            	dc.b	255
3020  09f7               L1131_mc_strRectMain1:
3021  09f7 14            	dc.b	20
3022  09f8 48            	dc.b	72
3023  09f9 00            	dc.b	0
3024  09fa 7c            	dc.b	124
3025  09fb 16            	dc.b	22
3026  09fc fe            	dc.b	254
3027  09fd 11            	dc.b	17
3028  09fe 49            	dc.b	73
3029  09ff 16            	dc.b	22
3030  0a00 7b            	dc.b	123
3031  0a01 17            	dc.b	23
3032  0a02 fe            	dc.b	254
3033  0a03 11            	dc.b	17
3034  0a04 7c            	dc.b	124
3035  0a05 01            	dc.b	1
3036  0a06 7d            	dc.b	125
3037  0a07 16            	dc.b	22
3038  0a08 fe            	dc.b	254
3039  0a09 ff            	dc.b	255
3040  0a0a               L3131_mc_strRectMain2:
3041  0a0a 14            	dc.b	20
3042  0a0b 48            	dc.b	72
3043  0a0c 1a            	dc.b	26
3044  0a0d 7c            	dc.b	124
3045  0a0e 30            	dc.b	48
3046  0a0f fe            	dc.b	254
3047  0a10 11            	dc.b	17
3048  0a11 49            	dc.b	73
3049  0a12 30            	dc.b	48
3050  0a13 7b            	dc.b	123
3051  0a14 31            	dc.b	49
3052  0a15 fe            	dc.b	254
3053  0a16 11            	dc.b	17
3054  0a17 7c            	dc.b	124
3055  0a18 1b            	dc.b	27
3056  0a19 7d            	dc.b	125
3057  0a1a 2f            	dc.b	47
3058  0a1b fe            	dc.b	254
3059  0a1c ff            	dc.b	255
3060  0a1d               L5131_mc_strRectMenu:
3061  0a1d 12            	dc.b	18
3062  0a1e 00            	dc.b	0
3063  0a1f 00            	dc.b	0
3064  0a20 7c            	dc.b	124
3065  0a21 3e            	dc.b	62
3066  0a22 fe            	dc.b	254
3067  0a23 14            	dc.b	20
3068  0a24 00            	dc.b	0
3069  0a25 00            	dc.b	0
3070  0a26 7c            	dc.b	124
3071  0a27 3e            	dc.b	62
3072  0a28 fe            	dc.b	254
3073  0a29 11            	dc.b	17
3074  0a2a 01            	dc.b	1
3075  0a2b 3e            	dc.b	62
3076  0a2c 7d            	dc.b	125
3077  0a2d 3f            	dc.b	63
3078  0a2e fe            	dc.b	254
3079  0a2f 11            	dc.b	17
3080  0a30 7c            	dc.b	124
3081  0a31 01            	dc.b	1
3082  0a32 7d            	dc.b	125
3083  0a33 3f            	dc.b	63
3084  0a34 fe            	dc.b	254
3085  0a35 ff            	dc.b	255
3086  0a36               L7131_mc_strRectMenu1Sel:
3087  0a36 13            	dc.b	19
3088  0a37 02            	dc.b	2
3089  0a38 03            	dc.b	3
3090  0a39 79            	dc.b	121
3091  0a3a 0f            	dc.b	15
3092  0a3b fe            	dc.b	254
3093  0a3c ff            	dc.b	255
3094  0a3d               L1231_mc_strRectMenu2Sel:
3095  0a3d 13            	dc.b	19
3096  0a3e 02            	dc.b	2
3097  0a3f 11            	dc.b	17
3098  0a40 79            	dc.b	121
3099  0a41 1d            	dc.b	29
3100  0a42 fe            	dc.b	254
3101  0a43 ff            	dc.b	255
3102  0a44               L3231_mc_strRectMenu3Sel:
3103  0a44 13            	dc.b	19
3104  0a45 02            	dc.b	2
3105  0a46 20            	dc.b	32
3106  0a47 79            	dc.b	121
3107  0a48 2c            	dc.b	44
3108  0a49 fe            	dc.b	254
3109  0a4a ff            	dc.b	255
3110  0a4b               L5231_mc_strRectMenu4Sel:
3111  0a4b 13            	dc.b	19
3112  0a4c 02            	dc.b	2
3113  0a4d 2e            	dc.b	46
3114  0a4e 79            	dc.b	121
3115  0a4f 3a            	dc.b	58
3116  0a50 fe            	dc.b	254
3117  0a51 ff            	dc.b	255
3118  0a52               L7231_mc_strRectMsg:
3119  0a52 12            	dc.b	18
3120  0a53 00            	dc.b	0
3121  0a54 00            	dc.b	0
3122  0a55 7c            	dc.b	124
3123  0a56 3e            	dc.b	62
3124  0a57 fe            	dc.b	254
3125  0a58 14            	dc.b	20
3126  0a59 00            	dc.b	0
3127  0a5a 00            	dc.b	0
3128  0a5b 7c            	dc.b	124
3129  0a5c 3e            	dc.b	62
3130  0a5d fe            	dc.b	254
3131  0a5e 11            	dc.b	17
3132  0a5f 01            	dc.b	1
3133  0a60 3e            	dc.b	62
3134  0a61 7d            	dc.b	125
3135  0a62 3f            	dc.b	63
3136  0a63 fe            	dc.b	254
3137  0a64 11            	dc.b	17
3138  0a65 7c            	dc.b	124
3139  0a66 01            	dc.b	1
3140  0a67 7d            	dc.b	125
3141  0a68 3f            	dc.b	63
3142  0a69 fe            	dc.b	254
3143  0a6a ff            	dc.b	255
3144  0a6b               L1331_mc_strRectValue:
3145  0a6b 12            	dc.b	18
3146  0a6c 00            	dc.b	0
3147  0a6d 00            	dc.b	0
3148  0a6e 7c            	dc.b	124
3149  0a6f 3e            	dc.b	62
3150  0a70 fe            	dc.b	254
3151  0a71 14            	dc.b	20
3152  0a72 00            	dc.b	0
3153  0a73 00            	dc.b	0
3154  0a74 7c            	dc.b	124
3155  0a75 3e            	dc.b	62
3156  0a76 fe            	dc.b	254
3157  0a77 11            	dc.b	17
3158  0a78 01            	dc.b	1
3159  0a79 3e            	dc.b	62
3160  0a7a 7d            	dc.b	125
3161  0a7b 3f            	dc.b	63
3162  0a7c fe            	dc.b	254
3163  0a7d 11            	dc.b	17
3164  0a7e 7c            	dc.b	124
3165  0a7f 01            	dc.b	1
3166  0a80 7d            	dc.b	125
3167  0a81 3f            	dc.b	63
3168  0a82 fe            	dc.b	254
3169  0a83 ff            	dc.b	255
3170  0a84               L3331_mc_strRecValueInner:
3171  0a84 14            	dc.b	20
3172  0a85 30            	dc.b	48
3173  0a86 21            	dc.b	33
3174  0a87 6f            	dc.b	111
3175  0a88 39            	dc.b	57
3176  0a89 fe            	dc.b	254
3177  0a8a ff            	dc.b	255
3178  0a8b               L5331_mc_strMsgTimeAllarm:
3179  0a8b 447572617461  	dc.b	"Durata Allarme",0
3180  0a9a               L7331_mc_strMsgTemperatureMax:
3181  0a9a 54656d706572  	dc.b	"Temperatura Max",0
3182  0aaa               L1431_mc_strMsgTemperatureMin:
3183  0aaa 54656d706572  	dc.b	"Temperatura Min",0
3184  0aba               L3431_mc_strMsgAskAdd:
3185  0aba 41676769756e  	dc.b	"Aggiungere",0
3186  0ac5               L5431_mc_strMsgPressKeyToEsc:
3187  0ac5 5072656d6572  	dc.b	"Premere un tasto p"
3188  0ad7 657220746572  	dc.b	"er terminare",0
3189  0ae4               L7431_mc_strMsgAskAcidBase:
3190  0ae4 416369646f2f  	dc.b	"Acido/Base?",0
3191  0af0               L1531_mc_strMsgAskSolvent:
3192  0af0 536f6c76656e  	dc.b	"Solvente?",0
4699                     ; 51 void applicationInit(void)
4699                     ; 52 {
4700                     	switch	.text
4701  0000               _applicationInit:
4704                     ; 53 	eepromInit();
4706  0000 cd0000        	call	_eepromInit
4708                     ; 54 }
4711  0003 81            	ret
4775                     ; 57 void applicationMain(void)
4775                     ; 58 {
4776                     	switch	.text
4778                     	xref.b	_applicationMain$L
4779  0004               _applicationMain:
4782                     ; 59 	const WORD cintInitialAddress = EEPROM_INITIAL_OFFSET + (EEPROM_LANGUAGE_NUMBER*EEPROM_LANGUAGE_LENGTH);
4784  0004 a614          	ld	a,#20
4785  0006 b79b          	ld	_applicationMain$L-101,a
4786  0008 4f            	clr	a
4787  0009 b79c          	ld	_applicationMain$L-100,a
4788                     ; 61 	WORD intAddress = 0x0000;
4790  000b 3ffd          	clr	_applicationMain$L-3
4791  000d 3ffe          	clr	_applicationMain$L-2
4792                     ; 62 	BYTE byMsgIdx = 0x00;
4794  000f 3fff          	clr	_applicationMain$L-1
4795                     ; 64 	PDDR = 0x00;
4797  0011 3f09          	clr	_PDDR
4798                     ; 67 byMsgIdx = EEPROM_MSG_IDX_MAIN_VISCOSITY_FULL; PDDR =byMsgIdx; intAddress = cintInitialAddress + (byMsgIdx * EEPROM_MSG_LENGTH); memcpy(strMessage, EEPROM_MSG_MAIN_VISCOSITY_FULL, EEPROM_MSG_LENGTH-1 );writeEepromString(intAddress, strMessage);
4800  0013 3fff          	clr	_applicationMain$L-1
4803  0015 3f09          	clr	_PDDR
4806  0017 be9b          	ld	x,_applicationMain$L-101
4807  0019 bffd          	ld	_applicationMain$L-3,x
4808  001b b69c          	ld	a,_applicationMain$L-100
4809  001d b7fe          	ld	_applicationMain$L-2,a
4812  001f a65f          	ld	a,#95
4813  0021 b704          	ld	_memcpy$L+4,a
4814  0023 aee7          	ld	x,#high(L3152)
4815  0025 bf02          	ld	_memcpy$L+2,x
4816  0027 a6e7          	ld	a,#low(L3152)
4817  0029 b703          	ld	_memcpy$L+3,a
4818  002b a69d          	ld	a,#_applicationMain$L-99
4819  002d 5f            	clr	x
4820  002e cd0000        	call	_memcpy
4824  0031 ae9d          	ld	x,#high(_applicationMain$L-99)
4825  0033 bf02          	ld	_writeEepromString$L+2,x
4826  0035 a69d          	ld	a,#low(_applicationMain$L-99)
4827  0037 b703          	ld	_writeEepromString$L+3,a
4828  0039 b6fe          	ld	a,_applicationMain$L-2
4829  003b befd          	ld	x,_applicationMain$L-3
4830  003d cd0000        	call	_writeEepromString
4832                     ; 68 byMsgIdx = EEPROM_MSG_IDX_MAIN_VISCOSITY_NOPH; PDDR =byMsgIdx; intAddress = cintInitialAddress + (byMsgIdx * EEPROM_MSG_LENGTH); memcpy(strMessage, EEPROM_MSG_MAIN_VISCOSITY_NOPH, EEPROM_MSG_LENGTH-1 );writeEepromString(intAddress, strMessage);
4834  0040 a601          	ld	a,#1
4835  0042 b7ff          	ld	_applicationMain$L-1,a
4838  0044 a601          	ld	a,#1
4839  0046 b709          	ld	_PDDR,a
4842  0048 b69c          	ld	a,_applicationMain$L-100
4843  004a be9b          	ld	x,_applicationMain$L-101
4844  004c ab60          	add	a,#96
4845  004e 2401          	jrnc	L01
4846  0050 5c            	inc	x
4847  0051               L01:
4848  0051 b7fe          	ld	_applicationMain$L-2,a
4849  0053 bffd          	ld	_applicationMain$L-3,x
4852  0055 a65f          	ld	a,#95
4853  0057 b704          	ld	_memcpy$L+4,a
4854  0059 aed1          	ld	x,#high(L5152)
4855  005b bf02          	ld	_memcpy$L+2,x
4856  005d a6d1          	ld	a,#low(L5152)
4857  005f b703          	ld	_memcpy$L+3,a
4858  0061 a69d          	ld	a,#_applicationMain$L-99
4859  0063 5f            	clr	x
4860  0064 cd0000        	call	_memcpy
4864  0067 ae9d          	ld	x,#high(_applicationMain$L-99)
4865  0069 bf02          	ld	_writeEepromString$L+2,x
4866  006b a69d          	ld	a,#low(_applicationMain$L-99)
4867  006d b703          	ld	_writeEepromString$L+3,a
4868  006f b6fe          	ld	a,_applicationMain$L-2
4869  0071 befd          	ld	x,_applicationMain$L-3
4870  0073 cd0000        	call	_writeEepromString
4872                     ; 69 byMsgIdx = EEPROM_MSG_IDX_MAIN_PH; PDDR =byMsgIdx; intAddress = cintInitialAddress + (byMsgIdx * EEPROM_MSG_LENGTH); memcpy(strMessage, EEPROM_MSG_MAIN_PH, EEPROM_MSG_LENGTH-1 );writeEepromString(intAddress, strMessage);
4874  0076 a602          	ld	a,#2
4875  0078 b7ff          	ld	_applicationMain$L-1,a
4878  007a a602          	ld	a,#2
4879  007c b709          	ld	_PDDR,a
4882  007e b69c          	ld	a,_applicationMain$L-100
4883  0080 be9b          	ld	x,_applicationMain$L-101
4884  0082 abc0          	add	a,#192
4885  0084 2401          	jrnc	L21
4886  0086 5c            	inc	x
4887  0087               L21:
4888  0087 b7fe          	ld	_applicationMain$L-2,a
4889  0089 bffd          	ld	_applicationMain$L-3,x
4892  008b a65f          	ld	a,#95
4893  008d b704          	ld	_memcpy$L+4,a
4894  008f aeb8          	ld	x,#high(L7152)
4895  0091 bf02          	ld	_memcpy$L+2,x
4896  0093 a6b8          	ld	a,#low(L7152)
4897  0095 b703          	ld	_memcpy$L+3,a
4898  0097 a69d          	ld	a,#_applicationMain$L-99
4899  0099 5f            	clr	x
4900  009a cd0000        	call	_memcpy
4904  009d ae9d          	ld	x,#high(_applicationMain$L-99)
4905  009f bf02          	ld	_writeEepromString$L+2,x
4906  00a1 a69d          	ld	a,#low(_applicationMain$L-99)
4907  00a3 b703          	ld	_writeEepromString$L+3,a
4908  00a5 b6fe          	ld	a,_applicationMain$L-2
4909  00a7 befd          	ld	x,_applicationMain$L-3
4910  00a9 cd0000        	call	_writeEepromString
4912                     ; 70 byMsgIdx = EEPROM_MSG_IDX_MAIN_TEMPERATURE_FULL; PDDR =byMsgIdx; intAddress = cintInitialAddress + (byMsgIdx * EEPROM_MSG_LENGTH); memcpy(strMessage, EEPROM_MSG_MAIN_TEMPERATURE_FULL, EEPROM_MSG_LENGTH-1 );writeEepromString(intAddress, strMessage);
4914  00ac a603          	ld	a,#3
4915  00ae b7ff          	ld	_applicationMain$L-1,a
4918  00b0 a603          	ld	a,#3
4919  00b2 b709          	ld	_PDDR,a
4922  00b4 b69c          	ld	a,_applicationMain$L-100
4923  00b6 be9b          	ld	x,_applicationMain$L-101
4924  00b8 ab20          	add	a,#32
4925  00ba 88            	push	a
4926  00bb 9f            	ld	a,x
4927  00bc a901          	adc	a,#1
4928  00be 97            	ld	x,a
4929  00bf 84            	pop	a
4930  00c0 b7fe          	ld	_applicationMain$L-2,a
4931  00c2 bffd          	ld	_applicationMain$L-3,x
4934  00c4 a65f          	ld	a,#95
4935  00c6 b704          	ld	_memcpy$L+4,a
4936  00c8 ae9f          	ld	x,#high(L1252)
4937  00ca bf02          	ld	_memcpy$L+2,x
4938  00cc a69f          	ld	a,#low(L1252)
4939  00ce b703          	ld	_memcpy$L+3,a
4940  00d0 a69d          	ld	a,#_applicationMain$L-99
4941  00d2 5f            	clr	x
4942  00d3 cd0000        	call	_memcpy
4946  00d6 ae9d          	ld	x,#high(_applicationMain$L-99)
4947  00d8 bf02          	ld	_writeEepromString$L+2,x
4948  00da a69d          	ld	a,#low(_applicationMain$L-99)
4949  00dc b703          	ld	_writeEepromString$L+3,a
4950  00de b6fe          	ld	a,_applicationMain$L-2
4951  00e0 befd          	ld	x,_applicationMain$L-3
4952  00e2 cd0000        	call	_writeEepromString
4954                     ; 71 byMsgIdx = EEPROM_MSG_IDX_MAIN_TEMPERATURE_NOPH; PDDR =byMsgIdx; intAddress = cintInitialAddress + (byMsgIdx * EEPROM_MSG_LENGTH); memcpy(strMessage, EEPROM_MSG_MAIN_TEMPERATURE_NOPH, EEPROM_MSG_LENGTH-1 );writeEepromString(intAddress, strMessage);
4956  00e5 a604          	ld	a,#4
4957  00e7 b7ff          	ld	_applicationMain$L-1,a
4960  00e9 a604          	ld	a,#4
4961  00eb b709          	ld	_PDDR,a
4964  00ed b69c          	ld	a,_applicationMain$L-100
4965  00ef be9b          	ld	x,_applicationMain$L-101
4966  00f1 ab80          	add	a,#128
4967  00f3 88            	push	a
4968  00f4 9f            	ld	a,x
4969  00f5 a901          	adc	a,#1
4970  00f7 97            	ld	x,a
4971  00f8 84            	pop	a
4972  00f9 b7fe          	ld	_applicationMain$L-2,a
4973  00fb bffd          	ld	_applicationMain$L-3,x
4976  00fd a65f          	ld	a,#95
4977  00ff b704          	ld	_memcpy$L+4,a
4978  0101 ae89          	ld	x,#high(L3252)
4979  0103 bf02          	ld	_memcpy$L+2,x
4980  0105 a689          	ld	a,#low(L3252)
4981  0107 b703          	ld	_memcpy$L+3,a
4982  0109 a69d          	ld	a,#_applicationMain$L-99
4983  010b 5f            	clr	x
4984  010c cd0000        	call	_memcpy
4988  010f ae9d          	ld	x,#high(_applicationMain$L-99)
4989  0111 bf02          	ld	_writeEepromString$L+2,x
4990  0113 a69d          	ld	a,#low(_applicationMain$L-99)
4991  0115 b703          	ld	_writeEepromString$L+3,a
4992  0117 b6fe          	ld	a,_applicationMain$L-2
4993  0119 befd          	ld	x,_applicationMain$L-3
4994  011b cd0000        	call	_writeEepromString
4996                     ; 72 byMsgIdx = EEPROM_MSG_IDX_POPUP_MEASURING; PDDR =byMsgIdx; intAddress = cintInitialAddress + (byMsgIdx * EEPROM_MSG_LENGTH); memcpy(strMessage, EEPROM_MSG_POPUP_MEASURING, EEPROM_MSG_LENGTH-1 );writeEepromString(intAddress, strMessage);
4998  011e a605          	ld	a,#5
4999  0120 b7ff          	ld	_applicationMain$L-1,a
5002  0122 a605          	ld	a,#5
5003  0124 b709          	ld	_PDDR,a
5006  0126 b69c          	ld	a,_applicationMain$L-100
5007  0128 be9b          	ld	x,_applicationMain$L-101
5008  012a abe0          	add	a,#224
5009  012c 88            	push	a
5010  012d 9f            	ld	a,x
5011  012e a901          	adc	a,#1
5012  0130 97            	ld	x,a
5013  0131 84            	pop	a
5014  0132 b7fe          	ld	_applicationMain$L-2,a
5015  0134 bffd          	ld	_applicationMain$L-3,x
5018  0136 a65f          	ld	a,#95
5019  0138 b704          	ld	_memcpy$L+4,a
5020  013a ae72          	ld	x,#high(L5252)
5021  013c bf02          	ld	_memcpy$L+2,x
5022  013e a672          	ld	a,#low(L5252)
5023  0140 b703          	ld	_memcpy$L+3,a
5024  0142 a69d          	ld	a,#_applicationMain$L-99
5025  0144 5f            	clr	x
5026  0145 cd0000        	call	_memcpy
5030  0148 ae9d          	ld	x,#high(_applicationMain$L-99)
5031  014a bf02          	ld	_writeEepromString$L+2,x
5032  014c a69d          	ld	a,#low(_applicationMain$L-99)
5033  014e b703          	ld	_writeEepromString$L+3,a
5034  0150 b6fe          	ld	a,_applicationMain$L-2
5035  0152 befd          	ld	x,_applicationMain$L-3
5036  0154 cd0000        	call	_writeEepromString
5038                     ; 73 byMsgIdx = EEPROM_MSG_IDX_POPUP_ADD_PH; PDDR =byMsgIdx; intAddress = cintInitialAddress + (byMsgIdx * EEPROM_MSG_LENGTH); memcpy(strMessage, EEPROM_MSG_POPUP_ADD_PH, EEPROM_MSG_LENGTH-1 );writeEepromString(intAddress, strMessage);
5040  0157 a606          	ld	a,#6
5041  0159 b7ff          	ld	_applicationMain$L-1,a
5044  015b a606          	ld	a,#6
5045  015d b709          	ld	_PDDR,a
5048  015f b69c          	ld	a,_applicationMain$L-100
5049  0161 be9b          	ld	x,_applicationMain$L-101
5050  0163 ab40          	add	a,#64
5051  0165 88            	push	a
5052  0166 9f            	ld	a,x
5053  0167 a902          	adc	a,#2
5054  0169 97            	ld	x,a
5055  016a 84            	pop	a
5056  016b b7fe          	ld	_applicationMain$L-2,a
5057  016d bffd          	ld	_applicationMain$L-3,x
5060  016f a65f          	ld	a,#95
5061  0171 b704          	ld	_memcpy$L+4,a
5062  0173 ae36          	ld	x,#high(L7252)
5063  0175 bf02          	ld	_memcpy$L+2,x
5064  0177 a636          	ld	a,#low(L7252)
5065  0179 b703          	ld	_memcpy$L+3,a
5066  017b a69d          	ld	a,#_applicationMain$L-99
5067  017d 5f            	clr	x
5068  017e cd0000        	call	_memcpy
5072  0181 ae9d          	ld	x,#high(_applicationMain$L-99)
5073  0183 bf02          	ld	_writeEepromString$L+2,x
5074  0185 a69d          	ld	a,#low(_applicationMain$L-99)
5075  0187 b703          	ld	_writeEepromString$L+3,a
5076  0189 b6fe          	ld	a,_applicationMain$L-2
5077  018b befd          	ld	x,_applicationMain$L-3
5078  018d cd0000        	call	_writeEepromString
5080                     ; 74 byMsgIdx = EEPROM_MSG_IDX_POPUP_ADD_SOLVENT; PDDR =byMsgIdx; intAddress = cintInitialAddress + (byMsgIdx * EEPROM_MSG_LENGTH); memcpy(strMessage, EEPROM_MSG_POPUP_ADD_SOLVENT, EEPROM_MSG_LENGTH-1 );writeEepromString(intAddress, strMessage);
5082  0190 a607          	ld	a,#7
5083  0192 b7ff          	ld	_applicationMain$L-1,a
5086  0194 a607          	ld	a,#7
5087  0196 b709          	ld	_PDDR,a
5090  0198 b69c          	ld	a,_applicationMain$L-100
5091  019a be9b          	ld	x,_applicationMain$L-101
5092  019c aba0          	add	a,#160
5093  019e 88            	push	a
5094  019f 9f            	ld	a,x
5095  01a0 a902          	adc	a,#2
5096  01a2 97            	ld	x,a
5097  01a3 84            	pop	a
5098  01a4 b7fe          	ld	_applicationMain$L-2,a
5099  01a6 bffd          	ld	_applicationMain$L-3,x
5102  01a8 a65f          	ld	a,#95
5103  01aa b704          	ld	_memcpy$L+4,a
5104  01ac aefc          	ld	x,#high(L1352)
5105  01ae bf02          	ld	_memcpy$L+2,x
5106  01b0 a6fc          	ld	a,#low(L1352)
5107  01b2 b703          	ld	_memcpy$L+3,a
5108  01b4 a69d          	ld	a,#_applicationMain$L-99
5109  01b6 5f            	clr	x
5110  01b7 cd0000        	call	_memcpy
5114  01ba ae9d          	ld	x,#high(_applicationMain$L-99)
5115  01bc bf02          	ld	_writeEepromString$L+2,x
5116  01be a69d          	ld	a,#low(_applicationMain$L-99)
5117  01c0 b703          	ld	_writeEepromString$L+3,a
5118  01c2 b6fe          	ld	a,_applicationMain$L-2
5119  01c4 befd          	ld	x,_applicationMain$L-3
5120  01c6 cd0000        	call	_writeEepromString
5122                     ; 75 byMsgIdx = EEPROM_MSG_IDX_POPUP_CLEANING; PDDR =byMsgIdx; intAddress = cintInitialAddress + (byMsgIdx * EEPROM_MSG_LENGTH); memcpy(strMessage, EEPROM_MSG_POPUP_CLEANING, EEPROM_MSG_LENGTH-1 );writeEepromString(intAddress, strMessage);
5124  01c9 a608          	ld	a,#8
5125  01cb b7ff          	ld	_applicationMain$L-1,a
5128  01cd a608          	ld	a,#8
5129  01cf b709          	ld	_PDDR,a
5132  01d1 b69c          	ld	a,_applicationMain$L-100
5133  01d3 be9b          	ld	x,_applicationMain$L-101
5134  01d5 ab00          	add	a,#0
5135  01d7 88            	push	a
5136  01d8 9f            	ld	a,x
5137  01d9 a903          	adc	a,#3
5138  01db 97            	ld	x,a
5139  01dc 84            	pop	a
5140  01dd b7fe          	ld	_applicationMain$L-2,a
5141  01df bffd          	ld	_applicationMain$L-3,x
5144  01e1 a65f          	ld	a,#95
5145  01e3 b704          	ld	_memcpy$L+4,a
5146  01e5 aeca          	ld	x,#high(L3352)
5147  01e7 bf02          	ld	_memcpy$L+2,x
5148  01e9 a6ca          	ld	a,#low(L3352)
5149  01eb b703          	ld	_memcpy$L+3,a
5150  01ed a69d          	ld	a,#_applicationMain$L-99
5151  01ef 5f            	clr	x
5152  01f0 cd0000        	call	_memcpy
5156  01f3 ae9d          	ld	x,#high(_applicationMain$L-99)
5157  01f5 bf02          	ld	_writeEepromString$L+2,x
5158  01f7 a69d          	ld	a,#low(_applicationMain$L-99)
5159  01f9 b703          	ld	_writeEepromString$L+3,a
5160  01fb b6fe          	ld	a,_applicationMain$L-2
5161  01fd befd          	ld	x,_applicationMain$L-3
5162  01ff cd0000        	call	_writeEepromString
5164                     ; 76 byMsgIdx = EEPROM_MSG_IDX_POPUP_PARAMETER_SAVED; PDDR =byMsgIdx; intAddress = cintInitialAddress + (byMsgIdx * EEPROM_MSG_LENGTH); memcpy(strMessage, EEPROM_MSG_POPUP_PARAMETER_SAVED, EEPROM_MSG_LENGTH-1 );writeEepromString(intAddress, strMessage);
5166  0202 a609          	ld	a,#9
5167  0204 b7ff          	ld	_applicationMain$L-1,a
5170  0206 a609          	ld	a,#9
5171  0208 b709          	ld	_PDDR,a
5174  020a b69c          	ld	a,_applicationMain$L-100
5175  020c be9b          	ld	x,_applicationMain$L-101
5176  020e ab60          	add	a,#96
5177  0210 88            	push	a
5178  0211 9f            	ld	a,x
5179  0212 a903          	adc	a,#3
5180  0214 97            	ld	x,a
5181  0215 84            	pop	a
5182  0216 b7fe          	ld	_applicationMain$L-2,a
5183  0218 bffd          	ld	_applicationMain$L-3,x
5186  021a a65f          	ld	a,#95
5187  021c b704          	ld	_memcpy$L+4,a
5188  021e aeb6          	ld	x,#high(L5352)
5189  0220 bf02          	ld	_memcpy$L+2,x
5190  0222 a6b6          	ld	a,#low(L5352)
5191  0224 b703          	ld	_memcpy$L+3,a
5192  0226 a69d          	ld	a,#_applicationMain$L-99
5193  0228 5f            	clr	x
5194  0229 cd0000        	call	_memcpy
5198  022c ae9d          	ld	x,#high(_applicationMain$L-99)
5199  022e bf02          	ld	_writeEepromString$L+2,x
5200  0230 a69d          	ld	a,#low(_applicationMain$L-99)
5201  0232 b703          	ld	_writeEepromString$L+3,a
5202  0234 b6fe          	ld	a,_applicationMain$L-2
5203  0236 befd          	ld	x,_applicationMain$L-3
5204  0238 cd0000        	call	_writeEepromString
5206                     ; 78 byMsgIdx = EEPROM_MSG_IDX_ALLARM_GENERIC_ERROR; PDDR =byMsgIdx; intAddress = cintInitialAddress + (byMsgIdx * EEPROM_MSG_LENGTH); memcpy(strMessage, EEPROM_MSG_ALLARM_GENERIC_ERROR, EEPROM_MSG_LENGTH-1 );writeEepromString(intAddress, strMessage);
5208  023b a610          	ld	a,#16
5209  023d b7ff          	ld	_applicationMain$L-1,a
5212  023f a610          	ld	a,#16
5213  0241 b709          	ld	_PDDR,a
5216  0243 b69c          	ld	a,_applicationMain$L-100
5217  0245 be9b          	ld	x,_applicationMain$L-101
5218  0247 ab00          	add	a,#0
5219  0249 88            	push	a
5220  024a 9f            	ld	a,x
5221  024b a906          	adc	a,#6
5222  024d 97            	ld	x,a
5223  024e 84            	pop	a
5224  024f b7fe          	ld	_applicationMain$L-2,a
5225  0251 bffd          	ld	_applicationMain$L-3,x
5228  0253 a65f          	ld	a,#95
5229  0255 b704          	ld	_memcpy$L+4,a
5230  0257 ae82          	ld	x,#high(L7352)
5231  0259 bf02          	ld	_memcpy$L+2,x
5232  025b a682          	ld	a,#low(L7352)
5233  025d b703          	ld	_memcpy$L+3,a
5234  025f a69d          	ld	a,#_applicationMain$L-99
5235  0261 5f            	clr	x
5236  0262 cd0000        	call	_memcpy
5240  0265 ae9d          	ld	x,#high(_applicationMain$L-99)
5241  0267 bf02          	ld	_writeEepromString$L+2,x
5242  0269 a69d          	ld	a,#low(_applicationMain$L-99)
5243  026b b703          	ld	_writeEepromString$L+3,a
5244  026d b6fe          	ld	a,_applicationMain$L-2
5245  026f befd          	ld	x,_applicationMain$L-3
5246  0271 cd0000        	call	_writeEepromString
5248                     ; 79 byMsgIdx = EEPROM_MSG_IDX_ALLARM_MEASURE_VISCOSITY; PDDR =byMsgIdx; intAddress = cintInitialAddress + (byMsgIdx * EEPROM_MSG_LENGTH); memcpy(strMessage, EEPROM_MSG_ALLARM_MEASURE_VISCOSITY, EEPROM_MSG_LENGTH-1 );writeEepromString(intAddress, strMessage);
5250  0274 a611          	ld	a,#17
5251  0276 b7ff          	ld	_applicationMain$L-1,a
5254  0278 a611          	ld	a,#17
5255  027a b709          	ld	_PDDR,a
5258  027c b69c          	ld	a,_applicationMain$L-100
5259  027e be9b          	ld	x,_applicationMain$L-101
5260  0280 ab60          	add	a,#96
5261  0282 88            	push	a
5262  0283 9f            	ld	a,x
5263  0284 a906          	adc	a,#6
5264  0286 97            	ld	x,a
5265  0287 84            	pop	a
5266  0288 b7fe          	ld	_applicationMain$L-2,a
5267  028a bffd          	ld	_applicationMain$L-3,x
5270  028c a65f          	ld	a,#95
5271  028e b704          	ld	_memcpy$L+4,a
5272  0290 ae40          	ld	x,#high(L1452)
5273  0292 bf02          	ld	_memcpy$L+2,x
5274  0294 a640          	ld	a,#low(L1452)
5275  0296 b703          	ld	_memcpy$L+3,a
5276  0298 a69d          	ld	a,#_applicationMain$L-99
5277  029a 5f            	clr	x
5278  029b cd0000        	call	_memcpy
5282  029e ae9d          	ld	x,#high(_applicationMain$L-99)
5283  02a0 bf02          	ld	_writeEepromString$L+2,x
5284  02a2 a69d          	ld	a,#low(_applicationMain$L-99)
5285  02a4 b703          	ld	_writeEepromString$L+3,a
5286  02a6 b6fe          	ld	a,_applicationMain$L-2
5287  02a8 befd          	ld	x,_applicationMain$L-3
5288  02aa cd0000        	call	_writeEepromString
5290                     ; 80 byMsgIdx = EEPROM_MSG_IDX_ALLARM_MEASURE_PH; PDDR =byMsgIdx; intAddress = cintInitialAddress + (byMsgIdx * EEPROM_MSG_LENGTH); memcpy(strMessage, EEPROM_MSG_ALLARM_MEASURE_PH, EEPROM_MSG_LENGTH-1 );writeEepromString(intAddress, strMessage);
5292  02ad a612          	ld	a,#18
5293  02af b7ff          	ld	_applicationMain$L-1,a
5296  02b1 a612          	ld	a,#18
5297  02b3 b709          	ld	_PDDR,a
5300  02b5 b69c          	ld	a,_applicationMain$L-100
5301  02b7 be9b          	ld	x,_applicationMain$L-101
5302  02b9 abc0          	add	a,#192
5303  02bb 88            	push	a
5304  02bc 9f            	ld	a,x
5305  02bd a906          	adc	a,#6
5306  02bf 97            	ld	x,a
5307  02c0 84            	pop	a
5308  02c1 b7fe          	ld	_applicationMain$L-2,a
5309  02c3 bffd          	ld	_applicationMain$L-3,x
5312  02c5 a65f          	ld	a,#95
5313  02c7 b704          	ld	_memcpy$L+4,a
5314  02c9 ae06          	ld	x,#high(L3452)
5315  02cb bf02          	ld	_memcpy$L+2,x
5316  02cd a606          	ld	a,#low(L3452)
5317  02cf b703          	ld	_memcpy$L+3,a
5318  02d1 a69d          	ld	a,#_applicationMain$L-99
5319  02d3 5f            	clr	x
5320  02d4 cd0000        	call	_memcpy
5324  02d7 ae9d          	ld	x,#high(_applicationMain$L-99)
5325  02d9 bf02          	ld	_writeEepromString$L+2,x
5326  02db a69d          	ld	a,#low(_applicationMain$L-99)
5327  02dd b703          	ld	_writeEepromString$L+3,a
5328  02df b6fe          	ld	a,_applicationMain$L-2
5329  02e1 befd          	ld	x,_applicationMain$L-3
5330  02e3 cd0000        	call	_writeEepromString
5332                     ; 81 byMsgIdx = EEPROM_MSG_IDX_ALLARM_MEASURE_TEMPERATURE; PDDR =byMsgIdx; intAddress = cintInitialAddress + (byMsgIdx * EEPROM_MSG_LENGTH); memcpy(strMessage, EEPROM_MSG_ALLARM_MEASURE_TEMPERATURE, EEPROM_MSG_LENGTH-1 );writeEepromString(intAddress, strMessage);
5334  02e6 a613          	ld	a,#19
5335  02e8 b7ff          	ld	_applicationMain$L-1,a
5338  02ea a613          	ld	a,#19
5339  02ec b709          	ld	_PDDR,a
5342  02ee b69c          	ld	a,_applicationMain$L-100
5343  02f0 be9b          	ld	x,_applicationMain$L-101
5344  02f2 ab20          	add	a,#32
5345  02f4 88            	push	a
5346  02f5 9f            	ld	a,x
5347  02f6 a907          	adc	a,#7
5348  02f8 97            	ld	x,a
5349  02f9 84            	pop	a
5350  02fa b7fe          	ld	_applicationMain$L-2,a
5351  02fc bffd          	ld	_applicationMain$L-3,x
5354  02fe a65f          	ld	a,#95
5355  0300 b704          	ld	_memcpy$L+4,a
5356  0302 aec3          	ld	x,#high(L5452)
5357  0304 bf02          	ld	_memcpy$L+2,x
5358  0306 a6c3          	ld	a,#low(L5452)
5359  0308 b703          	ld	_memcpy$L+3,a
5360  030a a69d          	ld	a,#_applicationMain$L-99
5361  030c 5f            	clr	x
5362  030d cd0000        	call	_memcpy
5366  0310 ae9d          	ld	x,#high(_applicationMain$L-99)
5367  0312 bf02          	ld	_writeEepromString$L+2,x
5368  0314 a69d          	ld	a,#low(_applicationMain$L-99)
5369  0316 b703          	ld	_writeEepromString$L+3,a
5370  0318 b6fe          	ld	a,_applicationMain$L-2
5371  031a befd          	ld	x,_applicationMain$L-3
5372  031c cd0000        	call	_writeEepromString
5374                     ; 82 byMsgIdx = EEPROM_MSG_IDX_ALLARM_DELTA_VISCOSITY; PDDR =byMsgIdx; intAddress = cintInitialAddress + (byMsgIdx * EEPROM_MSG_LENGTH); memcpy(strMessage, EEPROM_MSG_ALLARM_DELTA_VISCOSITY, EEPROM_MSG_LENGTH-1 );writeEepromString(intAddress, strMessage);
5376  031f a614          	ld	a,#20
5377  0321 b7ff          	ld	_applicationMain$L-1,a
5380  0323 a614          	ld	a,#20
5381  0325 b709          	ld	_PDDR,a
5384  0327 b69c          	ld	a,_applicationMain$L-100
5385  0329 be9b          	ld	x,_applicationMain$L-101
5386  032b ab80          	add	a,#128
5387  032d 88            	push	a
5388  032e 9f            	ld	a,x
5389  032f a907          	adc	a,#7
5390  0331 97            	ld	x,a
5391  0332 84            	pop	a
5392  0333 b7fe          	ld	_applicationMain$L-2,a
5393  0335 bffd          	ld	_applicationMain$L-3,x
5396  0337 a65f          	ld	a,#95
5397  0339 b704          	ld	_memcpy$L+4,a
5398  033b ae82          	ld	x,#high(L7452)
5399  033d bf02          	ld	_memcpy$L+2,x
5400  033f a682          	ld	a,#low(L7452)
5401  0341 b703          	ld	_memcpy$L+3,a
5402  0343 a69d          	ld	a,#_applicationMain$L-99
5403  0345 5f            	clr	x
5404  0346 cd0000        	call	_memcpy
5408  0349 ae9d          	ld	x,#high(_applicationMain$L-99)
5409  034b bf02          	ld	_writeEepromString$L+2,x
5410  034d a69d          	ld	a,#low(_applicationMain$L-99)
5411  034f b703          	ld	_writeEepromString$L+3,a
5412  0351 b6fe          	ld	a,_applicationMain$L-2
5413  0353 befd          	ld	x,_applicationMain$L-3
5414  0355 cd0000        	call	_writeEepromString
5416                     ; 83 byMsgIdx = EEPROM_MSG_IDX_ALLARM_DELTA_PH; PDDR =byMsgIdx; intAddress = cintInitialAddress + (byMsgIdx * EEPROM_MSG_LENGTH); memcpy(strMessage, EEPROM_MSG_ALLARM_DELTA_PH, EEPROM_MSG_LENGTH-1 );writeEepromString(intAddress, strMessage);
5418  0358 a615          	ld	a,#21
5419  035a b7ff          	ld	_applicationMain$L-1,a
5422  035c a615          	ld	a,#21
5423  035e b709          	ld	_PDDR,a
5426  0360 b69c          	ld	a,_applicationMain$L-100
5427  0362 be9b          	ld	x,_applicationMain$L-101
5428  0364 abe0          	add	a,#224
5429  0366 88            	push	a
5430  0367 9f            	ld	a,x
5431  0368 a907          	adc	a,#7
5432  036a 97            	ld	x,a
5433  036b 84            	pop	a
5434  036c b7fe          	ld	_applicationMain$L-2,a
5435  036e bffd          	ld	_applicationMain$L-3,x
5438  0370 a65f          	ld	a,#95
5439  0372 b704          	ld	_memcpy$L+4,a
5440  0374 ae49          	ld	x,#high(L1552)
5441  0376 bf02          	ld	_memcpy$L+2,x
5442  0378 a649          	ld	a,#low(L1552)
5443  037a b703          	ld	_memcpy$L+3,a
5444  037c a69d          	ld	a,#_applicationMain$L-99
5445  037e 5f            	clr	x
5446  037f cd0000        	call	_memcpy
5450  0382 ae9d          	ld	x,#high(_applicationMain$L-99)
5451  0384 bf02          	ld	_writeEepromString$L+2,x
5452  0386 a69d          	ld	a,#low(_applicationMain$L-99)
5453  0388 b703          	ld	_writeEepromString$L+3,a
5454  038a b6fe          	ld	a,_applicationMain$L-2
5455  038c befd          	ld	x,_applicationMain$L-3
5456  038e cd0000        	call	_writeEepromString
5458                     ; 84 byMsgIdx = EEPROM_MSG_IDX_ALLARM_DELTA_TEMPERATURE; PDDR =byMsgIdx; intAddress = cintInitialAddress + (byMsgIdx * EEPROM_MSG_LENGTH); memcpy(strMessage, EEPROM_MSG_ALLARM_DELTA_TEMPERATURE, EEPROM_MSG_LENGTH-1 );writeEepromString(intAddress, strMessage);
5460  0391 a616          	ld	a,#22
5461  0393 b7ff          	ld	_applicationMain$L-1,a
5464  0395 a616          	ld	a,#22
5465  0397 b709          	ld	_PDDR,a
5468  0399 b69c          	ld	a,_applicationMain$L-100
5469  039b be9b          	ld	x,_applicationMain$L-101
5470  039d ab40          	add	a,#64
5471  039f 88            	push	a
5472  03a0 9f            	ld	a,x
5473  03a1 a908          	adc	a,#8
5474  03a3 97            	ld	x,a
5475  03a4 84            	pop	a
5476  03a5 b7fe          	ld	_applicationMain$L-2,a
5477  03a7 bffd          	ld	_applicationMain$L-3,x
5480  03a9 a65f          	ld	a,#95
5481  03ab b704          	ld	_memcpy$L+4,a
5482  03ad ae07          	ld	x,#high(L3552)
5483  03af bf02          	ld	_memcpy$L+2,x
5484  03b1 a607          	ld	a,#low(L3552)
5485  03b3 b703          	ld	_memcpy$L+3,a
5486  03b5 a69d          	ld	a,#_applicationMain$L-99
5487  03b7 5f            	clr	x
5488  03b8 cd0000        	call	_memcpy
5492  03bb ae9d          	ld	x,#high(_applicationMain$L-99)
5493  03bd bf02          	ld	_writeEepromString$L+2,x
5494  03bf a69d          	ld	a,#low(_applicationMain$L-99)
5495  03c1 b703          	ld	_writeEepromString$L+3,a
5496  03c3 b6fe          	ld	a,_applicationMain$L-2
5497  03c5 befd          	ld	x,_applicationMain$L-3
5498  03c7 cd0000        	call	_writeEepromString
5500                     ; 85 byMsgIdx = EEPROM_MSG_IDX_ALLARM_BOUNDS_VISCOSITY; PDDR =byMsgIdx; intAddress = cintInitialAddress + (byMsgIdx * EEPROM_MSG_LENGTH); memcpy(strMessage, EEPROM_MSG_ALLARM_BOUNDS_VISCOSITY, EEPROM_MSG_LENGTH-1 );writeEepromString(intAddress, strMessage);
5502  03ca a617          	ld	a,#23
5503  03cc b7ff          	ld	_applicationMain$L-1,a
5506  03ce a617          	ld	a,#23
5507  03d0 b709          	ld	_PDDR,a
5510  03d2 b69c          	ld	a,_applicationMain$L-100
5511  03d4 be9b          	ld	x,_applicationMain$L-101
5512  03d6 aba0          	add	a,#160
5513  03d8 88            	push	a
5514  03d9 9f            	ld	a,x
5515  03da a908          	adc	a,#8
5516  03dc 97            	ld	x,a
5517  03dd 84            	pop	a
5518  03de b7fe          	ld	_applicationMain$L-2,a
5519  03e0 bffd          	ld	_applicationMain$L-3,x
5522  03e2 a65f          	ld	a,#95
5523  03e4 b704          	ld	_memcpy$L+4,a
5524  03e6 aec4          	ld	x,#high(L5552)
5525  03e8 bf02          	ld	_memcpy$L+2,x
5526  03ea a6c4          	ld	a,#low(L5552)
5527  03ec b703          	ld	_memcpy$L+3,a
5528  03ee a69d          	ld	a,#_applicationMain$L-99
5529  03f0 5f            	clr	x
5530  03f1 cd0000        	call	_memcpy
5534  03f4 ae9d          	ld	x,#high(_applicationMain$L-99)
5535  03f6 bf02          	ld	_writeEepromString$L+2,x
5536  03f8 a69d          	ld	a,#low(_applicationMain$L-99)
5537  03fa b703          	ld	_writeEepromString$L+3,a
5538  03fc b6fe          	ld	a,_applicationMain$L-2
5539  03fe befd          	ld	x,_applicationMain$L-3
5540  0400 cd0000        	call	_writeEepromString
5542                     ; 86 byMsgIdx = EEPROM_MSG_IDX_ALLARM_BOUNDS_PH; PDDR =byMsgIdx; intAddress = cintInitialAddress + (byMsgIdx * EEPROM_MSG_LENGTH); memcpy(strMessage, EEPROM_MSG_ALLARM_BOUNDS_PH, EEPROM_MSG_LENGTH-1 );writeEepromString(intAddress, strMessage);
5544  0403 a618          	ld	a,#24
5545  0405 b7ff          	ld	_applicationMain$L-1,a
5548  0407 a618          	ld	a,#24
5549  0409 b709          	ld	_PDDR,a
5552  040b b69c          	ld	a,_applicationMain$L-100
5553  040d be9b          	ld	x,_applicationMain$L-101
5554  040f ab00          	add	a,#0
5555  0411 88            	push	a
5556  0412 9f            	ld	a,x
5557  0413 a909          	adc	a,#9
5558  0415 97            	ld	x,a
5559  0416 84            	pop	a
5560  0417 b7fe          	ld	_applicationMain$L-2,a
5561  0419 bffd          	ld	_applicationMain$L-3,x
5564  041b a65f          	ld	a,#95
5565  041d b704          	ld	_memcpy$L+4,a
5566  041f ae89          	ld	x,#high(L7552)
5567  0421 bf02          	ld	_memcpy$L+2,x
5568  0423 a689          	ld	a,#low(L7552)
5569  0425 b703          	ld	_memcpy$L+3,a
5570  0427 a69d          	ld	a,#_applicationMain$L-99
5571  0429 5f            	clr	x
5572  042a cd0000        	call	_memcpy
5576  042d ae9d          	ld	x,#high(_applicationMain$L-99)
5577  042f bf02          	ld	_writeEepromString$L+2,x
5578  0431 a69d          	ld	a,#low(_applicationMain$L-99)
5579  0433 b703          	ld	_writeEepromString$L+3,a
5580  0435 b6fe          	ld	a,_applicationMain$L-2
5581  0437 befd          	ld	x,_applicationMain$L-3
5582  0439 cd0000        	call	_writeEepromString
5584                     ; 87 byMsgIdx = EEPROM_MSG_IDX_ALLARM_BOUNDS_TEMPERATURE; PDDR =byMsgIdx; intAddress = cintInitialAddress + (byMsgIdx * EEPROM_MSG_LENGTH); memcpy(strMessage, EEPROM_MSG_ALLARM_BOUNDS_TEMPERATURE, EEPROM_MSG_LENGTH-1 );writeEepromString(intAddress, strMessage);
5586  043c a619          	ld	a,#25
5587  043e b7ff          	ld	_applicationMain$L-1,a
5590  0440 a619          	ld	a,#25
5591  0442 b709          	ld	_PDDR,a
5594  0444 b69c          	ld	a,_applicationMain$L-100
5595  0446 be9b          	ld	x,_applicationMain$L-101
5596  0448 ab60          	add	a,#96
5597  044a 88            	push	a
5598  044b 9f            	ld	a,x
5599  044c a909          	adc	a,#9
5600  044e 97            	ld	x,a
5601  044f 84            	pop	a
5602  0450 b7fe          	ld	_applicationMain$L-2,a
5603  0452 bffd          	ld	_applicationMain$L-3,x
5606  0454 a65f          	ld	a,#95
5607  0456 b704          	ld	_memcpy$L+4,a
5608  0458 ae45          	ld	x,#high(L1652)
5609  045a bf02          	ld	_memcpy$L+2,x
5610  045c a645          	ld	a,#low(L1652)
5611  045e b703          	ld	_memcpy$L+3,a
5612  0460 a69d          	ld	a,#_applicationMain$L-99
5613  0462 5f            	clr	x
5614  0463 cd0000        	call	_memcpy
5618  0466 ae9d          	ld	x,#high(_applicationMain$L-99)
5619  0468 bf02          	ld	_writeEepromString$L+2,x
5620  046a a69d          	ld	a,#low(_applicationMain$L-99)
5621  046c b703          	ld	_writeEepromString$L+3,a
5622  046e b6fe          	ld	a,_applicationMain$L-2
5623  0470 befd          	ld	x,_applicationMain$L-3
5624  0472 cd0000        	call	_writeEepromString
5626                     ; 88 byMsgIdx = EEPROM_MSG_IDX_ALLARM_ERROR_10; PDDR =byMsgIdx; intAddress = cintInitialAddress + (byMsgIdx * EEPROM_MSG_LENGTH); memcpy(strMessage, EEPROM_MSG_ALLARM_ERROR_10, EEPROM_MSG_LENGTH-1 );writeEepromString(intAddress, strMessage);
5628  0475 a61a          	ld	a,#26
5629  0477 b7ff          	ld	_applicationMain$L-1,a
5632  0479 a61a          	ld	a,#26
5633  047b b709          	ld	_PDDR,a
5636  047d b69c          	ld	a,_applicationMain$L-100
5637  047f be9b          	ld	x,_applicationMain$L-101
5638  0481 abc0          	add	a,#192
5639  0483 88            	push	a
5640  0484 9f            	ld	a,x
5641  0485 a909          	adc	a,#9
5642  0487 97            	ld	x,a
5643  0488 84            	pop	a
5644  0489 b7fe          	ld	_applicationMain$L-2,a
5645  048b bffd          	ld	_applicationMain$L-3,x
5648  048d a65f          	ld	a,#95
5649  048f b704          	ld	_memcpy$L+4,a
5650  0491 ae20          	ld	x,#high(L3652)
5651  0493 bf02          	ld	_memcpy$L+2,x
5652  0495 a620          	ld	a,#low(L3652)
5653  0497 b703          	ld	_memcpy$L+3,a
5654  0499 a69d          	ld	a,#_applicationMain$L-99
5655  049b 5f            	clr	x
5656  049c cd0000        	call	_memcpy
5660  049f ae9d          	ld	x,#high(_applicationMain$L-99)
5661  04a1 bf02          	ld	_writeEepromString$L+2,x
5662  04a3 a69d          	ld	a,#low(_applicationMain$L-99)
5663  04a5 b703          	ld	_writeEepromString$L+3,a
5664  04a7 b6fe          	ld	a,_applicationMain$L-2
5665  04a9 befd          	ld	x,_applicationMain$L-3
5666  04ab cd0000        	call	_writeEepromString
5668                     ; 89 byMsgIdx = EEPROM_MSG_IDX_ALLARM_ERROR_11; PDDR =byMsgIdx; intAddress = cintInitialAddress + (byMsgIdx * EEPROM_MSG_LENGTH); memcpy(strMessage, EEPROM_MSG_ALLARM_ERROR_11, EEPROM_MSG_LENGTH-1 );writeEepromString(intAddress, strMessage);
5670  04ae a61b          	ld	a,#27
5671  04b0 b7ff          	ld	_applicationMain$L-1,a
5674  04b2 a61b          	ld	a,#27
5675  04b4 b709          	ld	_PDDR,a
5678  04b6 b69c          	ld	a,_applicationMain$L-100
5679  04b8 be9b          	ld	x,_applicationMain$L-101
5680  04ba ab20          	add	a,#32
5681  04bc 88            	push	a
5682  04bd 9f            	ld	a,x
5683  04be a90a          	adc	a,#10
5684  04c0 97            	ld	x,a
5685  04c1 84            	pop	a
5686  04c2 b7fe          	ld	_applicationMain$L-2,a
5687  04c4 bffd          	ld	_applicationMain$L-3,x
5690  04c6 a65f          	ld	a,#95
5691  04c8 b704          	ld	_memcpy$L+4,a
5692  04ca aefb          	ld	x,#high(L5652)
5693  04cc bf02          	ld	_memcpy$L+2,x
5694  04ce a6fb          	ld	a,#low(L5652)
5695  04d0 b703          	ld	_memcpy$L+3,a
5696  04d2 a69d          	ld	a,#_applicationMain$L-99
5697  04d4 5f            	clr	x
5698  04d5 cd0000        	call	_memcpy
5702  04d8 ae9d          	ld	x,#high(_applicationMain$L-99)
5703  04da bf02          	ld	_writeEepromString$L+2,x
5704  04dc a69d          	ld	a,#low(_applicationMain$L-99)
5705  04de b703          	ld	_writeEepromString$L+3,a
5706  04e0 b6fe          	ld	a,_applicationMain$L-2
5707  04e2 befd          	ld	x,_applicationMain$L-3
5708  04e4 cd0000        	call	_writeEepromString
5710                     ; 90 byMsgIdx = EEPROM_MSG_IDX_ALLARM_ERROR_12; PDDR =byMsgIdx; intAddress = cintInitialAddress + (byMsgIdx * EEPROM_MSG_LENGTH); memcpy(strMessage, EEPROM_MSG_ALLARM_ERROR_12, EEPROM_MSG_LENGTH-1 );writeEepromString(intAddress, strMessage);
5712  04e7 a61c          	ld	a,#28
5713  04e9 b7ff          	ld	_applicationMain$L-1,a
5716  04eb a61c          	ld	a,#28
5717  04ed b709          	ld	_PDDR,a
5720  04ef b69c          	ld	a,_applicationMain$L-100
5721  04f1 be9b          	ld	x,_applicationMain$L-101
5722  04f3 ab80          	add	a,#128
5723  04f5 88            	push	a
5724  04f6 9f            	ld	a,x
5725  04f7 a90a          	adc	a,#10
5726  04f9 97            	ld	x,a
5727  04fa 84            	pop	a
5728  04fb b7fe          	ld	_applicationMain$L-2,a
5729  04fd bffd          	ld	_applicationMain$L-3,x
5732  04ff a65f          	ld	a,#95
5733  0501 b704          	ld	_memcpy$L+4,a
5734  0503 aed6          	ld	x,#high(L7652)
5735  0505 bf02          	ld	_memcpy$L+2,x
5736  0507 a6d6          	ld	a,#low(L7652)
5737  0509 b703          	ld	_memcpy$L+3,a
5738  050b a69d          	ld	a,#_applicationMain$L-99
5739  050d 5f            	clr	x
5740  050e cd0000        	call	_memcpy
5744  0511 ae9d          	ld	x,#high(_applicationMain$L-99)
5745  0513 bf02          	ld	_writeEepromString$L+2,x
5746  0515 a69d          	ld	a,#low(_applicationMain$L-99)
5747  0517 b703          	ld	_writeEepromString$L+3,a
5748  0519 b6fe          	ld	a,_applicationMain$L-2
5749  051b befd          	ld	x,_applicationMain$L-3
5750  051d cd0000        	call	_writeEepromString
5752                     ; 91 byMsgIdx = EEPROM_MSG_IDX_ALLARM_ERROR_13; PDDR =byMsgIdx; intAddress = cintInitialAddress + (byMsgIdx * EEPROM_MSG_LENGTH); memcpy(strMessage, EEPROM_MSG_ALLARM_ERROR_13, EEPROM_MSG_LENGTH-1 );writeEepromString(intAddress, strMessage);
5754  0520 a61d          	ld	a,#29
5755  0522 b7ff          	ld	_applicationMain$L-1,a
5758  0524 a61d          	ld	a,#29
5759  0526 b709          	ld	_PDDR,a
5762  0528 b69c          	ld	a,_applicationMain$L-100
5763  052a be9b          	ld	x,_applicationMain$L-101
5764  052c abe0          	add	a,#224
5765  052e 88            	push	a
5766  052f 9f            	ld	a,x
5767  0530 a90a          	adc	a,#10
5768  0532 97            	ld	x,a
5769  0533 84            	pop	a
5770  0534 b7fe          	ld	_applicationMain$L-2,a
5771  0536 bffd          	ld	_applicationMain$L-3,x
5774  0538 a65f          	ld	a,#95
5775  053a b704          	ld	_memcpy$L+4,a
5776  053c aeb1          	ld	x,#high(L1752)
5777  053e bf02          	ld	_memcpy$L+2,x
5778  0540 a6b1          	ld	a,#low(L1752)
5779  0542 b703          	ld	_memcpy$L+3,a
5780  0544 a69d          	ld	a,#_applicationMain$L-99
5781  0546 5f            	clr	x
5782  0547 cd0000        	call	_memcpy
5786  054a ae9d          	ld	x,#high(_applicationMain$L-99)
5787  054c bf02          	ld	_writeEepromString$L+2,x
5788  054e a69d          	ld	a,#low(_applicationMain$L-99)
5789  0550 b703          	ld	_writeEepromString$L+3,a
5790  0552 b6fe          	ld	a,_applicationMain$L-2
5791  0554 befd          	ld	x,_applicationMain$L-3
5792  0556 cd0000        	call	_writeEepromString
5794                     ; 92 byMsgIdx = EEPROM_MSG_IDX_ALLARM_ERROR_14; PDDR =byMsgIdx; intAddress = cintInitialAddress + (byMsgIdx * EEPROM_MSG_LENGTH); memcpy(strMessage, EEPROM_MSG_ALLARM_ERROR_14, EEPROM_MSG_LENGTH-1 );writeEepromString(intAddress, strMessage);
5796  0559 a61e          	ld	a,#30
5797  055b b7ff          	ld	_applicationMain$L-1,a
5800  055d a61e          	ld	a,#30
5801  055f b709          	ld	_PDDR,a
5804  0561 b69c          	ld	a,_applicationMain$L-100
5805  0563 be9b          	ld	x,_applicationMain$L-101
5806  0565 ab40          	add	a,#64
5807  0567 88            	push	a
5808  0568 9f            	ld	a,x
5809  0569 a90b          	adc	a,#11
5810  056b 97            	ld	x,a
5811  056c 84            	pop	a
5812  056d b7fe          	ld	_applicationMain$L-2,a
5813  056f bffd          	ld	_applicationMain$L-3,x
5816  0571 a65f          	ld	a,#95
5817  0573 b704          	ld	_memcpy$L+4,a
5818  0575 ae8c          	ld	x,#high(L3752)
5819  0577 bf02          	ld	_memcpy$L+2,x
5820  0579 a68c          	ld	a,#low(L3752)
5821  057b b703          	ld	_memcpy$L+3,a
5822  057d a69d          	ld	a,#_applicationMain$L-99
5823  057f 5f            	clr	x
5824  0580 cd0000        	call	_memcpy
5828  0583 ae9d          	ld	x,#high(_applicationMain$L-99)
5829  0585 bf02          	ld	_writeEepromString$L+2,x
5830  0587 a69d          	ld	a,#low(_applicationMain$L-99)
5831  0589 b703          	ld	_writeEepromString$L+3,a
5832  058b b6fe          	ld	a,_applicationMain$L-2
5833  058d befd          	ld	x,_applicationMain$L-3
5834  058f cd0000        	call	_writeEepromString
5836                     ; 93 byMsgIdx = EEPROM_MSG_IDX_ALLARM_ERROR_15; PDDR =byMsgIdx; intAddress = cintInitialAddress + (byMsgIdx * EEPROM_MSG_LENGTH); memcpy(strMessage, EEPROM_MSG_ALLARM_ERROR_15, EEPROM_MSG_LENGTH-1 );writeEepromString(intAddress, strMessage);
5838  0592 a61f          	ld	a,#31
5839  0594 b7ff          	ld	_applicationMain$L-1,a
5842  0596 a61f          	ld	a,#31
5843  0598 b709          	ld	_PDDR,a
5846  059a b69c          	ld	a,_applicationMain$L-100
5847  059c be9b          	ld	x,_applicationMain$L-101
5848  059e aba0          	add	a,#160
5849  05a0 88            	push	a
5850  05a1 9f            	ld	a,x
5851  05a2 a90b          	adc	a,#11
5852  05a4 97            	ld	x,a
5853  05a5 84            	pop	a
5854  05a6 b7fe          	ld	_applicationMain$L-2,a
5855  05a8 bffd          	ld	_applicationMain$L-3,x
5858  05aa a65f          	ld	a,#95
5859  05ac b704          	ld	_memcpy$L+4,a
5860  05ae ae67          	ld	x,#high(L5752)
5861  05b0 bf02          	ld	_memcpy$L+2,x
5862  05b2 a667          	ld	a,#low(L5752)
5863  05b4 b703          	ld	_memcpy$L+3,a
5864  05b6 a69d          	ld	a,#_applicationMain$L-99
5865  05b8 5f            	clr	x
5866  05b9 cd0000        	call	_memcpy
5870  05bc ae9d          	ld	x,#high(_applicationMain$L-99)
5871  05be bf02          	ld	_writeEepromString$L+2,x
5872  05c0 a69d          	ld	a,#low(_applicationMain$L-99)
5873  05c2 b703          	ld	_writeEepromString$L+3,a
5874  05c4 b6fe          	ld	a,_applicationMain$L-2
5875  05c6 befd          	ld	x,_applicationMain$L-3
5876  05c8 cd0000        	call	_writeEepromString
5878                     ; 95 byMsgIdx = EEPROM_MSG_IDX_MENU_ADD_PH; PDDR =byMsgIdx; intAddress = cintInitialAddress + (byMsgIdx * EEPROM_MSG_LENGTH); memcpy(strMessage, EEPROM_MSG_MENU_ADD_PH, EEPROM_MSG_LENGTH-1 );writeEepromString(intAddress, strMessage);
5880  05cb a620          	ld	a,#32
5881  05cd b7ff          	ld	_applicationMain$L-1,a
5884  05cf a620          	ld	a,#32
5885  05d1 b709          	ld	_PDDR,a
5888  05d3 b69c          	ld	a,_applicationMain$L-100
5889  05d5 be9b          	ld	x,_applicationMain$L-101
5890  05d7 ab00          	add	a,#0
5891  05d9 88            	push	a
5892  05da 9f            	ld	a,x
5893  05db a90c          	adc	a,#12
5894  05dd 97            	ld	x,a
5895  05de 84            	pop	a
5896  05df b7fe          	ld	_applicationMain$L-2,a
5897  05e1 bffd          	ld	_applicationMain$L-3,x
5900  05e3 a65f          	ld	a,#95
5901  05e5 b704          	ld	_memcpy$L+4,a
5902  05e7 ae4a          	ld	x,#high(L7752)
5903  05e9 bf02          	ld	_memcpy$L+2,x
5904  05eb a64a          	ld	a,#low(L7752)
5905  05ed b703          	ld	_memcpy$L+3,a
5906  05ef a69d          	ld	a,#_applicationMain$L-99
5907  05f1 5f            	clr	x
5908  05f2 cd0000        	call	_memcpy
5912  05f5 ae9d          	ld	x,#high(_applicationMain$L-99)
5913  05f7 bf02          	ld	_writeEepromString$L+2,x
5914  05f9 a69d          	ld	a,#low(_applicationMain$L-99)
5915  05fb b703          	ld	_writeEepromString$L+3,a
5916  05fd b6fe          	ld	a,_applicationMain$L-2
5917  05ff befd          	ld	x,_applicationMain$L-3
5918  0601 cd0000        	call	_writeEepromString
5920                     ; 96 byMsgIdx = EEPROM_MSG_IDX_MENU_ADD_SOLVENT; PDDR =byMsgIdx; intAddress = cintInitialAddress + (byMsgIdx * EEPROM_MSG_LENGTH); memcpy(strMessage, EEPROM_MSG_MENU_ADD_SOLVENT, EEPROM_MSG_LENGTH-1 );writeEepromString(intAddress, strMessage);
5922  0604 a621          	ld	a,#33
5923  0606 b7ff          	ld	_applicationMain$L-1,a
5926  0608 a621          	ld	a,#33
5927  060a b709          	ld	_PDDR,a
5930  060c b69c          	ld	a,_applicationMain$L-100
5931  060e be9b          	ld	x,_applicationMain$L-101
5932  0610 ab60          	add	a,#96
5933  0612 88            	push	a
5934  0613 9f            	ld	a,x
5935  0614 a90c          	adc	a,#12
5936  0616 97            	ld	x,a
5937  0617 84            	pop	a
5938  0618 b7fe          	ld	_applicationMain$L-2,a
5939  061a bffd          	ld	_applicationMain$L-3,x
5942  061c a65f          	ld	a,#95
5943  061e b704          	ld	_memcpy$L+4,a
5944  0620 ae2f          	ld	x,#high(L1062)
5945  0622 bf02          	ld	_memcpy$L+2,x
5946  0624 a62f          	ld	a,#low(L1062)
5947  0626 b703          	ld	_memcpy$L+3,a
5948  0628 a69d          	ld	a,#_applicationMain$L-99
5949  062a 5f            	clr	x
5950  062b cd0000        	call	_memcpy
5954  062e ae9d          	ld	x,#high(_applicationMain$L-99)
5955  0630 bf02          	ld	_writeEepromString$L+2,x
5956  0632 a69d          	ld	a,#low(_applicationMain$L-99)
5957  0634 b703          	ld	_writeEepromString$L+3,a
5958  0636 b6fe          	ld	a,_applicationMain$L-2
5959  0638 befd          	ld	x,_applicationMain$L-3
5960  063a cd0000        	call	_writeEepromString
5962                     ; 97 byMsgIdx = EEPROM_MSG_IDX_MENU_CLEANING; PDDR =byMsgIdx; intAddress = cintInitialAddress + (byMsgIdx * EEPROM_MSG_LENGTH); memcpy(strMessage, EEPROM_MSG_MENU_CLEANING, EEPROM_MSG_LENGTH-1 );writeEepromString(intAddress, strMessage);
5964  063d a622          	ld	a,#34
5965  063f b7ff          	ld	_applicationMain$L-1,a
5968  0641 a622          	ld	a,#34
5969  0643 b709          	ld	_PDDR,a
5972  0645 b69c          	ld	a,_applicationMain$L-100
5973  0647 be9b          	ld	x,_applicationMain$L-101
5974  0649 abc0          	add	a,#192
5975  064b 88            	push	a
5976  064c 9f            	ld	a,x
5977  064d a90c          	adc	a,#12
5978  064f 97            	ld	x,a
5979  0650 84            	pop	a
5980  0651 b7fe          	ld	_applicationMain$L-2,a
5981  0653 bffd          	ld	_applicationMain$L-3,x
5984  0655 a65f          	ld	a,#95
5985  0657 b704          	ld	_memcpy$L+4,a
5986  0659 ae12          	ld	x,#high(L3062)
5987  065b bf02          	ld	_memcpy$L+2,x
5988  065d a612          	ld	a,#low(L3062)
5989  065f b703          	ld	_memcpy$L+3,a
5990  0661 a69d          	ld	a,#_applicationMain$L-99
5991  0663 5f            	clr	x
5992  0664 cd0000        	call	_memcpy
5996  0667 ae9d          	ld	x,#high(_applicationMain$L-99)
5997  0669 bf02          	ld	_writeEepromString$L+2,x
5998  066b a69d          	ld	a,#low(_applicationMain$L-99)
5999  066d b703          	ld	_writeEepromString$L+3,a
6000  066f b6fe          	ld	a,_applicationMain$L-2
6001  0671 befd          	ld	x,_applicationMain$L-3
6002  0673 cd0000        	call	_writeEepromString
6004                     ; 98 byMsgIdx = EEPROM_MSG_IDX_MENU_JOBS; PDDR =byMsgIdx; intAddress = cintInitialAddress + (byMsgIdx * EEPROM_MSG_LENGTH); memcpy(strMessage, EEPROM_MSG_MENU_JOBS, EEPROM_MSG_LENGTH-1 );writeEepromString(intAddress, strMessage);
6006  0676 a623          	ld	a,#35
6007  0678 b7ff          	ld	_applicationMain$L-1,a
6010  067a a623          	ld	a,#35
6011  067c b709          	ld	_PDDR,a
6014  067e b69c          	ld	a,_applicationMain$L-100
6015  0680 be9b          	ld	x,_applicationMain$L-101
6016  0682 ab20          	add	a,#32
6017  0684 88            	push	a
6018  0685 9f            	ld	a,x
6019  0686 a90d          	adc	a,#13
6020  0688 97            	ld	x,a
6021  0689 84            	pop	a
6022  068a b7fe          	ld	_applicationMain$L-2,a
6023  068c bffd          	ld	_applicationMain$L-3,x
6026  068e a65f          	ld	a,#95
6027  0690 b704          	ld	_memcpy$L+4,a
6028  0692 aef5          	ld	x,#high(L5062)
6029  0694 bf02          	ld	_memcpy$L+2,x
6030  0696 a6f5          	ld	a,#low(L5062)
6031  0698 b703          	ld	_memcpy$L+3,a
6032  069a a69d          	ld	a,#_applicationMain$L-99
6033  069c 5f            	clr	x
6034  069d cd0000        	call	_memcpy
6038  06a0 ae9d          	ld	x,#high(_applicationMain$L-99)
6039  06a2 bf02          	ld	_writeEepromString$L+2,x
6040  06a4 a69d          	ld	a,#low(_applicationMain$L-99)
6041  06a6 b703          	ld	_writeEepromString$L+3,a
6042  06a8 b6fe          	ld	a,_applicationMain$L-2
6043  06aa befd          	ld	x,_applicationMain$L-3
6044  06ac cd0000        	call	_writeEepromString
6046                     ; 99 byMsgIdx = EEPROM_MSG_IDX_MENU_MAIN; PDDR =byMsgIdx; intAddress = cintInitialAddress + (byMsgIdx * EEPROM_MSG_LENGTH); memcpy(strMessage, EEPROM_MSG_MENU_MAIN, EEPROM_MSG_LENGTH-1 );writeEepromString(intAddress, strMessage);
6048  06af a624          	ld	a,#36
6049  06b1 b7ff          	ld	_applicationMain$L-1,a
6052  06b3 a624          	ld	a,#36
6053  06b5 b709          	ld	_PDDR,a
6056  06b7 b69c          	ld	a,_applicationMain$L-100
6057  06b9 be9b          	ld	x,_applicationMain$L-101
6058  06bb ab80          	add	a,#128
6059  06bd 88            	push	a
6060  06be 9f            	ld	a,x
6061  06bf a90d          	adc	a,#13
6062  06c1 97            	ld	x,a
6063  06c2 84            	pop	a
6064  06c3 b7fe          	ld	_applicationMain$L-2,a
6065  06c5 bffd          	ld	_applicationMain$L-3,x
6068  06c7 a65f          	ld	a,#95
6069  06c9 b704          	ld	_memcpy$L+4,a
6070  06cb aeda          	ld	x,#high(L7062)
6071  06cd bf02          	ld	_memcpy$L+2,x
6072  06cf a6da          	ld	a,#low(L7062)
6073  06d1 b703          	ld	_memcpy$L+3,a
6074  06d3 a69d          	ld	a,#_applicationMain$L-99
6075  06d5 5f            	clr	x
6076  06d6 cd0000        	call	_memcpy
6080  06d9 ae9d          	ld	x,#high(_applicationMain$L-99)
6081  06db bf02          	ld	_writeEepromString$L+2,x
6082  06dd a69d          	ld	a,#low(_applicationMain$L-99)
6083  06df b703          	ld	_writeEepromString$L+3,a
6084  06e1 b6fe          	ld	a,_applicationMain$L-2
6085  06e3 befd          	ld	x,_applicationMain$L-3
6086  06e5 cd0000        	call	_writeEepromString
6088                     ; 100 byMsgIdx = EEPROM_MSG_IDX_MENU_CALIBRATION_FULL; PDDR =byMsgIdx; intAddress = cintInitialAddress + (byMsgIdx * EEPROM_MSG_LENGTH); memcpy(strMessage, EEPROM_MSG_MENU_CALIBRATION_FULL, EEPROM_MSG_LENGTH-1 );writeEepromString(intAddress, strMessage);
6090  06e8 a625          	ld	a,#37
6091  06ea b7ff          	ld	_applicationMain$L-1,a
6094  06ec a625          	ld	a,#37
6095  06ee b709          	ld	_PDDR,a
6098  06f0 b69c          	ld	a,_applicationMain$L-100
6099  06f2 be9b          	ld	x,_applicationMain$L-101
6100  06f4 abe0          	add	a,#224
6101  06f6 88            	push	a
6102  06f7 9f            	ld	a,x
6103  06f8 a90d          	adc	a,#13
6104  06fa 97            	ld	x,a
6105  06fb 84            	pop	a
6106  06fc b7fe          	ld	_applicationMain$L-2,a
6107  06fe bffd          	ld	_applicationMain$L-3,x
6110  0700 a65f          	ld	a,#95
6111  0702 b704          	ld	_memcpy$L+4,a
6112  0704 aebf          	ld	x,#high(L1162)
6113  0706 bf02          	ld	_memcpy$L+2,x
6114  0708 a6bf          	ld	a,#low(L1162)
6115  070a b703          	ld	_memcpy$L+3,a
6116  070c a69d          	ld	a,#_applicationMain$L-99
6117  070e 5f            	clr	x
6118  070f cd0000        	call	_memcpy
6122  0712 ae9d          	ld	x,#high(_applicationMain$L-99)
6123  0714 bf02          	ld	_writeEepromString$L+2,x
6124  0716 a69d          	ld	a,#low(_applicationMain$L-99)
6125  0718 b703          	ld	_writeEepromString$L+3,a
6126  071a b6fe          	ld	a,_applicationMain$L-2
6127  071c befd          	ld	x,_applicationMain$L-3
6128  071e cd0000        	call	_writeEepromString
6130                     ; 101 byMsgIdx = EEPROM_MSG_IDX_MENU_CALIBRATION_NOPH; PDDR =byMsgIdx; intAddress = cintInitialAddress + (byMsgIdx * EEPROM_MSG_LENGTH); memcpy(strMessage, EEPROM_MSG_MENU_CALIBRATION_NOPH, EEPROM_MSG_LENGTH-1 );writeEepromString(intAddress, strMessage);
6132  0721 a626          	ld	a,#38
6133  0723 b7ff          	ld	_applicationMain$L-1,a
6136  0725 a626          	ld	a,#38
6137  0727 b709          	ld	_PDDR,a
6140  0729 b69c          	ld	a,_applicationMain$L-100
6141  072b be9b          	ld	x,_applicationMain$L-101
6142  072d ab40          	add	a,#64
6143  072f 88            	push	a
6144  0730 9f            	ld	a,x
6145  0731 a90e          	adc	a,#14
6146  0733 97            	ld	x,a
6147  0734 84            	pop	a
6148  0735 b7fe          	ld	_applicationMain$L-2,a
6149  0737 bffd          	ld	_applicationMain$L-3,x
6152  0739 a65f          	ld	a,#95
6153  073b b704          	ld	_memcpy$L+4,a
6154  073d aea6          	ld	x,#high(L3162)
6155  073f bf02          	ld	_memcpy$L+2,x
6156  0741 a6a6          	ld	a,#low(L3162)
6157  0743 b703          	ld	_memcpy$L+3,a
6158  0745 a69d          	ld	a,#_applicationMain$L-99
6159  0747 5f            	clr	x
6160  0748 cd0000        	call	_memcpy
6164  074b ae9d          	ld	x,#high(_applicationMain$L-99)
6165  074d bf02          	ld	_writeEepromString$L+2,x
6166  074f a69d          	ld	a,#low(_applicationMain$L-99)
6167  0751 b703          	ld	_writeEepromString$L+3,a
6168  0753 b6fe          	ld	a,_applicationMain$L-2
6169  0755 befd          	ld	x,_applicationMain$L-3
6170  0757 cd0000        	call	_writeEepromString
6172                     ; 102 byMsgIdx = EEPROM_MSG_IDX_MENU_SETTINGS; PDDR =byMsgIdx; intAddress = cintInitialAddress + (byMsgIdx * EEPROM_MSG_LENGTH); memcpy(strMessage, EEPROM_MSG_MENU_SETTINGS, EEPROM_MSG_LENGTH-1 );writeEepromString(intAddress, strMessage);
6174  075a a627          	ld	a,#39
6175  075c b7ff          	ld	_applicationMain$L-1,a
6178  075e a627          	ld	a,#39
6179  0760 b709          	ld	_PDDR,a
6182  0762 b69c          	ld	a,_applicationMain$L-100
6183  0764 be9b          	ld	x,_applicationMain$L-101
6184  0766 aba0          	add	a,#160
6185  0768 88            	push	a
6186  0769 9f            	ld	a,x
6187  076a a90e          	adc	a,#14
6188  076c 97            	ld	x,a
6189  076d 84            	pop	a
6190  076e b7fe          	ld	_applicationMain$L-2,a
6191  0770 bffd          	ld	_applicationMain$L-3,x
6194  0772 a65f          	ld	a,#95
6195  0774 b704          	ld	_memcpy$L+4,a
6196  0776 ae79          	ld	x,#high(L5162)
6197  0778 bf02          	ld	_memcpy$L+2,x
6198  077a a679          	ld	a,#low(L5162)
6199  077c b703          	ld	_memcpy$L+3,a
6200  077e a69d          	ld	a,#_applicationMain$L-99
6201  0780 5f            	clr	x
6202  0781 cd0000        	call	_memcpy
6206  0784 ae9d          	ld	x,#high(_applicationMain$L-99)
6207  0786 bf02          	ld	_writeEepromString$L+2,x
6208  0788 a69d          	ld	a,#low(_applicationMain$L-99)
6209  078a b703          	ld	_writeEepromString$L+3,a
6210  078c b6fe          	ld	a,_applicationMain$L-2
6211  078e befd          	ld	x,_applicationMain$L-3
6212  0790 cd0000        	call	_writeEepromString
6214                     ; 103 byMsgIdx = EEPROM_MSG_IDX_MENU_GAIN_FULL; PDDR =byMsgIdx; intAddress = cintInitialAddress + (byMsgIdx * EEPROM_MSG_LENGTH); memcpy(strMessage, EEPROM_MSG_MENU_GAIN_FULL, EEPROM_MSG_LENGTH-1 );writeEepromString(intAddress, strMessage);
6216  0793 a628          	ld	a,#40
6217  0795 b7ff          	ld	_applicationMain$L-1,a
6220  0797 a628          	ld	a,#40
6221  0799 b709          	ld	_PDDR,a
6224  079b b69c          	ld	a,_applicationMain$L-100
6225  079d be9b          	ld	x,_applicationMain$L-101
6226  079f ab00          	add	a,#0
6227  07a1 88            	push	a
6228  07a2 9f            	ld	a,x
6229  07a3 a90f          	adc	a,#15
6230  07a5 97            	ld	x,a
6231  07a6 84            	pop	a
6232  07a7 b7fe          	ld	_applicationMain$L-2,a
6233  07a9 bffd          	ld	_applicationMain$L-3,x
6236  07ab a65f          	ld	a,#95
6237  07ad b704          	ld	_memcpy$L+4,a
6238  07af ae65          	ld	x,#high(L7162)
6239  07b1 bf02          	ld	_memcpy$L+2,x
6240  07b3 a665          	ld	a,#low(L7162)
6241  07b5 b703          	ld	_memcpy$L+3,a
6242  07b7 a69d          	ld	a,#_applicationMain$L-99
6243  07b9 5f            	clr	x
6244  07ba cd0000        	call	_memcpy
6248  07bd ae9d          	ld	x,#high(_applicationMain$L-99)
6249  07bf bf02          	ld	_writeEepromString$L+2,x
6250  07c1 a69d          	ld	a,#low(_applicationMain$L-99)
6251  07c3 b703          	ld	_writeEepromString$L+3,a
6252  07c5 b6fe          	ld	a,_applicationMain$L-2
6253  07c7 befd          	ld	x,_applicationMain$L-3
6254  07c9 cd0000        	call	_writeEepromString
6256                     ; 104 byMsgIdx = EEPROM_MSG_IDX_MENU_GAIN_NOPH; PDDR =byMsgIdx; intAddress = cintInitialAddress + (byMsgIdx * EEPROM_MSG_LENGTH); memcpy(strMessage, EEPROM_MSG_MENU_GAIN_NOPH, EEPROM_MSG_LENGTH-1 );writeEepromString(intAddress, strMessage);
6258  07cc a629          	ld	a,#41
6259  07ce b7ff          	ld	_applicationMain$L-1,a
6262  07d0 a629          	ld	a,#41
6263  07d2 b709          	ld	_PDDR,a
6266  07d4 b69c          	ld	a,_applicationMain$L-100
6267  07d6 be9b          	ld	x,_applicationMain$L-101
6268  07d8 ab60          	add	a,#96
6269  07da 88            	push	a
6270  07db 9f            	ld	a,x
6271  07dc a90f          	adc	a,#15
6272  07de 97            	ld	x,a
6273  07df 84            	pop	a
6274  07e0 b7fe          	ld	_applicationMain$L-2,a
6275  07e2 bffd          	ld	_applicationMain$L-3,x
6278  07e4 a65f          	ld	a,#95
6279  07e6 b704          	ld	_memcpy$L+4,a
6280  07e8 ae00          	ld	x,#high(L1262)
6281  07ea bf02          	ld	_memcpy$L+2,x
6282  07ec a600          	ld	a,#low(L1262)
6283  07ee b703          	ld	_memcpy$L+3,a
6284  07f0 a69d          	ld	a,#_applicationMain$L-99
6285  07f2 5f            	clr	x
6286  07f3 cd0000        	call	_memcpy
6290  07f6 ae9d          	ld	x,#high(_applicationMain$L-99)
6291  07f8 bf02          	ld	_writeEepromString$L+2,x
6292  07fa a69d          	ld	a,#low(_applicationMain$L-99)
6293  07fc b703          	ld	_writeEepromString$L+3,a
6294  07fe b6fe          	ld	a,_applicationMain$L-2
6295  0800 befd          	ld	x,_applicationMain$L-3
6296  0802 cd0000        	call	_writeEepromString
6298                     ; 105 byMsgIdx = EEPROM_MSG_IDX_MENU_BOUNDS_FULL; PDDR =byMsgIdx; intAddress = cintInitialAddress + (byMsgIdx * EEPROM_MSG_LENGTH); memcpy(strMessage, EEPROM_MSG_MENU_BOUNDS_FULL, EEPROM_MSG_LENGTH-1 );writeEepromString(intAddress, strMessage);
6300  0805 a62a          	ld	a,#42
6301  0807 b7ff          	ld	_applicationMain$L-1,a
6304  0809 a62a          	ld	a,#42
6305  080b b709          	ld	_PDDR,a
6308  080d b69c          	ld	a,_applicationMain$L-100
6309  080f be9b          	ld	x,_applicationMain$L-101
6310  0811 abc0          	add	a,#192
6311  0813 88            	push	a
6312  0814 9f            	ld	a,x
6313  0815 a90f          	adc	a,#15
6314  0817 97            	ld	x,a
6315  0818 84            	pop	a
6316  0819 b7fe          	ld	_applicationMain$L-2,a
6317  081b bffd          	ld	_applicationMain$L-3,x
6320  081d a65f          	ld	a,#95
6321  081f b704          	ld	_memcpy$L+4,a
6322  0821 ae27          	ld	x,#high(L3262)
6323  0823 bf02          	ld	_memcpy$L+2,x
6324  0825 a627          	ld	a,#low(L3262)
6325  0827 b703          	ld	_memcpy$L+3,a
6326  0829 a69d          	ld	a,#_applicationMain$L-99
6327  082b 5f            	clr	x
6328  082c cd0000        	call	_memcpy
6332  082f ae9d          	ld	x,#high(_applicationMain$L-99)
6333  0831 bf02          	ld	_writeEepromString$L+2,x
6334  0833 a69d          	ld	a,#low(_applicationMain$L-99)
6335  0835 b703          	ld	_writeEepromString$L+3,a
6336  0837 b6fe          	ld	a,_applicationMain$L-2
6337  0839 befd          	ld	x,_applicationMain$L-3
6338  083b cd0000        	call	_writeEepromString
6340                     ; 106 byMsgIdx = EEPROM_MSG_IDX_MENU_BOUNDS_PH; PDDR =byMsgIdx; intAddress = cintInitialAddress + (byMsgIdx * EEPROM_MSG_LENGTH); memcpy(strMessage, EEPROM_MSG_MENU_BOUNDS_PH, EEPROM_MSG_LENGTH-1 );writeEepromString(intAddress, strMessage);
6342  083e a62b          	ld	a,#43
6343  0840 b7ff          	ld	_applicationMain$L-1,a
6346  0842 a62b          	ld	a,#43
6347  0844 b709          	ld	_PDDR,a
6350  0846 b69c          	ld	a,_applicationMain$L-100
6351  0848 be9b          	ld	x,_applicationMain$L-101
6352  084a ab20          	add	a,#32
6353  084c 88            	push	a
6354  084d 9f            	ld	a,x
6355  084e a910          	adc	a,#16
6356  0850 97            	ld	x,a
6357  0851 84            	pop	a
6358  0852 b7fe          	ld	_applicationMain$L-2,a
6359  0854 bffd          	ld	_applicationMain$L-3,x
6362  0856 a65f          	ld	a,#95
6363  0858 b704          	ld	_memcpy$L+4,a
6364  085a ae17          	ld	x,#high(L5262)
6365  085c bf02          	ld	_memcpy$L+2,x
6366  085e a617          	ld	a,#low(L5262)
6367  0860 b703          	ld	_memcpy$L+3,a
6368  0862 a69d          	ld	a,#_applicationMain$L-99
6369  0864 5f            	clr	x
6370  0865 cd0000        	call	_memcpy
6374  0868 ae9d          	ld	x,#high(_applicationMain$L-99)
6375  086a bf02          	ld	_writeEepromString$L+2,x
6376  086c a69d          	ld	a,#low(_applicationMain$L-99)
6377  086e b703          	ld	_writeEepromString$L+3,a
6378  0870 b6fe          	ld	a,_applicationMain$L-2
6379  0872 befd          	ld	x,_applicationMain$L-3
6380  0874 cd0000        	call	_writeEepromString
6382                     ; 107 byMsgIdx = EEPROM_MSG_IDX_MENU_LANGUAGES_L1; PDDR =byMsgIdx; intAddress = cintInitialAddress + (byMsgIdx * EEPROM_MSG_LENGTH); memcpy(strMessage, EEPROM_MSG_MENU_LANGUAGES_L1, EEPROM_MSG_LENGTH-1 );writeEepromString(intAddress, strMessage);
6384  0877 a62c          	ld	a,#44
6385  0879 b7ff          	ld	_applicationMain$L-1,a
6388  087b a62c          	ld	a,#44
6389  087d b709          	ld	_PDDR,a
6392  087f b69c          	ld	a,_applicationMain$L-100
6393  0881 be9b          	ld	x,_applicationMain$L-101
6394  0883 ab80          	add	a,#128
6395  0885 88            	push	a
6396  0886 9f            	ld	a,x
6397  0887 a910          	adc	a,#16
6398  0889 97            	ld	x,a
6399  088a 84            	pop	a
6400  088b b7fe          	ld	_applicationMain$L-2,a
6401  088d bffd          	ld	_applicationMain$L-3,x
6404  088f a65f          	ld	a,#95
6405  0891 b704          	ld	_memcpy$L+4,a
6406  0893 aef5          	ld	x,#high(L7262)
6407  0895 bf02          	ld	_memcpy$L+2,x
6408  0897 a6f5          	ld	a,#low(L7262)
6409  0899 b703          	ld	_memcpy$L+3,a
6410  089b a69d          	ld	a,#_applicationMain$L-99
6411  089d 5f            	clr	x
6412  089e cd0000        	call	_memcpy
6416  08a1 ae9d          	ld	x,#high(_applicationMain$L-99)
6417  08a3 bf02          	ld	_writeEepromString$L+2,x
6418  08a5 a69d          	ld	a,#low(_applicationMain$L-99)
6419  08a7 b703          	ld	_writeEepromString$L+3,a
6420  08a9 b6fe          	ld	a,_applicationMain$L-2
6421  08ab befd          	ld	x,_applicationMain$L-3
6422  08ad cd0000        	call	_writeEepromString
6424                     ; 108 byMsgIdx = EEPROM_MSG_IDX_MENU_LANGUAGES_L2; PDDR =byMsgIdx; intAddress = cintInitialAddress + (byMsgIdx * EEPROM_MSG_LENGTH); memcpy(strMessage, EEPROM_MSG_MENU_LANGUAGES_L2, EEPROM_MSG_LENGTH-1 );writeEepromString(intAddress, strMessage);
6426  08b0 a62d          	ld	a,#45
6427  08b2 b7ff          	ld	_applicationMain$L-1,a
6430  08b4 a62d          	ld	a,#45
6431  08b6 b709          	ld	_PDDR,a
6434  08b8 b69c          	ld	a,_applicationMain$L-100
6435  08ba be9b          	ld	x,_applicationMain$L-101
6436  08bc abe0          	add	a,#224
6437  08be 88            	push	a
6438  08bf 9f            	ld	a,x
6439  08c0 a910          	adc	a,#16
6440  08c2 97            	ld	x,a
6441  08c3 84            	pop	a
6442  08c4 b7fe          	ld	_applicationMain$L-2,a
6443  08c6 bffd          	ld	_applicationMain$L-3,x
6446  08c8 a65f          	ld	a,#95
6447  08ca b704          	ld	_memcpy$L+4,a
6448  08cc aed1          	ld	x,#high(L1362)
6449  08ce bf02          	ld	_memcpy$L+2,x
6450  08d0 a6d1          	ld	a,#low(L1362)
6451  08d2 b703          	ld	_memcpy$L+3,a
6452  08d4 a69d          	ld	a,#_applicationMain$L-99
6453  08d6 5f            	clr	x
6454  08d7 cd0000        	call	_memcpy
6458  08da ae9d          	ld	x,#high(_applicationMain$L-99)
6459  08dc bf02          	ld	_writeEepromString$L+2,x
6460  08de a69d          	ld	a,#low(_applicationMain$L-99)
6461  08e0 b703          	ld	_writeEepromString$L+3,a
6462  08e2 b6fe          	ld	a,_applicationMain$L-2
6463  08e4 befd          	ld	x,_applicationMain$L-3
6464  08e6 cd0000        	call	_writeEepromString
6466                     ; 109 byMsgIdx = EEPROM_MSG_IDX_MENU_INSTALLATION; PDDR =byMsgIdx; intAddress = cintInitialAddress + (byMsgIdx * EEPROM_MSG_LENGTH); memcpy(strMessage, EEPROM_MSG_MENU_INSTALLATION, EEPROM_MSG_LENGTH-1 );writeEepromString(intAddress, strMessage);
6468  08e9 a62e          	ld	a,#46
6469  08eb b7ff          	ld	_applicationMain$L-1,a
6472  08ed a62e          	ld	a,#46
6473  08ef b709          	ld	_PDDR,a
6476  08f1 b69c          	ld	a,_applicationMain$L-100
6477  08f3 be9b          	ld	x,_applicationMain$L-101
6478  08f5 ab40          	add	a,#64
6479  08f7 88            	push	a
6480  08f8 9f            	ld	a,x
6481  08f9 a911          	adc	a,#17
6482  08fb 97            	ld	x,a
6483  08fc 84            	pop	a
6484  08fd b7fe          	ld	_applicationMain$L-2,a
6485  08ff bffd          	ld	_applicationMain$L-3,x
6488  0901 a65f          	ld	a,#95
6489  0903 b704          	ld	_memcpy$L+4,a
6490  0905 aeb9          	ld	x,#high(L3362)
6491  0907 bf02          	ld	_memcpy$L+2,x
6492  0909 a6b9          	ld	a,#low(L3362)
6493  090b b703          	ld	_memcpy$L+3,a
6494  090d a69d          	ld	a,#_applicationMain$L-99
6495  090f 5f            	clr	x
6496  0910 cd0000        	call	_memcpy
6500  0913 ae9d          	ld	x,#high(_applicationMain$L-99)
6501  0915 bf02          	ld	_writeEepromString$L+2,x
6502  0917 a69d          	ld	a,#low(_applicationMain$L-99)
6503  0919 b703          	ld	_writeEepromString$L+3,a
6504  091b b6fe          	ld	a,_applicationMain$L-2
6505  091d befd          	ld	x,_applicationMain$L-3
6506  091f cd0000        	call	_writeEepromString
6508                     ; 110 byMsgIdx = EEPROM_MSG_IDX_MENU_INSTALLATION_PH; PDDR =byMsgIdx; intAddress = cintInitialAddress + (byMsgIdx * EEPROM_MSG_LENGTH); memcpy(strMessage, EEPROM_MSG_MENU_INSTALLATION_PH, EEPROM_MSG_LENGTH-1 );writeEepromString(intAddress, strMessage);
6510  0922 a62f          	ld	a,#47
6511  0924 b7ff          	ld	_applicationMain$L-1,a
6514  0926 a62f          	ld	a,#47
6515  0928 b709          	ld	_PDDR,a
6518  092a b69c          	ld	a,_applicationMain$L-100
6519  092c be9b          	ld	x,_applicationMain$L-101
6520  092e aba0          	add	a,#160
6521  0930 88            	push	a
6522  0931 9f            	ld	a,x
6523  0932 a911          	adc	a,#17
6524  0934 97            	ld	x,a
6525  0935 84            	pop	a
6526  0936 b7fe          	ld	_applicationMain$L-2,a
6527  0938 bffd          	ld	_applicationMain$L-3,x
6530  093a a65f          	ld	a,#95
6531  093c b704          	ld	_memcpy$L+4,a
6532  093e aea4          	ld	x,#high(L5362)
6533  0940 bf02          	ld	_memcpy$L+2,x
6534  0942 a6a4          	ld	a,#low(L5362)
6535  0944 b703          	ld	_memcpy$L+3,a
6536  0946 a69d          	ld	a,#_applicationMain$L-99
6537  0948 5f            	clr	x
6538  0949 cd0000        	call	_memcpy
6542  094c ae9d          	ld	x,#high(_applicationMain$L-99)
6543  094e bf02          	ld	_writeEepromString$L+2,x
6544  0950 a69d          	ld	a,#low(_applicationMain$L-99)
6545  0952 b703          	ld	_writeEepromString$L+3,a
6546  0954 b6fe          	ld	a,_applicationMain$L-2
6547  0956 befd          	ld	x,_applicationMain$L-3
6548  0958 cd0000        	call	_writeEepromString
6550                     ; 111 byMsgIdx = EEPROM_MSG_IDX_MENU_RESET; PDDR =byMsgIdx; intAddress = cintInitialAddress + (byMsgIdx * EEPROM_MSG_LENGTH); memcpy(strMessage, EEPROM_MSG_MENU_RESET, EEPROM_MSG_LENGTH-1 );writeEepromString(intAddress, strMessage);
6552  095b a630          	ld	a,#48
6553  095d b7ff          	ld	_applicationMain$L-1,a
6556  095f a630          	ld	a,#48
6557  0961 b709          	ld	_PDDR,a
6560  0963 b69c          	ld	a,_applicationMain$L-100
6561  0965 be9b          	ld	x,_applicationMain$L-101
6562  0967 ab00          	add	a,#0
6563  0969 88            	push	a
6564  096a 9f            	ld	a,x
6565  096b a912          	adc	a,#18
6566  096d 97            	ld	x,a
6567  096e 84            	pop	a
6568  096f b7fe          	ld	_applicationMain$L-2,a
6569  0971 bffd          	ld	_applicationMain$L-3,x
6572  0973 a65f          	ld	a,#95
6573  0975 b704          	ld	_memcpy$L+4,a
6574  0977 ae85          	ld	x,#high(L7362)
6575  0979 bf02          	ld	_memcpy$L+2,x
6576  097b a685          	ld	a,#low(L7362)
6577  097d b703          	ld	_memcpy$L+3,a
6578  097f a69d          	ld	a,#_applicationMain$L-99
6579  0981 5f            	clr	x
6580  0982 cd0000        	call	_memcpy
6584  0985 ae9d          	ld	x,#high(_applicationMain$L-99)
6585  0987 bf02          	ld	_writeEepromString$L+2,x
6586  0989 a69d          	ld	a,#low(_applicationMain$L-99)
6587  098b b703          	ld	_writeEepromString$L+3,a
6588  098d b6fe          	ld	a,_applicationMain$L-2
6589  098f befd          	ld	x,_applicationMain$L-3
6590  0991 cd0000        	call	_writeEepromString
6592                     ; 112 byMsgIdx = EEPROM_MSG_IDX_MENU_TIMERS_01; PDDR =byMsgIdx; intAddress = cintInitialAddress + (byMsgIdx * EEPROM_MSG_LENGTH); memcpy(strMessage, EEPROM_MSG_MENU_TIMERS_01, EEPROM_MSG_LENGTH-1 );writeEepromString(intAddress, strMessage);
6594  0994 a631          	ld	a,#49
6595  0996 b7ff          	ld	_applicationMain$L-1,a
6598  0998 a631          	ld	a,#49
6599  099a b709          	ld	_PDDR,a
6602  099c b69c          	ld	a,_applicationMain$L-100
6603  099e be9b          	ld	x,_applicationMain$L-101
6604  09a0 ab60          	add	a,#96
6605  09a2 88            	push	a
6606  09a3 9f            	ld	a,x
6607  09a4 a912          	adc	a,#18
6608  09a6 97            	ld	x,a
6609  09a7 84            	pop	a
6610  09a8 b7fe          	ld	_applicationMain$L-2,a
6611  09aa bffd          	ld	_applicationMain$L-3,x
6614  09ac a65f          	ld	a,#95
6615  09ae b704          	ld	_memcpy$L+4,a
6616  09b0 ae58          	ld	x,#high(L1462)
6617  09b2 bf02          	ld	_memcpy$L+2,x
6618  09b4 a658          	ld	a,#low(L1462)
6619  09b6 b703          	ld	_memcpy$L+3,a
6620  09b8 a69d          	ld	a,#_applicationMain$L-99
6621  09ba 5f            	clr	x
6622  09bb cd0000        	call	_memcpy
6626  09be ae9d          	ld	x,#high(_applicationMain$L-99)
6627  09c0 bf02          	ld	_writeEepromString$L+2,x
6628  09c2 a69d          	ld	a,#low(_applicationMain$L-99)
6629  09c4 b703          	ld	_writeEepromString$L+3,a
6630  09c6 b6fe          	ld	a,_applicationMain$L-2
6631  09c8 befd          	ld	x,_applicationMain$L-3
6632  09ca cd0000        	call	_writeEepromString
6634                     ; 113 byMsgIdx = EEPROM_MSG_IDX_MENU_TIMERS_02; PDDR =byMsgIdx; intAddress = cintInitialAddress + (byMsgIdx * EEPROM_MSG_LENGTH); memcpy(strMessage, EEPROM_MSG_MENU_TIMERS_02, EEPROM_MSG_LENGTH-1 );writeEepromString(intAddress, strMessage);
6636  09cd a632          	ld	a,#50
6637  09cf b7ff          	ld	_applicationMain$L-1,a
6640  09d1 a632          	ld	a,#50
6641  09d3 b709          	ld	_PDDR,a
6644  09d5 b69c          	ld	a,_applicationMain$L-100
6645  09d7 be9b          	ld	x,_applicationMain$L-101
6646  09d9 abc0          	add	a,#192
6647  09db 88            	push	a
6648  09dc 9f            	ld	a,x
6649  09dd a912          	adc	a,#18
6650  09df 97            	ld	x,a
6651  09e0 84            	pop	a
6652  09e1 b7fe          	ld	_applicationMain$L-2,a
6653  09e3 bffd          	ld	_applicationMain$L-3,x
6656  09e5 a65f          	ld	a,#95
6657  09e7 b704          	ld	_memcpy$L+4,a
6658  09e9 ae11          	ld	x,#high(L3462)
6659  09eb bf02          	ld	_memcpy$L+2,x
6660  09ed a611          	ld	a,#low(L3462)
6661  09ef b703          	ld	_memcpy$L+3,a
6662  09f1 a69d          	ld	a,#_applicationMain$L-99
6663  09f3 5f            	clr	x
6664  09f4 cd0000        	call	_memcpy
6668  09f7 ae9d          	ld	x,#high(_applicationMain$L-99)
6669  09f9 bf02          	ld	_writeEepromString$L+2,x
6670  09fb a69d          	ld	a,#low(_applicationMain$L-99)
6671  09fd b703          	ld	_writeEepromString$L+3,a
6672  09ff b6fe          	ld	a,_applicationMain$L-2
6673  0a01 befd          	ld	x,_applicationMain$L-3
6674  0a03 cd0000        	call	_writeEepromString
6676                     ; 114 byMsgIdx = EEPROM_MSG_IDX_MENU_TIMERS_03_PH; PDDR =byMsgIdx; intAddress = cintInitialAddress + (byMsgIdx * EEPROM_MSG_LENGTH); memcpy(strMessage, EEPROM_MSG_MENU_TIMERS_03_PH, EEPROM_MSG_LENGTH-1 );writeEepromString(intAddress, strMessage);
6678  0a06 a633          	ld	a,#51
6679  0a08 b7ff          	ld	_applicationMain$L-1,a
6682  0a0a a633          	ld	a,#51
6683  0a0c b709          	ld	_PDDR,a
6686  0a0e b69c          	ld	a,_applicationMain$L-100
6687  0a10 be9b          	ld	x,_applicationMain$L-101
6688  0a12 ab20          	add	a,#32
6689  0a14 88            	push	a
6690  0a15 9f            	ld	a,x
6691  0a16 a913          	adc	a,#19
6692  0a18 97            	ld	x,a
6693  0a19 84            	pop	a
6694  0a1a b7fe          	ld	_applicationMain$L-2,a
6695  0a1c bffd          	ld	_applicationMain$L-3,x
6698  0a1e a65f          	ld	a,#95
6699  0a20 b704          	ld	_memcpy$L+4,a
6700  0a22 aefa          	ld	x,#high(L5462)
6701  0a24 bf02          	ld	_memcpy$L+2,x
6702  0a26 a6fa          	ld	a,#low(L5462)
6703  0a28 b703          	ld	_memcpy$L+3,a
6704  0a2a a69d          	ld	a,#_applicationMain$L-99
6705  0a2c 5f            	clr	x
6706  0a2d cd0000        	call	_memcpy
6710  0a30 ae9d          	ld	x,#high(_applicationMain$L-99)
6711  0a32 bf02          	ld	_writeEepromString$L+2,x
6712  0a34 a69d          	ld	a,#low(_applicationMain$L-99)
6713  0a36 b703          	ld	_writeEepromString$L+3,a
6714  0a38 b6fe          	ld	a,_applicationMain$L-2
6715  0a3a befd          	ld	x,_applicationMain$L-3
6716  0a3c cd0000        	call	_writeEepromString
6718                     ; 116 PDDR = 0xFF;
6720  0a3f a6ff          	ld	a,#255
6721  0a41 b709          	ld	_PDDR,a
6722  0a43               L7462:
6724  0a43 20fe          	jra	L7462
6736                     	xdef	_applicationInit
6737                     	xdef	_applicationMain
6738                     	xref	_memcpy
6739                     	xref	_writeEepromString
6740                     	xref	_eepromInit
6741                     	switch	.const
6742  0afa               L5462:
6743  0afa 41676769756e  	dc.b	"Aggiunta Acido-Bas"
6744  0b0c 6524242400    	dc.b	"e$$$",0
6745  0b11               L3462:
6746  0b11 496e7465724d  	dc.b	"InterMisurazione$T"
6747  0b23 696d656f7574  	dc.b	"imeout Misurazione"
6748  0b35 245269746172  	dc.b	"$Ritardi Valvole$A"
6749  0b47 676769756e74  	dc.b	"ggiunta Solvente",0
6750  0b58               L1462:
6751  0b58 506175736124  	dc.b	"Pausa$Lavaggio$Cor"
6752  0b6a 72657a696f6e  	dc.b	"rezione Max$Correz"
6753  0b7c 696f6e65204d  	dc.b	"ione Min",0
6754  0b85               L7362:
6755  0b85 496e697a6961  	dc.b	"Inizializzare$Visc"
6756  0b97 6f57616c3f24  	dc.b	"oWal?$Si'$No",0
6757  0ba4               L5362:
6758  0ba4 417474697661  	dc.b	"Attivare pH?$Si'$N"
6759  0bb6 6f2400        	dc.b	"o$",0
6760  0bb9               L3362:
6761  0bb9 4162696c6974  	dc.b	"Abilitazione pH$Te"
6762  0bcb 6d7069242400  	dc.b	"mpi$$",0
6763  0bd1               L1362:
6764  0bd1 457370616e6f  	dc.b	"Espanol$Portugues$"
6765  0be3 4c696e677561  	dc.b	"Lingua 7$Lingua 8",0
6766  0bf5               L7262:
6767  0bf5 4974616c6961  	dc.b	"Italiano$English$D"
6768  0c07 657574736368  	dc.b	"eutsch$Francais",0
6769  0c17               L5262:
6770  0c17 7048204d6178  	dc.b	"pH Max$pH Min$$",0
6771  0c27               L3262:
6772  0c27 566973636f73  	dc.b	"Viscosita' Max$Vis"
6773  0c39 636f73697461  	dc.b	"cosita' Min$Temper"
6774  0c4b 617475726120  	dc.b	"atura Max$Temperat"
6775  0c5d 757261204d69  	dc.b	"ura Min",0
6776  0c65               L7162:
6777  0c65 536f6c76656e  	dc.b	"Solvente$Acido-Bas"
6778  0c77 6500          	dc.b	"e",0
6779  0c79               L5162:
6780  0c79 477561646167  	dc.b	"Guadagni$Lingue$In"
6781  0c8b 7374616c6c61  	dc.b	"stallazione$Reset "
6782  0c9d 566973636f57  	dc.b	"ViscoWal",0
6783  0ca6               L3162:
6784  0ca6 566973636f73  	dc.b	"Viscosita'$Tempera"
6785  0cb8 747572612424  	dc.b	"tura$$",0
6786  0cbf               L1162:
6787  0cbf 566973636f73  	dc.b	"Viscosita'$Tempera"
6788  0cd1 747572612470  	dc.b	"tura$pH$",0
6789  0cda               L7062:
6790  0cda 546172617475  	dc.b	"Taratura$Soglie$Pa"
6791  0cec 72616d657472  	dc.b	"rametri$",0
6792  0cf5               L5062:
6793  0cf5 53616c766120  	dc.b	"Salva Lavoro$Caric"
6794  0d07 61204c61766f  	dc.b	"a Lavoro$$",0
6795  0d12               L3062:
6796  0d12 456666657474  	dc.b	"Effettuare Lavaggi"
6797  0d24 6f3f24536927  	dc.b	"o?$Si'$No$",0
6798  0d2f               L1062:
6799  0d2f 41676769756e  	dc.b	"Aggiungere$Solvent"
6800  0d41 652453692724  	dc.b	"e$Si'$No",0
6801  0d4a               L7752:
6802  0d4a 41676769756e  	dc.b	"Aggiungere$Acido-B"
6803  0d5c 617365245369  	dc.b	"ase$Si'$No",0
6804  0d67               L5752:
6805  0d67 4572726f7265  	dc.b	"Errore 15:$$$Conta"
6806  0d79 747461726520  	dc.b	"ttare il fornitore",0
6807  0d8c               L3752:
6808  0d8c 4572726f7265  	dc.b	"Errore 14:$$$Conta"
6809  0d9e 747461726520  	dc.b	"ttare il fornitore",0
6810  0db1               L1752:
6811  0db1 4572726f7265  	dc.b	"Errore 13:$$$Conta"
6812  0dc3 747461726520  	dc.b	"ttare il fornitore",0
6813  0dd6               L7652:
6814  0dd6 4572726f7265  	dc.b	"Errore 12:$$$Conta"
6815  0de8 747461726520  	dc.b	"ttare il fornitore",0
6816  0dfb               L5652:
6817  0dfb 4572726f7265  	dc.b	"Errore 11:$$$Conta"
6818  0e0d 747461726520  	dc.b	"ttare il fornitore",0
6819  0e20               L3652:
6820  0e20 4572726f7265  	dc.b	"Errore 10:$$$Conta"
6821  0e32 747461726520  	dc.b	"ttare il fornitore",0
6822  0e45               L1652:
6823  0e45 4572726f7265  	dc.b	"Errore 09:$Tempera"
6824  0e57 747572612466  	dc.b	"tura$fuori limite$"
6825  0e69 5072656d6572  	dc.b	"Premere un tasto p"
6826  0e7b 657220636f6e  	dc.b	"er continuare",0
6827  0e89               L7552:
6828  0e89 4572726f7265  	dc.b	"Errore 08:$pH$fuor"
6829  0e9b 69206c696d69  	dc.b	"i limite$Premere u"
6830  0ead 6e2074617374  	dc.b	"n tasto per contin"
6831  0ebf 7561726500    	dc.b	"uare",0
6832  0ec4               L5552:
6833  0ec4 4572726f7265  	dc.b	"Errore 07:$Viscosi"
6834  0ed6 746127246675  	dc.b	"ta'$fuori limite$P"
6835  0ee8 72656d657265  	dc.b	"remere un tasto pe"
6836  0efa 7220636f6e74  	dc.b	"r continuare",0
6837  0f07               L3552:
6838  0f07 4572726f7265  	dc.b	"Errore 06:$Tempera"
6839  0f19 747572612469  	dc.b	"tura$irregolare$Pr"
6840  0f2b 656d65726520  	dc.b	"emere un tasto per"
6841  0f3d 20636f6e7469  	dc.b	" continuare",0
6842  0f49               L1552:
6843  0f49 4572726f7265  	dc.b	"Errore 05:$pH$irre"
6844  0f5b 676f6c617265  	dc.b	"golare$Premere un "
6845  0f6d 746173746f20  	dc.b	"tasto per continua"
6846  0f7f 726500        	dc.b	"re",0
6847  0f82               L7452:
6848  0f82 4572726f7265  	dc.b	"Errore 04:$Viscosi"
6849  0f94 746127246972  	dc.b	"ta'$irregolare$Pre"
6850  0fa6 6d6572652075  	dc.b	"mere un tasto per "
6851  0fb8 636f6e74696e  	dc.b	"continuare",0
6852  0fc3               L5452:
6853  0fc3 4572726f7265  	dc.b	"Errore 03:$Misuraz"
6854  0fd5 696f6e652454  	dc.b	"ione$Temperatura$P"
6855  0fe7 72656d657265  	dc.b	"remere un tasto pe"
6856  0ff9 7220636f6e74  	dc.b	"r continuare",0
6857  1006               L3452:
6858  1006 4572726f7265  	dc.b	"Errore 02:$Misuraz"
6859  1018 696f6e652470  	dc.b	"ione$pH$Premere un"
6860  102a 20746173746f  	dc.b	" tasto per continu"
6861  103c 61726500      	dc.b	"are",0
6862  1040               L1452:
6863  1040 4572726f7265  	dc.b	"Errore 01:$Misuraz"
6864  1052 696f6e652456  	dc.b	"ione$Viscosita'$Pr"
6865  1064 656d65726520  	dc.b	"emere un tasto per"
6866  1076 20636f6e7469  	dc.b	" continuare",0
6867  1082               L7352:
6868  1082 4572726f7265  	dc.b	"Errore 00:$Errore "
6869  1094 47656e657269  	dc.b	"Generico$$Contatta"
6870  10a6 726520696c20  	dc.b	"re il fornitore",0
6871  10b6               L5352:
6872  10b6 24506172616d  	dc.b	"$Parametro$Salvato"
6873  10c8 2400          	dc.b	"$",0
6874  10ca               L3352:
6875  10ca 4c6176616767  	dc.b	"Lavaggio$in corso$"
6876  10dc 245072656d65  	dc.b	"$Premere un tasto "
6877  10ee 706572207465  	dc.b	"per terminare",0
6878  10fc               L1352:
6879  10fc 41676769756e  	dc.b	"Aggiunta$Solvente$"
6880  110e 696e20636f72  	dc.b	"in corso$Premere u"
6881  1120 6e2074617374  	dc.b	"n tasto per termin"
6882  1132 61726500      	dc.b	"are",0
6883  1136               L7252:
6884  1136 41676769756e  	dc.b	"Aggiunta$Acido-Bas"
6885  1148 6524696e2063  	dc.b	"e$in corso$Premere"
6886  115a 20756e207461  	dc.b	" un tasto per term"
6887  116c 696e61726500  	dc.b	"inare",0
6888  1172               L5252:
6889  1172 244d69737572  	dc.b	"$Misurazione$in co"
6890  1184 72736f2400    	dc.b	"rso$",0
6891  1189               L3252:
6892  1189 54656d706572  	dc.b	"Temperatura$Viscos"
6893  119b 69746100      	dc.b	"ita",0
6894  119f               L1252:
6895  119f 54656d706572  	dc.b	"Temperatura$pH$Vis"
6896  11b1 636f73697461  	dc.b	"cosita",0
6897  11b8               L7152:
6898  11b8 704824566973  	dc.b	"pH$Viscosita$Tempe"
6899  11ca 726174757261  	dc.b	"ratura",0
6900  11d1               L5152:
6901  11d1 566973636f73  	dc.b	"Viscosita$Temperat"
6902  11e3 75726100      	dc.b	"ura",0
6903  11e7               L3152:
6904  11e7 566973636f73  	dc.b	"Viscosita$Temperat"
6905  11f9 757261247048  	dc.b	"ura$pH",0
6906  1200               L1262:
6907  1200 536f6c76656e  	dc.b	"Solvente",0
6927                     	xref.b	_writeEepromString$L
6928                     	xref.b	_memcpy$L
6929                     	end
