   1                     ; C Compiler for ST7 (COSMIC Software)
   2                     ; Generator V4.5.5 - 12 Jan 2006
1280                     .const:	section	.text
1281  0000               L327_mc_strReset:
1282  0000 19            	dc.b	25
1283  0001 fe            	dc.b	254
1284  0002 10            	dc.b	16
1285  0003 00            	dc.b	0
1286  0004 00            	dc.b	0
1287  0005 fe            	dc.b	254
1288  0006 12            	dc.b	18
1289  0007 00            	dc.b	0
1290  0008 00            	dc.b	0
1291  0009 7e            	dc.b	126
1292  000a 40            	dc.b	64
1293  000b fe            	dc.b	254
1294  000c 1b            	dc.b	27
1295  000d 4b            	dc.b	75
1296  000e fe            	dc.b	254
1297  000f 1b            	dc.b	27
1298  0010 42            	dc.b	66
1299  0011 fe            	dc.b	254
1300  0012 ff            	dc.b	255
1301  0013               L527_mc_strRecClear:
1302  0013 12            	dc.b	18
1303  0014 00            	dc.b	0
1304  0015 00            	dc.b	0
1305  0016 7e            	dc.b	126
1306  0017 40            	dc.b	64
1307  0018 fe            	dc.b	254
1308  0019 ff            	dc.b	255
1309  001a               L727_mc_strRectMenu:
1310  001a 12            	dc.b	18
1311  001b 00            	dc.b	0
1312  001c 00            	dc.b	0
1313  001d 7c            	dc.b	124
1314  001e 3e            	dc.b	62
1315  001f fe            	dc.b	254
1316  0020 14            	dc.b	20
1317  0021 00            	dc.b	0
1318  0022 00            	dc.b	0
1319  0023 7c            	dc.b	124
1320  0024 3e            	dc.b	62
1321  0025 fe            	dc.b	254
1322  0026 11            	dc.b	17
1323  0027 01            	dc.b	1
1324  0028 3e            	dc.b	62
1325  0029 7d            	dc.b	125
1326  002a 3f            	dc.b	63
1327  002b fe            	dc.b	254
1328  002c 11            	dc.b	17
1329  002d 7c            	dc.b	124
1330  002e 01            	dc.b	1
1331  002f 7d            	dc.b	125
1332  0030 3f            	dc.b	63
1333  0031 fe            	dc.b	254
1334  0032 ff            	dc.b	255
1335  0033               L137_mc_strGphModeAuto:
1336  0033 10            	dc.b	16
1337  0034 4f            	dc.b	79
1338  0035 01            	dc.b	1
1339  0036 fe            	dc.b	254
1340  0037 1a            	dc.b	26
1341  0038 40            	dc.b	64
1342  0039 18            	dc.b	24
1343  003a 08            	dc.b	8
1344  003b 00            	dc.b	0
1345  003c 3c            	dc.b	60
1346  003d 42            	dc.b	66
1347  003e 02            	dc.b	2
1348  003f 72            	dc.b	114
1349  0040 62            	dc.b	98
1350  0041 5c            	dc.b	92
1351  0042 00            	dc.b	0
1352  0043 fe            	dc.b	254
1353  0044 10            	dc.b	16
1354  0045 59            	dc.b	89
1355  0046 08            	dc.b	8
1356  0047 fe            	dc.b	254
1357  0048 1c            	dc.b	28
1358  0049 fe            	dc.b	254
1359  004a 41            	dc.b	65
1360  004b 75            	dc.b	117
1361  004c 74            	dc.b	116
1362  004d 6f            	dc.b	111
1363  004e 20            	dc.b	32
1364  004f 20            	dc.b	32
1365  0050 fe            	dc.b	254
1366  0051 ff            	dc.b	255
1367  0052               L337_mc_strGphModeManual:
1368  0052 10            	dc.b	16
1369  0053 4f            	dc.b	79
1370  0054 01            	dc.b	1
1371  0055 fe            	dc.b	254
1372  0056 1a            	dc.b	26
1373  0057 40            	dc.b	64
1374  0058 18            	dc.b	24
1375  0059 08            	dc.b	8
1376  005a 30            	dc.b	48
1377  005b 30            	dc.b	48
1378  005c 00            	dc.b	0
1379  005d 78            	dc.b	120
1380  005e 78            	dc.b	120
1381  005f 78            	dc.b	120
1382  0060 30            	dc.b	48
1383  0061 30            	dc.b	48
1384  0062 fe            	dc.b	254
1385  0063 10            	dc.b	16
1386  0064 59            	dc.b	89
1387  0065 08            	dc.b	8
1388  0066 fe            	dc.b	254
1389  0067 1c            	dc.b	28
1390  0068 fe            	dc.b	254
1391  0069 4d            	dc.b	77
1392  006a 61            	dc.b	97
1393  006b 6e            	dc.b	110
1394  006c 75            	dc.b	117
1395  006d 61            	dc.b	97
1396  006e 6c            	dc.b	108
1397  006f fe            	dc.b	254
1398  0070 ff            	dc.b	255
1399  0071               L537_mc_strGphModePause:
1400  0071 10            	dc.b	16
1401  0072 4f            	dc.b	79
1402  0073 01            	dc.b	1
1403  0074 fe            	dc.b	254
1404  0075 1a            	dc.b	26
1405  0076 40            	dc.b	64
1406  0077 18            	dc.b	24
1407  0078 08            	dc.b	8
1408  0079 00            	dc.b	0
1409  007a 66            	dc.b	102
1410  007b 66            	dc.b	102
1411  007c 66            	dc.b	102
1412  007d 66            	dc.b	102
1413  007e 66            	dc.b	102
1414  007f 66            	dc.b	102
1415  0080 66            	dc.b	102
1416  0081 fe            	dc.b	254
1417  0082 10            	dc.b	16
1418  0083 59            	dc.b	89
1419  0084 08            	dc.b	8
1420  0085 fe            	dc.b	254
1421  0086 1c            	dc.b	28
1422  0087 fe            	dc.b	254
1423  0088 50            	dc.b	80
1424  0089 61            	dc.b	97
1425  008a 75            	dc.b	117
1426  008b 73            	dc.b	115
1427  008c 65            	dc.b	101
1428  008d 20            	dc.b	32
1429  008e fe            	dc.b	254
1430  008f ff            	dc.b	255
1431  0090               L737_mc_strGphModeOff:
1432  0090 10            	dc.b	16
1433  0091 4f            	dc.b	79
1434  0092 01            	dc.b	1
1435  0093 fe            	dc.b	254
1436  0094 1a            	dc.b	26
1437  0095 40            	dc.b	64
1438  0096 18            	dc.b	24
1439  0097 08            	dc.b	8
1440  0098 08            	dc.b	8
1441  0099 2a            	dc.b	42
1442  009a 49            	dc.b	73
1443  009b 49            	dc.b	73
1444  009c 41            	dc.b	65
1445  009d 41            	dc.b	65
1446  009e 22            	dc.b	34
1447  009f 1c            	dc.b	28
1448  00a0 fe            	dc.b	254
1449  00a1 10            	dc.b	16
1450  00a2 59            	dc.b	89
1451  00a3 08            	dc.b	8
1452  00a4 fe            	dc.b	254
1453  00a5 1c            	dc.b	28
1454  00a6 fe            	dc.b	254
1455  00a7 4f            	dc.b	79
1456  00a8 66            	dc.b	102
1457  00a9 66            	dc.b	102
1458  00aa 20            	dc.b	32
1459  00ab 20            	dc.b	32
1460  00ac 20            	dc.b	32
1461  00ad fe            	dc.b	254
1462  00ae ff            	dc.b	255
1463  00af               L147_mc_strGphScrollDown:
1464  00af 10            	dc.b	16
1465  00b0 70            	dc.b	112
1466  00b1 30            	dc.b	48
1467  00b2 fe            	dc.b	254
1468  00b3 1a            	dc.b	26
1469  00b4 40            	dc.b	64
1470  00b5 18            	dc.b	24
1471  00b6 08            	dc.b	8
1472  00b7 00            	dc.b	0
1473  00b8 18            	dc.b	24
1474  00b9 18            	dc.b	24
1475  00ba 18            	dc.b	24
1476  00bb 7e            	dc.b	126
1477  00bc 3c            	dc.b	60
1478  00bd 18            	dc.b	24
1479  00be 00            	dc.b	0
1480  00bf fe            	dc.b	254
1481  00c0 ff            	dc.b	255
1482  00c1               L347_mc_strGphScrollUp:
1483  00c1 10            	dc.b	16
1484  00c2 70            	dc.b	112
1485  00c3 06            	dc.b	6
1486  00c4 fe            	dc.b	254
1487  00c5 1a            	dc.b	26
1488  00c6 40            	dc.b	64
1489  00c7 18            	dc.b	24
1490  00c8 08            	dc.b	8
1491  00c9 00            	dc.b	0
1492  00ca 18            	dc.b	24
1493  00cb 3c            	dc.b	60
1494  00cc 7e            	dc.b	126
1495  00cd 18            	dc.b	24
1496  00ce 18            	dc.b	24
1497  00cf 18            	dc.b	24
1498  00d0 00            	dc.b	0
1499  00d1 fe            	dc.b	254
1500  00d2 ff            	dc.b	255
1501  00d3               L547_mc_strGphUp:
1502  00d3 10            	dc.b	16
1503  00d4 70            	dc.b	112
1504  00d5 23            	dc.b	35
1505  00d6 fe            	dc.b	254
1506  00d7 1a            	dc.b	26
1507  00d8 40            	dc.b	64
1508  00d9 18            	dc.b	24
1509  00da 08            	dc.b	8
1510  00db 00            	dc.b	0
1511  00dc 18            	dc.b	24
1512  00dd 3c            	dc.b	60
1513  00de 7e            	dc.b	126
1514  00df 18            	dc.b	24
1515  00e0 18            	dc.b	24
1516  00e1 18            	dc.b	24
1517  00e2 00            	dc.b	0
1518  00e3 fe            	dc.b	254
1519  00e4 ff            	dc.b	255
1520  00e5               L747_mc_strGphDown:
1521  00e5 10            	dc.b	16
1522  00e6 70            	dc.b	112
1523  00e7 30            	dc.b	48
1524  00e8 fe            	dc.b	254
1525  00e9 1a            	dc.b	26
1526  00ea 40            	dc.b	64
1527  00eb 18            	dc.b	24
1528  00ec 08            	dc.b	8
1529  00ed 00            	dc.b	0
1530  00ee 18            	dc.b	24
1531  00ef 18            	dc.b	24
1532  00f0 18            	dc.b	24
1533  00f1 7e            	dc.b	126
1534  00f2 3c            	dc.b	60
1535  00f3 18            	dc.b	24
1536  00f4 00            	dc.b	0
1537  00f5 fe            	dc.b	254
1538  00f6 ff            	dc.b	255
1539  00f7               L157_mc_strRecMain:
1540  00f7 14            	dc.b	20
1541  00f8 00            	dc.b	0
1542  00f9 00            	dc.b	0
1543  00fa 45            	dc.b	69
1544  00fb 3e            	dc.b	62
1545  00fc fe            	dc.b	254
1546  00fd 11            	dc.b	17
1547  00fe 01            	dc.b	1
1548  00ff 3f            	dc.b	63
1549  0100 45            	dc.b	69
1550  0101 3f            	dc.b	63
1551  0102 fe            	dc.b	254
1552  0103 11            	dc.b	17
1553  0104 45            	dc.b	69
1554  0105 01            	dc.b	1
1555  0106 46            	dc.b	70
1556  0107 3f            	dc.b	63
1557  0108 fe            	dc.b	254
1558  0109 ff            	dc.b	255
1559  010a               L357_mc_strRecMainSecFull:
1560  010a 14            	dc.b	20
1561  010b 48            	dc.b	72
1562  010c 0b            	dc.b	11
1563  010d 7c            	dc.b	124
1564  010e 23            	dc.b	35
1565  010f fe            	dc.b	254
1566  0110 11            	dc.b	17
1567  0111 49            	dc.b	73
1568  0112 24            	dc.b	36
1569  0113 7c            	dc.b	124
1570  0114 24            	dc.b	36
1571  0115 fe            	dc.b	254
1572  0116 11            	dc.b	17
1573  0117 7c            	dc.b	124
1574  0118 0c            	dc.b	12
1575  0119 7d            	dc.b	125
1576  011a 24            	dc.b	36
1577  011b fe            	dc.b	254
1578  011c 14            	dc.b	20
1579  011d 48            	dc.b	72
1580  011e 26            	dc.b	38
1581  011f 7c            	dc.b	124
1582  0120 3e            	dc.b	62
1583  0121 fe            	dc.b	254
1584  0122 11            	dc.b	17
1585  0123 49            	dc.b	73
1586  0124 3f            	dc.b	63
1587  0125 7c            	dc.b	124
1588  0126 3f            	dc.b	63
1589  0127 fe            	dc.b	254
1590  0128 11            	dc.b	17
1591  0129 7c            	dc.b	124
1592  012a 27            	dc.b	39
1593  012b 7d            	dc.b	125
1594  012c 3f            	dc.b	63
1595  012d fe            	dc.b	254
1596  012e ff            	dc.b	255
1597  012f               L557_mc_strRecMainSecNoPh:
1598  012f 14            	dc.b	20
1599  0130 48            	dc.b	72
1600  0131 0b            	dc.b	11
1601  0132 7c            	dc.b	124
1602  0133 3e            	dc.b	62
1603  0134 fe            	dc.b	254
1604  0135 11            	dc.b	17
1605  0136 49            	dc.b	73
1606  0137 3f            	dc.b	63
1607  0138 7c            	dc.b	124
1608  0139 3f            	dc.b	63
1609  013a fe            	dc.b	254
1610  013b 11            	dc.b	17
1611  013c 7c            	dc.b	124
1612  013d 0c            	dc.b	12
1613  013e 7d            	dc.b	125
1614  013f 3f            	dc.b	63
1615  0140 fe            	dc.b	254
1616  0141 ff            	dc.b	255
1617  0142               L757_mc_strPosMainLabel:
1618  0142 1c            	dc.b	28
1619  0143 fe            	dc.b	254
1620  0144 10            	dc.b	16
1621  0145 02            	dc.b	2
1622  0146 07            	dc.b	7
1623  0147 fe            	dc.b	254
1624  0148 ff            	dc.b	255
1625  0149 1c            	dc.b	28
1626  014a fe            	dc.b	254
1627  014b 10            	dc.b	16
1628  014c 4a            	dc.b	74
1629  014d 12            	dc.b	18
1630  014e fe            	dc.b	254
1631  014f ff            	dc.b	255
1632  0150 1c            	dc.b	28
1633  0151 fe            	dc.b	254
1634  0152 10            	dc.b	16
1635  0153 4a            	dc.b	74
1636  0154 2d            	dc.b	45
1637  0155 fe            	dc.b	254
1638  0156 ff            	dc.b	255
1639  0157               L167_mc_strPosMainValue:
1640  0157 1e            	dc.b	30
1641  0158 fe            	dc.b	254
1642  0159 10            	dc.b	16
1643  015a 0b            	dc.b	11
1644  015b 24            	dc.b	36
1645  015c fe            	dc.b	254
1646  015d ff            	dc.b	255
1647  015e 1d            	dc.b	29
1648  015f fe            	dc.b	254
1649  0160 10            	dc.b	16
1650  0161 49            	dc.b	73
1651  0162 1e            	dc.b	30
1652  0163 fe            	dc.b	254
1653  0164 ff            	dc.b	255
1654  0165 1d            	dc.b	29
1655  0166 fe            	dc.b	254
1656  0167 10            	dc.b	16
1657  0168 49            	dc.b	73
1658  0169 38            	dc.b	56
1659  016a fe            	dc.b	254
1660  016b ff            	dc.b	255
1661  016c               L367_mc_strPosMainValueLittle:
1662  016c 1d            	dc.b	29
1663  016d fe            	dc.b	254
1664  016e 10            	dc.b	16
1665  016f 24            	dc.b	36
1666  0170 35            	dc.b	53
1667  0171 fe            	dc.b	254
1668  0172 ff            	dc.b	255
1669  0173 1c            	dc.b	28
1670  0174 fe            	dc.b	254
1671  0175 10            	dc.b	16
1672  0176 69            	dc.b	105
1673  0177 1e            	dc.b	30
1674  0178 fe            	dc.b	254
1675  0179 ff            	dc.b	255
1676  017a 1c            	dc.b	28
1677  017b fe            	dc.b	254
1678  017c 10            	dc.b	16
1679  017d 69            	dc.b	105
1680  017e 38            	dc.b	56
1681  017f fe            	dc.b	254
1682  0180 ff            	dc.b	255
1683  0181               L567_mc_strLogo:
1684  0181 fe            	dc.b	254
1685  0182 1e            	dc.b	30
1686  0183 fe            	dc.b	254
1687  0184 10            	dc.b	16
1688  0185 09            	dc.b	9
1689  0186 2b            	dc.b	43
1690  0187 fe            	dc.b	254
1691  0188 54            	dc.b	84
1692  0189 61            	dc.b	97
1693  018a 6a            	dc.b	106
1694  018b fe            	dc.b	254
1695  018c 1d            	dc.b	29
1696  018d fe            	dc.b	254
1697  018e 10            	dc.b	16
1698  018f 36            	dc.b	54
1699  0190 12            	dc.b	18
1700  0191 fe            	dc.b	254
1701  0192 65            	dc.b	101
1702  0193 6c            	dc.b	108
1703  0194 65            	dc.b	101
1704  0195 74            	dc.b	116
1705  0196 74            	dc.b	116
1706  0197 72            	dc.b	114
1707  0198 6f            	dc.b	111
1708  0199 6e            	dc.b	110
1709  019a 69            	dc.b	105
1710  019b 63            	dc.b	99
1711  019c 61            	dc.b	97
1712  019d fe            	dc.b	254
1713  019e 1e            	dc.b	30
1714  019f fe            	dc.b	254
1715  01a0 10            	dc.b	16
1716  01a1 05            	dc.b	5
1717  01a2 12            	dc.b	18
1718  01a3 fe            	dc.b	254
1719  01a4 7a            	dc.b	122
1720  01a5 65            	dc.b	101
1721  01a6 6c            	dc.b	108
1722  01a7 6f            	dc.b	111
1723  01a8 fe            	dc.b	254
1724  01a9 1e            	dc.b	30
1725  01aa fe            	dc.b	254
1726  01ab 10            	dc.b	16
1727  01ac 08            	dc.b	8
1728  01ad 3b            	dc.b	59
1729  01ae fe            	dc.b	254
1730  01af 53            	dc.b	83
1731  01b0 63            	dc.b	99
1732  01b1 6f            	dc.b	111
1733  01b2 70            	dc.b	112
1734  01b3 65            	dc.b	101
1735  01b4 fe            	dc.b	254
1736  01b5 13            	dc.b	19
1737  01b6 01            	dc.b	1
1738  01b7 01            	dc.b	1
1739  01b8 7e            	dc.b	126
1740  01b9 15            	dc.b	21
1741  01ba fe            	dc.b	254
1742  01bb 1c            	dc.b	28
1743  01bc fe            	dc.b	254
1744  01bd 10            	dc.b	16
1745  01be 42            	dc.b	66
1746  01bf 3e            	dc.b	62
1747  01c0 fe            	dc.b	254
1748  01c1 ff            	dc.b	255
1749  01c2               L767_mc_strVersion:
1750  01c2 7620312e3032  	dc.b	"v 1.02-101",0
1970                     	switch	.data
1971  0000               L5111_m_enmKeyPressed:
1972  0000 ff            	dc.b	255
1973  0001               L7111_m_byDisplayOff:
1974  0001 00            	dc.b	0
2004                     ; 27 void displayKeyboardIRQ(void)
2004                     ; 28 {
2005                     	switch	.text
2006  0000               _displayKeyboardIRQ:
2010                     ; 29 	DisableInterrupts();
2013  0000 9b            sim
2015                     ; 31 	m_enmKeyPressed = KEY_ANY_KEYS;
2017  0001 a6fe          	ld	a,#254
2018  0003 c70000        	ld	L5111_m_enmKeyPressed,a
2019                     ; 33 	EnableInterrupts();
2022  0006 9a            rim
2024                     ; 36 }
2027  0007 80            	iret
2056                     ; 39 void displayInit(void)
2056                     ; 40 {
2057                     	switch	.text
2058  0008               _displayInit:
2061                     ; 41 	m_byDisplayOff		= false;
2063  0008 4f            	clr	a
2064  0009 c70001        	ld	L7111_m_byDisplayOff,a
2065                     ; 42 	m_byPrecKey			= KEY_NULL;
2067  000c a6ff          	ld	a,#255
2068  000e c70000        	ld	L1211_m_byPrecKey,a
2069                     ; 44 	sleep(1000);
2071  0011 a6e8          	ld	a,#232
2072  0013 b703          	ld	_sleep$L+3,a
2073  0015 a603          	ld	a,#3
2074  0017 b702          	ld	_sleep$L+2,a
2075  0019 a600          	ld	a,#0
2076  001b b701          	ld	_sleep$L+1,a
2077  001d a600          	ld	a,#0
2078  001f b700          	ld	_sleep$L,a
2079  0021 cd0000        	call	_sleep
2081                     ; 45 	displayCmdToDisplay(mc_strReset);
2083  0024 a600          	ld	a,#low(L327_mc_strReset)
2084  0026 ae00          	ld	x,#high(L327_mc_strReset)
2085  0028 ad6b          	call	_displayCmdToDisplay
2087                     ; 46 	sleep(1000);
2089  002a a6e8          	ld	a,#232
2090  002c b703          	ld	_sleep$L+3,a
2091  002e a603          	ld	a,#3
2092  0030 b702          	ld	_sleep$L+2,a
2093  0032 a600          	ld	a,#0
2094  0034 b701          	ld	_sleep$L+1,a
2095  0036 a600          	ld	a,#0
2096  0038 b700          	ld	_sleep$L,a
2097  003a cd0000        	call	_sleep
2099                     ; 48 	displayCmdToDisplay(mc_strLogo);
2101  003d a681          	ld	a,#low(L567_mc_strLogo)
2102  003f ae81          	ld	x,#high(L567_mc_strLogo)
2103  0041 ad52          	call	_displayCmdToDisplay
2105                     ; 49 	sleepSec(0x01);
2107  0043 5f            	clr	x
2108  0044 a601          	ld	a,#1
2109  0046 cd0000        	call	_sleepSec
2111                     ; 50 }
2114  0049 81            	ret
2139                     ; 54 void displayOff(void)
2139                     ; 55 {
2140                     	switch	.text
2141  004a               _displayOff:
2144                     ; 56 	m_arbyDisplayCommand[0] = DISPLAY_FUNCTION_SET_2;
2146  004a a61b          	ld	a,#27
2147  004c c70001        	ld	_m_arbyDisplayCommand,a
2148                     ; 57 	if (m_byDisplayOff)
2150  004f c60001        	ld	a,L7111_m_byDisplayOff
2151  0052 4d            	tnz	a
2152  0053 2707          	jreq	L1611
2153                     ; 59 		m_arbyDisplayCommand[1] = DISPLAY_POWER_ON;
2155  0055 a650          	ld	a,#80
2156  0057 c70002        	ld	_m_arbyDisplayCommand+1,a
2158  005a 2005          	jra	L3611
2159  005c               L1611:
2160                     ; 63 		m_arbyDisplayCommand[1] = DISPLAY_POWER_OFF;
2162  005c a646          	ld	a,#70
2163  005e c70002        	ld	_m_arbyDisplayCommand+1,a
2164  0061               L3611:
2165                     ; 65 	m_arbyDisplayCommand[2] = DISPLAY_EOF;		
2167  0061 a6ff          	ld	a,#255
2168  0063 c70003        	ld	_m_arbyDisplayCommand+2,a
2169                     ; 67 	displayCmdToDisplay(m_arbyDisplayCommand);	
2171  0066 a601          	ld	a,#low(_m_arbyDisplayCommand)
2172  0068 ae01          	ld	x,#high(_m_arbyDisplayCommand)
2173  006a ad29          	call	_displayCmdToDisplay
2175                     ; 68 	m_byDisplayOff = !m_byDisplayOff;
2177  006c c60001        	ld	a,L7111_m_byDisplayOff
2178  006f 4d            	tnz	a
2179  0070 2604          	jrne	L21
2180  0072 a601          	ld	a,#1
2181  0074 2001          	jra	L41
2182  0076               L21:
2183  0076 4f            	clr	a
2184  0077               L41:
2185  0077 c70001        	ld	L7111_m_byDisplayOff,a
2186                     ; 69 }
2189  007a 81            	ret
2214                     ; 72 void displayReset(void)
2214                     ; 73 {
2215                     	switch	.text
2216  007b               _displayReset:
2219                     ; 74 	displayCmdToDisplay(mc_strReset);
2221  007b a600          	ld	a,#low(L327_mc_strReset)
2222  007d ae00          	ld	x,#high(L327_mc_strReset)
2223  007f ad14          	call	_displayCmdToDisplay
2225                     ; 75 	sleep(1000);
2227  0081 a6e8          	ld	a,#232
2228  0083 b703          	ld	_sleep$L+3,a
2229  0085 a603          	ld	a,#3
2230  0087 b702          	ld	_sleep$L+2,a
2231  0089 a600          	ld	a,#0
2232  008b b701          	ld	_sleep$L+1,a
2233  008d a600          	ld	a,#0
2234  008f b700          	ld	_sleep$L,a
2235  0091 cd0000        	call	_sleep
2237                     ; 76 }
2240  0094 81            	ret
2298                     ; 80 void displayCmdToDisplay(STRING a_strMessage)
2298                     ; 81 {
2299                     	switch	.text
2301                     	xref.b	_displayCmdToDisplay$L
2302  0095               _displayCmdToDisplay:
2304  0095 b701          	ld	_displayCmdToDisplay$L+1,a
2305  0097 bf00          	ld	_displayCmdToDisplay$L,x
2307                     ; 82 	BYTE i = 0x00;
2309  0099 3fff          	clr	_displayCmdToDisplay$L-1
2310                     ; 83 	BYTE byGraphics = 0x00;
2312  009b 3ffe          	clr	_displayCmdToDisplay$L-2
2313                     ; 85 	_bres(_Pa_Select_UA, _Pin_Select_UA);
2315  009d 1115          	bres	_PHDR,#0
2316                     ; 86 	_bres(_Pa_Select_UB, _Pin_Select_UB);
2318  009f 1315          	bres	_PHDR,#1
2319                     ; 87 	_bres(_Pa_Select_UC, _Pin_Select_UC);
2321  00a1 1515          	bres	_PHDR,#2
2322                     ; 88 	_bset(_Pa_Select_U2, _Pin_Select_U2);
2324  00a3 1815          	bset	_PHDR,#4
2325                     ; 90 	if (a_strMessage[0] < 0x20)
2327  00a5 92c600        	ld	a,[_displayCmdToDisplay$L.w]
2328  00a8 a120          	cp	a,#32
2329  00aa 2503          	jrult	L22
2330  00ac cc0135        	jp	L1621
2331  00af               L22:
2333  00af 2058          	jra	L7221
2334  00b1               L5221:
2335                     ; 96 			if((a_strMessage[i]==DISPLAY_GRAPHIC_WRITE) && (byGraphics==0))
2337  00b1 beff          	ld	x,_displayCmdToDisplay$L-1
2338  00b3 92d600        	ld	a,([_displayCmdToDisplay$L.w],x)
2339  00b6 a118          	cp	a,#24
2340  00b8 261c          	jrne	L3321
2342  00ba 3dfe          	tnz	_displayCmdToDisplay$L-2
2343  00bc 2618          	jrne	L3321
2344                     ; 98 				if (a_strMessage[i+1]<0x20)
2346  00be b6ff          	ld	a,_displayCmdToDisplay$L-1
2347  00c0 5f            	clr	x
2348  00c1 bb01          	add	a,_displayCmdToDisplay$L+1
2349  00c3 88            	push	a
2350  00c4 9f            	ld	a,x
2351  00c5 b900          	adc	a,_displayCmdToDisplay$L
2352  00c7 97            	ld	x,a
2353  00c8 84            	pop	a
2354  00c9 bf00          	ld	c_x,x
2355  00cb 97            	ld	x,a
2356  00cc a601          	ld	a,#1
2357  00ce bf01          	ld	c_x+1,x
2358  00d0 97            	ld	x,a
2359  00d1 92d600        	ld	a,([c_x.w],x)
2360  00d4 a120          	cp	a,#32
2361  00d6               L3321:
2362                     ; 104 			if((a_strMessage[i]!=DISPLAY_WAIT) || (byGraphics >0))
2364  00d6 beff          	ld	x,_displayCmdToDisplay$L-1
2365  00d8 92d600        	ld	a,([_displayCmdToDisplay$L.w],x)
2366  00db a1fe          	cp	a,#254
2367  00dd 2604          	jrne	L1421
2369  00df 3dfe          	tnz	_displayCmdToDisplay$L-2
2370  00e1 2708          	jreq	L7321
2371  00e3               L1421:
2372                     ; 106 				SPI_MoveByte(a_strMessage[i]);
2374  00e3 beff          	ld	x,_displayCmdToDisplay$L-1
2375  00e5 92d600        	ld	a,([_displayCmdToDisplay$L.w],x)
2376  00e8 cd0000        	call	_SPI_MoveByte
2378  00eb               L7321:
2379                     ; 111 			if (byGraphics>0)
2381  00eb 3dfe          	tnz	_displayCmdToDisplay$L-2
2382  00ed 2702          	jreq	L3421
2383                     ; 113 				byGraphics--;
2385  00ef 3afe          	dec	_displayCmdToDisplay$L-2
2386  00f1               L3421:
2387                     ; 116 			i++;
2389  00f1 3cff          	inc	_displayCmdToDisplay$L-1
2391  00f3 2001          	jra	L7421
2392  00f5               L5421:
2393                     ; 120 				Nop();
2396  00f5 9d            nop
2398  00f6               L7421:
2399                     ; 118 			while(!_btst(_Pa_DisplayBusy, _Pin_DisplayBusy) && ((a_strMessage[i]!=DISPLAY_EOF) || (byGraphics >0)))
2401  00f6 b600          	ld	a,_PADR
2402  00f8 a510          	bcp	a,#16
2403  00fa 260d          	jrne	L7221
2405  00fc beff          	ld	x,_displayCmdToDisplay$L-1
2406  00fe 92d600        	ld	a,([_displayCmdToDisplay$L.w],x)
2407  0101 a1ff          	cp	a,#255
2408  0103 26f0          	jrne	L5421
2410  0105 3dfe          	tnz	_displayCmdToDisplay$L-2
2411  0107 26ec          	jrne	L5421
2412  0109               L7221:
2413                     ; 94 		while((a_strMessage[i]!=DISPLAY_EOF) || (byGraphics >0))
2415  0109 beff          	ld	x,_displayCmdToDisplay$L-1
2416  010b 92d600        	ld	a,([_displayCmdToDisplay$L.w],x)
2417  010e a1ff          	cp	a,#255
2418  0110 269f          	jrne	L5221
2420  0112 3dfe          	tnz	_displayCmdToDisplay$L-2
2421  0114 269b          	jrne	L5221
2423  0116 2025          	jra	L5521
2424  0118               L7521:
2425                     ; 130 			SPI_MoveByte(a_strMessage[i]);
2427  0118 beff          	ld	x,_displayCmdToDisplay$L-1
2428  011a 92d600        	ld	a,([_displayCmdToDisplay$L.w],x)
2429  011d cd0000        	call	_SPI_MoveByte
2431                     ; 131 			sleep(15); //15->4Mhz  80->8MHz
2433  0120 a60f          	ld	a,#15
2434  0122 b703          	ld	_sleep$L+3,a
2435  0124 a600          	ld	a,#0
2436  0126 b702          	ld	_sleep$L+2,a
2437  0128 a600          	ld	a,#0
2438  012a b701          	ld	_sleep$L+1,a
2439  012c a600          	ld	a,#0
2440  012e b700          	ld	_sleep$L,a
2441  0130 cd0000        	call	_sleep
2443                     ; 132 			i++;
2445  0133 3cff          	inc	_displayCmdToDisplay$L-1
2446  0135               L1621:
2447                     ; 128 		while(a_strMessage[i]!=0x00)
2449  0135 beff          	ld	x,_displayCmdToDisplay$L-1
2450  0137 92d600        	ld	a,([_displayCmdToDisplay$L.w],x)
2451  013a 4d            	tnz	a
2452  013b 26db          	jrne	L7521
2453  013d               L5521:
2454                     ; 136 	_bres(_Pa_Select_UA, _Pin_Select_UA);
2456  013d 1115          	bres	_PHDR,#0
2457                     ; 137 	_bres(_Pa_Select_UB, _Pin_Select_UB);
2459  013f 1315          	bres	_PHDR,#1
2460                     ; 138 	_bres(_Pa_Select_UC, _Pin_Select_UC);
2462  0141 1515          	bres	_PHDR,#2
2463                     ; 139 	_bres(_Pa_Select_U2, _Pin_Select_U2);	
2465  0143 1915          	bres	_PHDR,#4
2466                     ; 140 }
2469  0145 81            	ret
2515                     ; 143 BYTE displayKeyPressed()
2515                     ; 144 {
2516                     	switch	.text
2518                     	xref.b	_displayKeyPressed$L
2519  0146               _displayKeyPressed:
2522                     ; 145 	BYTE byKey1 = 0x00;
2524  0146 3ffe          	clr	_displayKeyPressed$L-2
2525                     ; 146 	BYTE byKey  = 0x00;
2527  0148 3fff          	clr	_displayKeyPressed$L-1
2528                     ; 153 	_bres(_Pa_Select_UA, _Pin_Select_UA);
2530  014a 1115          	bres	_PHDR,#0
2531                     ; 154 	_bres(_Pa_Select_UB, _Pin_Select_UB);
2533  014c 1315          	bres	_PHDR,#1
2534                     ; 155 	_bres(_Pa_Select_UC, _Pin_Select_UC);
2536  014e 1515          	bres	_PHDR,#2
2537                     ; 156 	_bset(_Pa_Select_U2, _Pin_Select_U2);
2539  0150 1815          	bset	_PHDR,#4
2540                     ; 160 	SPI_MoveByte(DISPLAY_FUNCTION_SET_2);
2542  0152 a61b          	ld	a,#27
2543  0154 cd0000        	call	_SPI_MoveByte
2545                     ; 161 	SPI_MoveByte(DISPLAY_READ_PORT);
2547  0157 a652          	ld	a,#82
2548  0159 cd0000        	call	_SPI_MoveByte
2551  015c 2001          	jra	L7331
2552  015e               L5331:
2553                     ; 165 		Nop();
2556  015e 9d            nop
2558  015f               L7331:
2559                     ; 163 	while(!_btst(_Pa_DisplayBusy, _Pin_DisplayBusy) )
2561  015f b600          	ld	a,_PADR
2562  0161 a510          	bcp	a,#16
2563  0163 27f9          	jreq	L5331
2564                     ; 169 	byKey1 = SPI_MoveByte(DISPLAY_HOME);
2566  0165 a60b          	ld	a,#11
2567  0167 cd0000        	call	_SPI_MoveByte
2569  016a b7fe          	ld	_displayKeyPressed$L-2,a
2570                     ; 172 	_bres(_Pa_Select_UA, _Pin_Select_UA);
2572  016c 1115          	bres	_PHDR,#0
2573                     ; 173 	_bres(_Pa_Select_UB, _Pin_Select_UB);
2575  016e 1315          	bres	_PHDR,#1
2576                     ; 174 	_bres(_Pa_Select_UC, _Pin_Select_UC);
2578  0170 1515          	bres	_PHDR,#2
2579                     ; 175 	_bres(_Pa_Select_U2, _Pin_Select_U2);	
2581  0172 1915          	bres	_PHDR,#4
2582                     ; 177 	switch(byKey1)
2584  0174 b6fe          	ld	a,_displayKeyPressed$L-2
2586                     ; 212 			break;
2587  0176 a012          	sub	a,#18
2588  0178 272a          	jreq	L5621
2589  017a a002          	sub	a,#2
2590  017c 2730          	jreq	L1721
2591  017e a004          	sub	a,#4
2592  0180 2732          	jreq	L3721
2593  0182 a00a          	sub	a,#10
2594  0184 274c          	jreq	L5031
2595  0186 a002          	sub	a,#2
2596  0188 2730          	jreq	L5721
2597  018a a004          	sub	a,#4
2598  018c 2738          	jreq	L1031
2599  018e a01a          	sub	a,#26
2600  0190 273a          	jreq	L3031
2601  0192 a002          	sub	a,#2
2602  0194 2742          	jreq	L7031
2603  0196 a004          	sub	a,#4
2604  0198 2726          	jreq	L7721
2605  019a a040          	sub	a,#64
2606  019c 270a          	jreq	L7621
2607  019e               L1131:
2608                     ; 210 		default:
2608                     ; 211 			byKey = KEY_NULL;
2610  019e a6ff          	ld	a,#255
2611  01a0 b7ff          	ld	_displayKeyPressed$L-1,a
2612                     ; 212 			break;
2614  01a2 2038          	jra	L5431
2615  01a4               L5621:
2616                     ; 180 		case 0x12:
2616                     ; 181 			byKey = KEY_ZOOM_IN;
2618  01a4 3fff          	clr	_displayKeyPressed$L-1
2619                     ; 182 			break;
2621  01a6 2034          	jra	L5431
2622  01a8               L7621:
2623                     ; 183 		case 0x88:
2623                     ; 184 			byKey = KEY_ZOOM_OUT;
2625  01a8 a601          	ld	a,#1
2626  01aa b7ff          	ld	_displayKeyPressed$L-1,a
2627                     ; 185 			break;
2629  01ac 202e          	jra	L5431
2630  01ae               L1721:
2631                     ; 186 		case 0x14:
2631                     ; 187 			byKey = KEY_GATE_LEFT;
2633  01ae a602          	ld	a,#2
2634  01b0 b7ff          	ld	_displayKeyPressed$L-1,a
2635                     ; 188 			break;
2637  01b2 2028          	jra	L5431
2638  01b4               L3721:
2639                     ; 189 		case 0x18:
2639                     ; 190 			byKey = KEY_GATE_RIGHT;
2641  01b4 a603          	ld	a,#3
2642  01b6 b7ff          	ld	_displayKeyPressed$L-1,a
2643                     ; 191 			break;
2645  01b8 2022          	jra	L5431
2646  01ba               L5721:
2647                     ; 192 		case 0x24:
2647                     ; 193 			byKey = KEY_OFF;
2649  01ba a604          	ld	a,#4
2650  01bc b7ff          	ld	_displayKeyPressed$L-1,a
2651                     ; 194 			break;
2653  01be 201c          	jra	L5431
2654  01c0               L7721:
2655                     ; 195 		case 0x48:
2655                     ; 196 			byKey = KEY_PAUSE;
2657  01c0 a605          	ld	a,#5
2658  01c2 b7ff          	ld	_displayKeyPressed$L-1,a
2659                     ; 197 			break;
2661  01c4 2016          	jra	L5431
2662  01c6               L1031:
2663                     ; 198 		case 0x28:
2663                     ; 199 			byKey = KEY_CENTER;
2665  01c6 a606          	ld	a,#6
2666  01c8 b7ff          	ld	_displayKeyPressed$L-1,a
2667                     ; 200 			break;
2669  01ca 2010          	jra	L5431
2670  01cc               L3031:
2671                     ; 201 		case 0x42:
2671                     ; 202 			byKey = KEY_F1;
2673  01cc a607          	ld	a,#7
2674  01ce b7ff          	ld	_displayKeyPressed$L-1,a
2675                     ; 203 			break;
2677  01d0 200a          	jra	L5431
2678  01d2               L5031:
2679                     ; 204 		case 0x22:
2679                     ; 205 			byKey = KEY_F2;
2681  01d2 a608          	ld	a,#8
2682  01d4 b7ff          	ld	_displayKeyPressed$L-1,a
2683                     ; 206 			break;
2685  01d6 2004          	jra	L5431
2686  01d8               L7031:
2687                     ; 207 		case 0x44:
2687                     ; 208 			byKey = KEY_F3;
2689  01d8 a609          	ld	a,#9
2690  01da b7ff          	ld	_displayKeyPressed$L-1,a
2691                     ; 209 			break;
2693  01dc               L5431:
2694                     ; 217 	return byKey;
2696  01dc b6ff          	ld	a,_displayKeyPressed$L-1
2699  01de 81            	ret
2723                     ; 224 BYTE displayIsKeyPress(void)
2723                     ; 225 {
2724                     	switch	.text
2725  01df               _displayIsKeyPress:
2728                     ; 227 	if (m_enmKeyPressed == KEY_ANY_KEYS)
2730  01df c60000        	ld	a,L5111_m_enmKeyPressed
2731  01e2 a1fe          	cp	a,#254
2732  01e4 260c          	jrne	L7531
2733                     ; 230 		if (displayKeyPressed() == KEY_RELEASED)
2735  01e6 cd0146        	call	_displayKeyPressed
2737  01e9 a120          	cp	a,#32
2738  01eb 2605          	jrne	L7531
2739                     ; 232 			m_enmKeyPressed = KEY_NULL;
2741  01ed a6ff          	ld	a,#255
2742  01ef c70000        	ld	L5111_m_enmKeyPressed,a
2743  01f2               L7531:
2744                     ; 235 	return (m_enmKeyPressed == KEY_ANY_KEYS);
2746  01f2 c60000        	ld	a,L5111_m_enmKeyPressed
2747  01f5 a1fe          	cp	a,#254
2748  01f7 2604          	jrne	L03
2749  01f9 a601          	ld	a,#1
2750  01fb 2001          	jra	L23
2751  01fd               L03:
2752  01fd 4f            	clr	a
2753  01fe               L23:
2756  01fe 81            	ret
2781                     ; 240 BYTE isDisplayKeyPressed(void)
2781                     ; 241 {
2782                     	switch	.text
2783  01ff               _isDisplayKeyPressed:
2786                     ; 242 	if (m_enmKeyPressed == KEY_ANY_KEYS)
2788  01ff c60000        	ld	a,L5111_m_enmKeyPressed
2789  0202 a1fe          	cp	a,#254
2790  0204 2609          	jrne	L3731
2791                     ; 244 		m_enmKeyPressed = KEY_NULL;
2793  0206 a6ff          	ld	a,#255
2794  0208 c70000        	ld	L5111_m_enmKeyPressed,a
2795                     ; 246 		return displayKeyPressed();
2797  020b cd0146        	call	_displayKeyPressed
2801  020e 81            	ret
2802  020f               L3731:
2803                     ; 248 	return KEY_NULL;
2805  020f a6ff          	ld	a,#255
2808  0211 81            	ret
2843                     ; 253 void displayClearCommandBuffer(void)
2843                     ; 254 {
2844                     	switch	.text
2846                     	xref.b	_displayClearCommandBuffer$L
2847  0212               _displayClearCommandBuffer:
2850                     ; 255 	WORD woIndex = 0x0200;
2852  0212 a602          	ld	a,#2
2853  0214 b7fe          	ld	_displayClearCommandBuffer$L-2,a
2854  0216 3fff          	clr	_displayClearCommandBuffer$L-1
2856  0218 2016          	jra	L7141
2857  021a               L3141:
2858                     ; 258 		m_arbyDisplayCommand[--woIndex] = 0x00;
2860  021a b6ff          	ld	a,_displayClearCommandBuffer$L-1
2861  021c befe          	ld	x,_displayClearCommandBuffer$L-2
2862  021e 4d            	tnz	a
2863  021f 2601          	jrne	L04
2864  0221 5a            	dec	x
2865  0222               L04:
2866  0222 4a            	dec	a
2867  0223 b7ff          	ld	_displayClearCommandBuffer$L-1,a
2868  0225 bffe          	ld	_displayClearCommandBuffer$L-2,x
2869  0227 b6ff          	ld	a,_displayClearCommandBuffer$L-1
2870  0229 befe          	ld	x,_displayClearCommandBuffer$L-2
2871  022b 97            	ld	x,a
2872  022c 4f            	clr	a
2873  022d d70001        	ld	(_m_arbyDisplayCommand,x),a
2874  0230               L7141:
2875                     ; 256 	while(woIndex>0)
2877  0230 b6ff          	ld	a,_displayClearCommandBuffer$L-1
2878  0232 bafe          	or	a,_displayClearCommandBuffer$L-2
2879  0234 26e4          	jrne	L3141
2880                     ; 260 }
2883  0236 81            	ret
2956                     ; 264 void displayWriteString(BYTE * a_strValue, BYTE a_byFontSize, BYTE a_byX, BYTE a_byY)
2956                     ; 265 {
2957                     	switch	.text
2959                     	xref.b	_displayWriteString$L
2960  0237               _displayWriteString:
2962  0237 b701          	ld	_displayWriteString$L+1,a
2963  0239 bf00          	ld	_displayWriteString$L,x
2965                     ; 266 	BYTE i = 0x00;
2967  023b 3fff          	clr	_displayWriteString$L-1
2968                     ; 269 	if (a_byX != DISPLAY_NULL)
2970  023d b603          	ld	a,_displayWriteString$L+3
2971  023f a1ff          	cp	a,#255
2972  0241 2724          	jreq	L1641
2973                     ; 271 		m_arbyDisplayCommand[i++] = DISPLAY_CURSOR_POSITION;
2975  0243 beff          	ld	x,_displayWriteString$L-1
2976  0245 3cff          	inc	_displayWriteString$L-1
2977  0247 a610          	ld	a,#16
2978  0249 d70001        	ld	(_m_arbyDisplayCommand,x),a
2979                     ; 272 		m_arbyDisplayCommand[i++] = a_byX;
2981  024c beff          	ld	x,_displayWriteString$L-1
2982  024e 3cff          	inc	_displayWriteString$L-1
2983  0250 b603          	ld	a,_displayWriteString$L+3
2984  0252 d70001        	ld	(_m_arbyDisplayCommand,x),a
2985                     ; 273 		m_arbyDisplayCommand[i++] = a_byY;
2987  0255 beff          	ld	x,_displayWriteString$L-1
2988  0257 3cff          	inc	_displayWriteString$L-1
2989  0259 b604          	ld	a,_displayWriteString$L+4
2990  025b d70001        	ld	(_m_arbyDisplayCommand,x),a
2991                     ; 274 		m_arbyDisplayCommand[i++] = DISPLAY_WAIT;
2993  025e beff          	ld	x,_displayWriteString$L-1
2994  0260 3cff          	inc	_displayWriteString$L-1
2995  0262 a6fe          	ld	a,#254
2996  0264 d70001        	ld	(_m_arbyDisplayCommand,x),a
2997  0267               L1641:
2998                     ; 278 	if (a_byFontSize != DISPLAY_NULL)
3000  0267 b602          	ld	a,_displayWriteString$L+2
3001  0269 a1ff          	cp	a,#255
3002  026b 2712          	jreq	L3641
3003                     ; 280 		m_arbyDisplayCommand[i++] = a_byFontSize;
3005  026d beff          	ld	x,_displayWriteString$L-1
3006  026f 3cff          	inc	_displayWriteString$L-1
3007  0271 b602          	ld	a,_displayWriteString$L+2
3008  0273 d70001        	ld	(_m_arbyDisplayCommand,x),a
3009                     ; 281 		m_arbyDisplayCommand[i++] = DISPLAY_WAIT;
3011  0276 beff          	ld	x,_displayWriteString$L-1
3012  0278 3cff          	inc	_displayWriteString$L-1
3013  027a a6fe          	ld	a,#254
3014  027c d70001        	ld	(_m_arbyDisplayCommand,x),a
3015  027f               L3641:
3016                     ; 284 	i +=memcpy((m_arbyDisplayCommand+i), a_strValue, DISPLAY_CMD_BUFFER-i);
3018  027f a680          	ld	a,#128
3019  0281 b0ff          	sub	a,_displayWriteString$L-1
3020  0283 b704          	ld	_memcpy$L+4,a
3021  0285 be00          	ld	x,_displayWriteString$L
3022  0287 bf02          	ld	_memcpy$L+2,x
3023  0289 b601          	ld	a,_displayWriteString$L+1
3024  028b b703          	ld	_memcpy$L+3,a
3025  028d a601          	ld	a,#low(_m_arbyDisplayCommand)
3026  028f ae01          	ld	x,#high(_m_arbyDisplayCommand)
3027  0291 bbff          	add	a,_displayWriteString$L-1
3028  0293 2401          	jrnc	L44
3029  0295 5c            	inc	x
3030  0296               L44:
3031  0296 cd0000        	call	_memcpy
3033  0299 bbff          	add	a,_displayWriteString$L-1
3034  029b b7ff          	ld	_displayWriteString$L-1,a
3035                     ; 286 	m_arbyDisplayCommand[i++] = DISPLAY_WAIT;
3037  029d beff          	ld	x,_displayWriteString$L-1
3038  029f 3cff          	inc	_displayWriteString$L-1
3039  02a1 a6fe          	ld	a,#254
3040  02a3 d70001        	ld	(_m_arbyDisplayCommand,x),a
3041                     ; 287 	m_arbyDisplayCommand[i++] = DISPLAY_WAIT;
3043  02a6 beff          	ld	x,_displayWriteString$L-1
3044  02a8 3cff          	inc	_displayWriteString$L-1
3045  02aa a6fe          	ld	a,#254
3046  02ac d70001        	ld	(_m_arbyDisplayCommand,x),a
3047                     ; 288 	m_arbyDisplayCommand[i++] = DISPLAY_EOF;		
3049  02af beff          	ld	x,_displayWriteString$L-1
3050  02b1 3cff          	inc	_displayWriteString$L-1
3051  02b3 a6ff          	ld	a,#255
3052  02b5 d70001        	ld	(_m_arbyDisplayCommand,x),a
3053                     ; 289 	m_arbyDisplayCommand[i++] = 0x00;
3055  02b8 beff          	ld	x,_displayWriteString$L-1
3056  02ba 3cff          	inc	_displayWriteString$L-1
3057  02bc 4f            	clr	a
3058  02bd d70001        	ld	(_m_arbyDisplayCommand,x),a
3059                     ; 291 	displayCmdToDisplay(m_arbyDisplayCommand);
3061  02c0 a601          	ld	a,#low(_m_arbyDisplayCommand)
3062  02c2 ae01          	ld	x,#high(_m_arbyDisplayCommand)
3063  02c4 cd0095        	call	_displayCmdToDisplay
3065                     ; 292 }
3068  02c7 81            	ret
3139                     ; 295 void displaySetArea(BYTE a_byLeft, BYTE a_byTop, BYTE a_byRight, BYTE a_byBottom)
3139                     ; 296 {
3140                     	switch	.text
3142                     	xref.b	_displaySetArea$L
3143  02c8               _displaySetArea:
3145  02c8 b701          	ld	_displaySetArea$L+1,a
3146  02ca bf00          	ld	_displaySetArea$L,x
3148                     ; 297 	BYTE i = 0x00;
3150  02cc 3fff          	clr	_displaySetArea$L-1
3151                     ; 298 	m_arbyDisplayCommand[i++] = DISPLAY_SET_AREA;
3153  02ce beff          	ld	x,_displaySetArea$L-1
3154  02d0 3cff          	inc	_displaySetArea$L-1
3155  02d2 a611          	ld	a,#17
3156  02d4 d70001        	ld	(_m_arbyDisplayCommand,x),a
3157                     ; 299 	m_arbyDisplayCommand[i++] = a_byLeft;
3159  02d7 beff          	ld	x,_displaySetArea$L-1
3160  02d9 3cff          	inc	_displaySetArea$L-1
3161  02db b600          	ld	a,_displaySetArea$L
3162  02dd d70001        	ld	(_m_arbyDisplayCommand,x),a
3163                     ; 300 	m_arbyDisplayCommand[i++] = a_byTop;
3165  02e0 beff          	ld	x,_displaySetArea$L-1
3166  02e2 3cff          	inc	_displaySetArea$L-1
3167  02e4 b601          	ld	a,_displaySetArea$L+1
3168  02e6 d70001        	ld	(_m_arbyDisplayCommand,x),a
3169                     ; 301 	m_arbyDisplayCommand[i++] = a_byRight;
3171  02e9 beff          	ld	x,_displaySetArea$L-1
3172  02eb 3cff          	inc	_displaySetArea$L-1
3173  02ed b602          	ld	a,_displaySetArea$L+2
3174  02ef d70001        	ld	(_m_arbyDisplayCommand,x),a
3175                     ; 302 	m_arbyDisplayCommand[i++] = a_byBottom;
3177  02f2 beff          	ld	x,_displaySetArea$L-1
3178  02f4 3cff          	inc	_displaySetArea$L-1
3179  02f6 b603          	ld	a,_displaySetArea$L+3
3180  02f8 d70001        	ld	(_m_arbyDisplayCommand,x),a
3181                     ; 303 	m_arbyDisplayCommand[i++] = DISPLAY_WAIT;
3183  02fb beff          	ld	x,_displaySetArea$L-1
3184  02fd 3cff          	inc	_displaySetArea$L-1
3185  02ff a6fe          	ld	a,#254
3186  0301 d70001        	ld	(_m_arbyDisplayCommand,x),a
3187                     ; 304 	m_arbyDisplayCommand[i++] = DISPLAY_EOF;		
3189  0304 beff          	ld	x,_displaySetArea$L-1
3190  0306 3cff          	inc	_displaySetArea$L-1
3191  0308 a6ff          	ld	a,#255
3192  030a d70001        	ld	(_m_arbyDisplayCommand,x),a
3193                     ; 306 	displayCmdToDisplay(m_arbyDisplayCommand);
3195  030d a601          	ld	a,#low(_m_arbyDisplayCommand)
3196  030f ae01          	ld	x,#high(_m_arbyDisplayCommand)
3197  0311 cd0095        	call	_displayCmdToDisplay
3199                     ; 307 }
3202  0314 81            	ret
3283                     ; 310 void displaySetOutLine(BYTE a_byLeft, BYTE a_byTop, BYTE a_byRight, BYTE a_byBottom, BYTE a_byReversed)
3283                     ; 311 {
3284                     	switch	.text
3286                     	xref.b	_displaySetOutLine$L
3287  0315               _displaySetOutLine:
3289  0315 b701          	ld	_displaySetOutLine$L+1,a
3290  0317 bf00          	ld	_displaySetOutLine$L,x
3292                     ; 312 	BYTE i = 0x00;
3294  0319 3fff          	clr	_displaySetOutLine$L-1
3295                     ; 313 	m_arbyDisplayCommand[i++] = DISPLAY_SET_OUTLINE;
3297  031b beff          	ld	x,_displaySetOutLine$L-1
3298  031d 3cff          	inc	_displaySetOutLine$L-1
3299  031f a614          	ld	a,#20
3300  0321 d70001        	ld	(_m_arbyDisplayCommand,x),a
3301                     ; 314 	m_arbyDisplayCommand[i++] = a_byLeft;
3303  0324 beff          	ld	x,_displaySetOutLine$L-1
3304  0326 3cff          	inc	_displaySetOutLine$L-1
3305  0328 b600          	ld	a,_displaySetOutLine$L
3306  032a d70001        	ld	(_m_arbyDisplayCommand,x),a
3307                     ; 315 	m_arbyDisplayCommand[i++] = a_byTop;
3309  032d beff          	ld	x,_displaySetOutLine$L-1
3310  032f 3cff          	inc	_displaySetOutLine$L-1
3311  0331 b601          	ld	a,_displaySetOutLine$L+1
3312  0333 d70001        	ld	(_m_arbyDisplayCommand,x),a
3313                     ; 316 	m_arbyDisplayCommand[i++] = a_byRight;
3315  0336 beff          	ld	x,_displaySetOutLine$L-1
3316  0338 3cff          	inc	_displaySetOutLine$L-1
3317  033a b602          	ld	a,_displaySetOutLine$L+2
3318  033c d70001        	ld	(_m_arbyDisplayCommand,x),a
3319                     ; 317 	m_arbyDisplayCommand[i++] = a_byBottom;
3321  033f beff          	ld	x,_displaySetOutLine$L-1
3322  0341 3cff          	inc	_displaySetOutLine$L-1
3323  0343 b603          	ld	a,_displaySetOutLine$L+3
3324  0345 d70001        	ld	(_m_arbyDisplayCommand,x),a
3325                     ; 318 	m_arbyDisplayCommand[i++] = DISPLAY_WAIT;
3327  0348 beff          	ld	x,_displaySetOutLine$L-1
3328  034a 3cff          	inc	_displaySetOutLine$L-1
3329  034c a6fe          	ld	a,#254
3330  034e d70001        	ld	(_m_arbyDisplayCommand,x),a
3331                     ; 319 	m_arbyDisplayCommand[i++] = DISPLAY_EOF;		
3333  0351 beff          	ld	x,_displaySetOutLine$L-1
3334  0353 3cff          	inc	_displaySetOutLine$L-1
3335  0355 a6ff          	ld	a,#255
3336  0357 d70001        	ld	(_m_arbyDisplayCommand,x),a
3337                     ; 321 	displayCmdToDisplay(m_arbyDisplayCommand);
3339  035a a601          	ld	a,#low(_m_arbyDisplayCommand)
3340  035c ae01          	ld	x,#high(_m_arbyDisplayCommand)
3341  035e cd0095        	call	_displayCmdToDisplay
3343                     ; 323 	if (a_byReversed)
3345  0361 3d04          	tnz	_displaySetOutLine$L+4
3346  0363 2712          	jreq	L5651
3347                     ; 325 		displayInvertArea(a_byLeft + 1, a_byTop + 1, a_byRight - 1, a_byBottom - 1);
3349  0365 b603          	ld	a,_displaySetOutLine$L+3
3350  0367 4a            	dec	a
3351  0368 b703          	ld	_displayInvertArea$L+3,a
3352  036a b602          	ld	a,_displaySetOutLine$L+2
3353  036c 4a            	dec	a
3354  036d b702          	ld	_displayInvertArea$L+2,a
3355  036f b601          	ld	a,_displaySetOutLine$L+1
3356  0371 4c            	inc	a
3357  0372 be00          	ld	x,_displaySetOutLine$L
3358  0374 5c            	inc	x
3359  0375 ad4e          	call	_displayInvertArea
3361  0377               L5651:
3362                     ; 327 }
3365  0377 81            	ret
3436                     ; 330 void displayClearArea(BYTE a_byLeft, BYTE a_byTop, BYTE a_byRight, BYTE a_byBottom)
3436                     ; 331 {
3437                     	switch	.text
3439                     	xref.b	_displayClearArea$L
3440  0378               _displayClearArea:
3442  0378 b701          	ld	_displayClearArea$L+1,a
3443  037a bf00          	ld	_displayClearArea$L,x
3445                     ; 332 	BYTE i = 0x00;
3447  037c 3fff          	clr	_displayClearArea$L-1
3448                     ; 333 	m_arbyDisplayCommand[i++] = DISPLAY_CLEAR_AREA;
3450  037e beff          	ld	x,_displayClearArea$L-1
3451  0380 3cff          	inc	_displayClearArea$L-1
3452  0382 a612          	ld	a,#18
3453  0384 d70001        	ld	(_m_arbyDisplayCommand,x),a
3454                     ; 334 	m_arbyDisplayCommand[i++] = a_byLeft;
3456  0387 beff          	ld	x,_displayClearArea$L-1
3457  0389 3cff          	inc	_displayClearArea$L-1
3458  038b b600          	ld	a,_displayClearArea$L
3459  038d d70001        	ld	(_m_arbyDisplayCommand,x),a
3460                     ; 335 	m_arbyDisplayCommand[i++] = a_byTop;
3462  0390 beff          	ld	x,_displayClearArea$L-1
3463  0392 3cff          	inc	_displayClearArea$L-1
3464  0394 b601          	ld	a,_displayClearArea$L+1
3465  0396 d70001        	ld	(_m_arbyDisplayCommand,x),a
3466                     ; 336 	m_arbyDisplayCommand[i++] = a_byRight;
3468  0399 beff          	ld	x,_displayClearArea$L-1
3469  039b 3cff          	inc	_displayClearArea$L-1
3470  039d b602          	ld	a,_displayClearArea$L+2
3471  039f d70001        	ld	(_m_arbyDisplayCommand,x),a
3472                     ; 337 	m_arbyDisplayCommand[i++] = a_byBottom;
3474  03a2 beff          	ld	x,_displayClearArea$L-1
3475  03a4 3cff          	inc	_displayClearArea$L-1
3476  03a6 b603          	ld	a,_displayClearArea$L+3
3477  03a8 d70001        	ld	(_m_arbyDisplayCommand,x),a
3478                     ; 338 	m_arbyDisplayCommand[i++] = DISPLAY_WAIT;
3480  03ab beff          	ld	x,_displayClearArea$L-1
3481  03ad 3cff          	inc	_displayClearArea$L-1
3482  03af a6fe          	ld	a,#254
3483  03b1 d70001        	ld	(_m_arbyDisplayCommand,x),a
3484                     ; 339 	m_arbyDisplayCommand[i++] = DISPLAY_EOF;		
3486  03b4 beff          	ld	x,_displayClearArea$L-1
3487  03b6 3cff          	inc	_displayClearArea$L-1
3488  03b8 a6ff          	ld	a,#255
3489  03ba d70001        	ld	(_m_arbyDisplayCommand,x),a
3490                     ; 341 	displayCmdToDisplay(m_arbyDisplayCommand);
3492  03bd a601          	ld	a,#low(_m_arbyDisplayCommand)
3493  03bf ae01          	ld	x,#high(_m_arbyDisplayCommand)
3494  03c1 cd0095        	call	_displayCmdToDisplay
3496                     ; 342 }
3499  03c4 81            	ret
3570                     ; 345 void displayInvertArea(BYTE a_byLeft, BYTE a_byTop, BYTE a_byRight, BYTE a_byBottom)
3570                     ; 346 {
3571                     	switch	.text
3573                     	xref.b	_displayInvertArea$L
3574  03c5               _displayInvertArea:
3576  03c5 b701          	ld	_displayInvertArea$L+1,a
3577  03c7 bf00          	ld	_displayInvertArea$L,x
3579                     ; 347 	BYTE i = 0x00;
3581  03c9 3fff          	clr	_displayInvertArea$L-1
3582                     ; 348 	m_arbyDisplayCommand[i++] = DISPLAY_INVERT_AREA;
3584  03cb beff          	ld	x,_displayInvertArea$L-1
3585  03cd 3cff          	inc	_displayInvertArea$L-1
3586  03cf a613          	ld	a,#19
3587  03d1 d70001        	ld	(_m_arbyDisplayCommand,x),a
3588                     ; 349 	m_arbyDisplayCommand[i++] = a_byLeft;
3590  03d4 beff          	ld	x,_displayInvertArea$L-1
3591  03d6 3cff          	inc	_displayInvertArea$L-1
3592  03d8 b600          	ld	a,_displayInvertArea$L
3593  03da d70001        	ld	(_m_arbyDisplayCommand,x),a
3594                     ; 350 	m_arbyDisplayCommand[i++] = a_byTop;
3596  03dd beff          	ld	x,_displayInvertArea$L-1
3597  03df 3cff          	inc	_displayInvertArea$L-1
3598  03e1 b601          	ld	a,_displayInvertArea$L+1
3599  03e3 d70001        	ld	(_m_arbyDisplayCommand,x),a
3600                     ; 351 	m_arbyDisplayCommand[i++] = (a_byRight>124?124:a_byRight);
3602  03e6 b602          	ld	a,_displayInvertArea$L+2
3603  03e8 a17d          	cp	a,#125
3604  03ea 2504          	jrult	L65
3605  03ec a67c          	ld	a,#124
3606  03ee 2002          	jra	L06
3607  03f0               L65:
3608  03f0 b602          	ld	a,_displayInvertArea$L+2
3609  03f2               L06:
3610  03f2 beff          	ld	x,_displayInvertArea$L-1
3611  03f4 3cff          	inc	_displayInvertArea$L-1
3612  03f6 d70001        	ld	(_m_arbyDisplayCommand,x),a
3613                     ; 352 	m_arbyDisplayCommand[i++] = (a_byBottom>62?62:a_byBottom);
3615  03f9 b603          	ld	a,_displayInvertArea$L+3
3616  03fb a13f          	cp	a,#63
3617  03fd 2504          	jrult	L26
3618  03ff a63e          	ld	a,#62
3619  0401 2002          	jra	L46
3620  0403               L26:
3621  0403 b603          	ld	a,_displayInvertArea$L+3
3622  0405               L46:
3623  0405 beff          	ld	x,_displayInvertArea$L-1
3624  0407 3cff          	inc	_displayInvertArea$L-1
3625  0409 d70001        	ld	(_m_arbyDisplayCommand,x),a
3626                     ; 353 	m_arbyDisplayCommand[i++] = DISPLAY_WAIT;
3628  040c beff          	ld	x,_displayInvertArea$L-1
3629  040e 3cff          	inc	_displayInvertArea$L-1
3630  0410 a6fe          	ld	a,#254
3631  0412 d70001        	ld	(_m_arbyDisplayCommand,x),a
3632                     ; 354 	m_arbyDisplayCommand[i++] = DISPLAY_EOF;		
3634  0415 beff          	ld	x,_displayInvertArea$L-1
3635  0417 3cff          	inc	_displayInvertArea$L-1
3636  0419 a6ff          	ld	a,#255
3637  041b d70001        	ld	(_m_arbyDisplayCommand,x),a
3638                     ; 356 	displayCmdToDisplay(m_arbyDisplayCommand);
3640  041e a601          	ld	a,#low(_m_arbyDisplayCommand)
3641  0420 ae01          	ld	x,#high(_m_arbyDisplayCommand)
3642  0422 cd0095        	call	_displayCmdToDisplay
3644                     ; 357 }
3647  0425 81            	ret
3700                     ; 360 void displayDrawVerticalLine(BYTE a_byX, BYTE a_byTop, BYTE a_byLength)
3700                     ; 361 {
3701                     	switch	.text
3703                     	xref.b	_displayDrawVerticalLine$L
3704  0426               _displayDrawVerticalLine:
3706  0426 b701          	ld	_displayDrawVerticalLine$L+1,a
3707  0428 bf00          	ld	_displayDrawVerticalLine$L,x
3709                     ; 362 	displaySetArea(a_byX, a_byTop, a_byX, a_byTop + a_byLength);
3711  042a bb02          	add	a,_displayDrawVerticalLine$L+2
3712  042c b703          	ld	_displaySetArea$L+3,a
3713  042e b600          	ld	a,_displayDrawVerticalLine$L
3714  0430 b702          	ld	_displaySetArea$L+2,a
3715  0432 b601          	ld	a,_displayDrawVerticalLine$L+1
3716  0434 be00          	ld	x,_displayDrawVerticalLine$L
3717  0436 cd02c8        	call	_displaySetArea
3719                     ; 363 }
3722  0439 81            	ret
3775                     ; 366 void displayDrawHorizontalLine(BYTE a_byY, BYTE a_byLeft, BYTE a_byWidth)
3775                     ; 367 {
3776                     	switch	.text
3778                     	xref.b	_displayDrawHorizontalLine$L
3779  043a               _displayDrawHorizontalLine:
3781  043a b701          	ld	_displayDrawHorizontalLine$L+1,a
3782  043c bf00          	ld	_displayDrawHorizontalLine$L,x
3784                     ; 368 	displaySetArea(a_byLeft, a_byY, a_byLeft+a_byWidth, a_byY);
3786  043e bf03          	ld	_displaySetArea$L+3,x
3787  0440 bb02          	add	a,_displayDrawHorizontalLine$L+2
3788  0442 b702          	ld	_displaySetArea$L+2,a
3789  0444 b600          	ld	a,_displayDrawHorizontalLine$L
3790  0446 be01          	ld	x,_displayDrawHorizontalLine$L+1
3791  0448 cd02c8        	call	_displaySetArea
3793                     ; 369 }
3796  044b 81            	ret
3858                     ; 372 void displayDrawLed(BYTE a_byX, BYTE a_byY, BYTE a_byFilled)
3858                     ; 373 {
3859                     	switch	.text
3861                     	xref.b	_displayDrawLed$L
3862  044c               _displayDrawLed:
3864  044c b701          	ld	_displayDrawLed$L+1,a
3865  044e bf00          	ld	_displayDrawLed$L,x
3867                     ; 374 	BYTE i = 0x00;
3869  0450 3fff          	clr	_displayDrawLed$L-1
3870                     ; 377 	if (a_byX != DISPLAY_NULL)
3872  0452 b600          	ld	a,_displayDrawLed$L
3873  0454 a1ff          	cp	a,#255
3874  0456 2726          	jreq	L1771
3875                     ; 379 		m_arbyDisplayCommand[i++] = DISPLAY_CURSOR_POSITION;
3877  0458 beff          	ld	x,_displayDrawLed$L-1
3878  045a 3cff          	inc	_displayDrawLed$L-1
3879  045c a610          	ld	a,#16
3880  045e d70001        	ld	(_m_arbyDisplayCommand,x),a
3881                     ; 380 		m_arbyDisplayCommand[i++] = a_byX - 2;
3883  0461 b600          	ld	a,_displayDrawLed$L
3884  0463 a002          	sub	a,#2
3885  0465 beff          	ld	x,_displayDrawLed$L-1
3886  0467 3cff          	inc	_displayDrawLed$L-1
3887  0469 d70001        	ld	(_m_arbyDisplayCommand,x),a
3888                     ; 381 		m_arbyDisplayCommand[i++] = a_byY;
3890  046c beff          	ld	x,_displayDrawLed$L-1
3891  046e 3cff          	inc	_displayDrawLed$L-1
3892  0470 b601          	ld	a,_displayDrawLed$L+1
3893  0472 d70001        	ld	(_m_arbyDisplayCommand,x),a
3894                     ; 382 		m_arbyDisplayCommand[i++] = DISPLAY_WAIT;
3896  0475 beff          	ld	x,_displayDrawLed$L-1
3897  0477 3cff          	inc	_displayDrawLed$L-1
3898  0479 a6fe          	ld	a,#254
3899  047b d70001        	ld	(_m_arbyDisplayCommand,x),a
3900  047e               L1771:
3901                     ; 384 	m_arbyDisplayCommand[i++] = DISPLAY_GRAPHIC_WRITE;
3903  047e beff          	ld	x,_displayDrawLed$L-1
3904  0480 3cff          	inc	_displayDrawLed$L-1
3905  0482 a618          	ld	a,#24
3906  0484 d70001        	ld	(_m_arbyDisplayCommand,x),a
3907                     ; 385     m_arbyDisplayCommand[i++] = 8; //Length
3909  0487 beff          	ld	x,_displayDrawLed$L-1
3910  0489 3cff          	inc	_displayDrawLed$L-1
3911  048b a608          	ld	a,#8
3912  048d d70001        	ld	(_m_arbyDisplayCommand,x),a
3913                     ; 388 	if (a_byFilled)
3915  0490 3d02          	tnz	_displayDrawLed$L+2
3916  0492 2748          	jreq	L3771
3917                     ; 390 		m_arbyDisplayCommand[i++] = 0x30;
3919  0494 beff          	ld	x,_displayDrawLed$L-1
3920  0496 3cff          	inc	_displayDrawLed$L-1
3921  0498 a630          	ld	a,#48
3922  049a d70001        	ld	(_m_arbyDisplayCommand,x),a
3923                     ; 391 		m_arbyDisplayCommand[i++] = 0x78;
3925  049d beff          	ld	x,_displayDrawLed$L-1
3926  049f 3cff          	inc	_displayDrawLed$L-1
3927  04a1 a678          	ld	a,#120
3928  04a3 d70001        	ld	(_m_arbyDisplayCommand,x),a
3929                     ; 392 		m_arbyDisplayCommand[i++] = 0xFC;
3931  04a6 beff          	ld	x,_displayDrawLed$L-1
3932  04a8 3cff          	inc	_displayDrawLed$L-1
3933  04aa a6fc          	ld	a,#252
3934  04ac d70001        	ld	(_m_arbyDisplayCommand,x),a
3935                     ; 393 		m_arbyDisplayCommand[i++] = 0xFC;
3937  04af beff          	ld	x,_displayDrawLed$L-1
3938  04b1 3cff          	inc	_displayDrawLed$L-1
3939  04b3 a6fc          	ld	a,#252
3940  04b5 d70001        	ld	(_m_arbyDisplayCommand,x),a
3941                     ; 394 		m_arbyDisplayCommand[i++] = 0x78;
3943  04b8 beff          	ld	x,_displayDrawLed$L-1
3944  04ba 3cff          	inc	_displayDrawLed$L-1
3945  04bc a678          	ld	a,#120
3946  04be d70001        	ld	(_m_arbyDisplayCommand,x),a
3947                     ; 395 		m_arbyDisplayCommand[i++] = 0x30;
3949  04c1 beff          	ld	x,_displayDrawLed$L-1
3950  04c3 3cff          	inc	_displayDrawLed$L-1
3951  04c5 a630          	ld	a,#48
3952  04c7 d70001        	ld	(_m_arbyDisplayCommand,x),a
3953                     ; 396 		m_arbyDisplayCommand[i++] = 0x00;
3955  04ca beff          	ld	x,_displayDrawLed$L-1
3956  04cc 3cff          	inc	_displayDrawLed$L-1
3957  04ce 4f            	clr	a
3958  04cf d70001        	ld	(_m_arbyDisplayCommand,x),a
3959                     ; 397 		m_arbyDisplayCommand[i++] = 0x00;		
3961  04d2 beff          	ld	x,_displayDrawLed$L-1
3962  04d4 3cff          	inc	_displayDrawLed$L-1
3963  04d6 4f            	clr	a
3964  04d7 d70001        	ld	(_m_arbyDisplayCommand,x),a
3966  04da 2046          	jra	L5771
3967  04dc               L3771:
3968                     ; 401 		m_arbyDisplayCommand[i++] = 0x30;
3970  04dc beff          	ld	x,_displayDrawLed$L-1
3971  04de 3cff          	inc	_displayDrawLed$L-1
3972  04e0 a630          	ld	a,#48
3973  04e2 d70001        	ld	(_m_arbyDisplayCommand,x),a
3974                     ; 402 		m_arbyDisplayCommand[i++] = 0x48;
3976  04e5 beff          	ld	x,_displayDrawLed$L-1
3977  04e7 3cff          	inc	_displayDrawLed$L-1
3978  04e9 a648          	ld	a,#72
3979  04eb d70001        	ld	(_m_arbyDisplayCommand,x),a
3980                     ; 403 		m_arbyDisplayCommand[i++] = 0x84;
3982  04ee beff          	ld	x,_displayDrawLed$L-1
3983  04f0 3cff          	inc	_displayDrawLed$L-1
3984  04f2 a684          	ld	a,#132
3985  04f4 d70001        	ld	(_m_arbyDisplayCommand,x),a
3986                     ; 404 		m_arbyDisplayCommand[i++] = 0x84;
3988  04f7 beff          	ld	x,_displayDrawLed$L-1
3989  04f9 3cff          	inc	_displayDrawLed$L-1
3990  04fb a684          	ld	a,#132
3991  04fd d70001        	ld	(_m_arbyDisplayCommand,x),a
3992                     ; 405 		m_arbyDisplayCommand[i++] = 0x48;
3994  0500 beff          	ld	x,_displayDrawLed$L-1
3995  0502 3cff          	inc	_displayDrawLed$L-1
3996  0504 a648          	ld	a,#72
3997  0506 d70001        	ld	(_m_arbyDisplayCommand,x),a
3998                     ; 406 		m_arbyDisplayCommand[i++] = 0x30;
4000  0509 beff          	ld	x,_displayDrawLed$L-1
4001  050b 3cff          	inc	_displayDrawLed$L-1
4002  050d a630          	ld	a,#48
4003  050f d70001        	ld	(_m_arbyDisplayCommand,x),a
4004                     ; 407 		m_arbyDisplayCommand[i++] = 0x00;
4006  0512 beff          	ld	x,_displayDrawLed$L-1
4007  0514 3cff          	inc	_displayDrawLed$L-1
4008  0516 4f            	clr	a
4009  0517 d70001        	ld	(_m_arbyDisplayCommand,x),a
4010                     ; 408 		m_arbyDisplayCommand[i++] = 0x00;		
4012  051a beff          	ld	x,_displayDrawLed$L-1
4013  051c 3cff          	inc	_displayDrawLed$L-1
4014  051e 4f            	clr	a
4015  051f d70001        	ld	(_m_arbyDisplayCommand,x),a
4016  0522               L5771:
4017                     ; 411 	m_arbyDisplayCommand[i++] = DISPLAY_WAIT;
4019  0522 beff          	ld	x,_displayDrawLed$L-1
4020  0524 3cff          	inc	_displayDrawLed$L-1
4021  0526 a6fe          	ld	a,#254
4022  0528 d70001        	ld	(_m_arbyDisplayCommand,x),a
4023                     ; 412 	m_arbyDisplayCommand[i++] = DISPLAY_EOF;		
4025  052b beff          	ld	x,_displayDrawLed$L-1
4026  052d 3cff          	inc	_displayDrawLed$L-1
4027  052f a6ff          	ld	a,#255
4028  0531 d70001        	ld	(_m_arbyDisplayCommand,x),a
4029                     ; 414 	displayCmdToDisplay(m_arbyDisplayCommand);	
4031  0534 a601          	ld	a,#low(_m_arbyDisplayCommand)
4032  0536 ae01          	ld	x,#high(_m_arbyDisplayCommand)
4033  0538 cd0095        	call	_displayCmdToDisplay
4035                     ; 415 }
4038  053b 81            	ret
4110                     ; 419 void displayDrawSelector(BYTE a_byX, BYTE a_byY, BYTE a_byFilled, BYTE a_byReversed)
4110                     ; 420 {
4111                     	switch	.text
4113                     	xref.b	_displayDrawSelector$L
4114  053c               _displayDrawSelector:
4116  053c b701          	ld	_displayDrawSelector$L+1,a
4117  053e bf00          	ld	_displayDrawSelector$L,x
4119                     ; 421 	BYTE i = 0x00;
4121  0540 3fff          	clr	_displayDrawSelector$L-1
4122                     ; 423 	i=0;
4124  0542 3fff          	clr	_displayDrawSelector$L-1
4125                     ; 426 	if (a_byX != DISPLAY_NULL)
4127  0544 b600          	ld	a,_displayDrawSelector$L
4128  0546 a1ff          	cp	a,#255
4129  0548 2725          	jreq	L5302
4130                     ; 428 		m_arbyDisplayCommand[i++] = DISPLAY_CURSOR_POSITION;
4132  054a beff          	ld	x,_displayDrawSelector$L-1
4133  054c 3cff          	inc	_displayDrawSelector$L-1
4134  054e a610          	ld	a,#16
4135  0550 d70001        	ld	(_m_arbyDisplayCommand,x),a
4136                     ; 429 		m_arbyDisplayCommand[i++] = a_byX-1;
4138  0553 b600          	ld	a,_displayDrawSelector$L
4139  0555 4a            	dec	a
4140  0556 beff          	ld	x,_displayDrawSelector$L-1
4141  0558 3cff          	inc	_displayDrawSelector$L-1
4142  055a d70001        	ld	(_m_arbyDisplayCommand,x),a
4143                     ; 430 		m_arbyDisplayCommand[i++] = a_byY;
4145  055d beff          	ld	x,_displayDrawSelector$L-1
4146  055f 3cff          	inc	_displayDrawSelector$L-1
4147  0561 b601          	ld	a,_displayDrawSelector$L+1
4148  0563 d70001        	ld	(_m_arbyDisplayCommand,x),a
4149                     ; 431 		m_arbyDisplayCommand[i++] = DISPLAY_WAIT;
4151  0566 beff          	ld	x,_displayDrawSelector$L-1
4152  0568 3cff          	inc	_displayDrawSelector$L-1
4153  056a a6fe          	ld	a,#254
4154  056c d70001        	ld	(_m_arbyDisplayCommand,x),a
4155  056f               L5302:
4156                     ; 434 	m_arbyDisplayCommand[i++] = DISPLAY_GRAPHIC_WRITE;
4158  056f beff          	ld	x,_displayDrawSelector$L-1
4159  0571 3cff          	inc	_displayDrawSelector$L-1
4160  0573 a618          	ld	a,#24
4161  0575 d70001        	ld	(_m_arbyDisplayCommand,x),a
4162                     ; 437 	if (a_byReversed)
4164  0578 3d03          	tnz	_displayDrawSelector$L+3
4165  057a 2752          	jreq	L7302
4166                     ; 439 		if (a_byFilled)
4168  057c 3d02          	tnz	_displayDrawSelector$L+2
4169  057e 2727          	jreq	L1402
4170                     ; 441 			m_arbyDisplayCommand[i++] = 3; //Length
4172  0580 beff          	ld	x,_displayDrawSelector$L-1
4173  0582 3cff          	inc	_displayDrawSelector$L-1
4174  0584 a603          	ld	a,#3
4175  0586 d70001        	ld	(_m_arbyDisplayCommand,x),a
4176                     ; 442 			m_arbyDisplayCommand[i++] = 0xFE;
4178  0589 beff          	ld	x,_displayDrawSelector$L-1
4179  058b 3cff          	inc	_displayDrawSelector$L-1
4180  058d a6fe          	ld	a,#254
4181  058f d70001        	ld	(_m_arbyDisplayCommand,x),a
4182                     ; 443 			m_arbyDisplayCommand[i++] = 0xFF;
4184  0592 beff          	ld	x,_displayDrawSelector$L-1
4185  0594 3cff          	inc	_displayDrawSelector$L-1
4186  0596 a6ff          	ld	a,#255
4187  0598 d70001        	ld	(_m_arbyDisplayCommand,x),a
4188                     ; 444 			m_arbyDisplayCommand[i++] = 0xFE;
4190  059b beff          	ld	x,_displayDrawSelector$L-1
4191  059d 3cff          	inc	_displayDrawSelector$L-1
4192  059f a6fe          	ld	a,#254
4193  05a1 d70001        	ld	(_m_arbyDisplayCommand,x),a
4195  05a4 cc0672        	jp	L5402
4196  05a7               L1402:
4197                     ; 449 			m_arbyDisplayCommand[i++] = 3; //Length
4199  05a7 beff          	ld	x,_displayDrawSelector$L-1
4200  05a9 3cff          	inc	_displayDrawSelector$L-1
4201  05ab a603          	ld	a,#3
4202  05ad d70001        	ld	(_m_arbyDisplayCommand,x),a
4203                     ; 450 			m_arbyDisplayCommand[i++] = 0xFE;
4205  05b0 beff          	ld	x,_displayDrawSelector$L-1
4206  05b2 3cff          	inc	_displayDrawSelector$L-1
4207  05b4 a6fe          	ld	a,#254
4208  05b6 d70001        	ld	(_m_arbyDisplayCommand,x),a
4209                     ; 451 			m_arbyDisplayCommand[i++] = 0x81;
4211  05b9 beff          	ld	x,_displayDrawSelector$L-1
4212  05bb 3cff          	inc	_displayDrawSelector$L-1
4213  05bd a681          	ld	a,#129
4214  05bf d70001        	ld	(_m_arbyDisplayCommand,x),a
4215                     ; 452 			m_arbyDisplayCommand[i++] = 0xFE;
4217  05c2 beff          	ld	x,_displayDrawSelector$L-1
4218  05c4 3cff          	inc	_displayDrawSelector$L-1
4219  05c6 a6fe          	ld	a,#254
4220  05c8 d70001        	ld	(_m_arbyDisplayCommand,x),a
4221  05cb cc0672        	jp	L5402
4222  05ce               L7302:
4223                     ; 457 		if (a_byFilled)
4225  05ce 3d02          	tnz	_displayDrawSelector$L+2
4226  05d0 2751          	jreq	L7402
4227                     ; 459 			m_arbyDisplayCommand[i++] = 8; //Length
4229  05d2 beff          	ld	x,_displayDrawSelector$L-1
4230  05d4 3cff          	inc	_displayDrawSelector$L-1
4231  05d6 a608          	ld	a,#8
4232  05d8 d70001        	ld	(_m_arbyDisplayCommand,x),a
4233                     ; 460 			m_arbyDisplayCommand[i++] = 0x00;
4235  05db beff          	ld	x,_displayDrawSelector$L-1
4236  05dd 3cff          	inc	_displayDrawSelector$L-1
4237  05df 4f            	clr	a
4238  05e0 d70001        	ld	(_m_arbyDisplayCommand,x),a
4239                     ; 461 			m_arbyDisplayCommand[i++] = 0x10;
4241  05e3 beff          	ld	x,_displayDrawSelector$L-1
4242  05e5 3cff          	inc	_displayDrawSelector$L-1
4243  05e7 a610          	ld	a,#16
4244  05e9 d70001        	ld	(_m_arbyDisplayCommand,x),a
4245                     ; 462 			m_arbyDisplayCommand[i++] = 0x38;
4247  05ec beff          	ld	x,_displayDrawSelector$L-1
4248  05ee 3cff          	inc	_displayDrawSelector$L-1
4249  05f0 a638          	ld	a,#56
4250  05f2 d70001        	ld	(_m_arbyDisplayCommand,x),a
4251                     ; 463 			m_arbyDisplayCommand[i++] = 0x38;
4253  05f5 beff          	ld	x,_displayDrawSelector$L-1
4254  05f7 3cff          	inc	_displayDrawSelector$L-1
4255  05f9 a638          	ld	a,#56
4256  05fb d70001        	ld	(_m_arbyDisplayCommand,x),a
4257                     ; 464 			m_arbyDisplayCommand[i++] = 0x38;
4259  05fe beff          	ld	x,_displayDrawSelector$L-1
4260  0600 3cff          	inc	_displayDrawSelector$L-1
4261  0602 a638          	ld	a,#56
4262  0604 d70001        	ld	(_m_arbyDisplayCommand,x),a
4263                     ; 465 			m_arbyDisplayCommand[i++] = 0x38;
4265  0607 beff          	ld	x,_displayDrawSelector$L-1
4266  0609 3cff          	inc	_displayDrawSelector$L-1
4267  060b a638          	ld	a,#56
4268  060d d70001        	ld	(_m_arbyDisplayCommand,x),a
4269                     ; 466 			m_arbyDisplayCommand[i++] = 0x38;
4271  0610 beff          	ld	x,_displayDrawSelector$L-1
4272  0612 3cff          	inc	_displayDrawSelector$L-1
4273  0614 a638          	ld	a,#56
4274  0616 d70001        	ld	(_m_arbyDisplayCommand,x),a
4275                     ; 467 			m_arbyDisplayCommand[i++] = 0x00;
4277  0619 beff          	ld	x,_displayDrawSelector$L-1
4278  061b 3cff          	inc	_displayDrawSelector$L-1
4279  061d 4f            	clr	a
4280  061e d70001        	ld	(_m_arbyDisplayCommand,x),a
4282  0621 204f          	jra	L5402
4283  0623               L7402:
4284                     ; 471 			m_arbyDisplayCommand[i++] = 8; //Length
4286  0623 beff          	ld	x,_displayDrawSelector$L-1
4287  0625 3cff          	inc	_displayDrawSelector$L-1
4288  0627 a608          	ld	a,#8
4289  0629 d70001        	ld	(_m_arbyDisplayCommand,x),a
4290                     ; 472 			m_arbyDisplayCommand[i++] = 0x00;
4292  062c beff          	ld	x,_displayDrawSelector$L-1
4293  062e 3cff          	inc	_displayDrawSelector$L-1
4294  0630 4f            	clr	a
4295  0631 d70001        	ld	(_m_arbyDisplayCommand,x),a
4296                     ; 473 			m_arbyDisplayCommand[i++] = 0x10;
4298  0634 beff          	ld	x,_displayDrawSelector$L-1
4299  0636 3cff          	inc	_displayDrawSelector$L-1
4300  0638 a610          	ld	a,#16
4301  063a d70001        	ld	(_m_arbyDisplayCommand,x),a
4302                     ; 474 			m_arbyDisplayCommand[i++] = 0x28;
4304  063d beff          	ld	x,_displayDrawSelector$L-1
4305  063f 3cff          	inc	_displayDrawSelector$L-1
4306  0641 a628          	ld	a,#40
4307  0643 d70001        	ld	(_m_arbyDisplayCommand,x),a
4308                     ; 475 			m_arbyDisplayCommand[i++] = 0x28;
4310  0646 beff          	ld	x,_displayDrawSelector$L-1
4311  0648 3cff          	inc	_displayDrawSelector$L-1
4312  064a a628          	ld	a,#40
4313  064c d70001        	ld	(_m_arbyDisplayCommand,x),a
4314                     ; 476 			m_arbyDisplayCommand[i++] = 0x28;
4316  064f beff          	ld	x,_displayDrawSelector$L-1
4317  0651 3cff          	inc	_displayDrawSelector$L-1
4318  0653 a628          	ld	a,#40
4319  0655 d70001        	ld	(_m_arbyDisplayCommand,x),a
4320                     ; 477 			m_arbyDisplayCommand[i++] = 0x28;
4322  0658 beff          	ld	x,_displayDrawSelector$L-1
4323  065a 3cff          	inc	_displayDrawSelector$L-1
4324  065c a628          	ld	a,#40
4325  065e d70001        	ld	(_m_arbyDisplayCommand,x),a
4326                     ; 478 			m_arbyDisplayCommand[i++] = 0x38;
4328  0661 beff          	ld	x,_displayDrawSelector$L-1
4329  0663 3cff          	inc	_displayDrawSelector$L-1
4330  0665 a638          	ld	a,#56
4331  0667 d70001        	ld	(_m_arbyDisplayCommand,x),a
4332                     ; 479 			m_arbyDisplayCommand[i++] = 0x00;
4334  066a beff          	ld	x,_displayDrawSelector$L-1
4335  066c 3cff          	inc	_displayDrawSelector$L-1
4336  066e 4f            	clr	a
4337  066f d70001        	ld	(_m_arbyDisplayCommand,x),a
4338  0672               L5402:
4339                     ; 483 	m_arbyDisplayCommand[i++] = DISPLAY_WAIT;
4341  0672 beff          	ld	x,_displayDrawSelector$L-1
4342  0674 3cff          	inc	_displayDrawSelector$L-1
4343  0676 a6fe          	ld	a,#254
4344  0678 d70001        	ld	(_m_arbyDisplayCommand,x),a
4345                     ; 484 	m_arbyDisplayCommand[i++] = DISPLAY_EOF;		
4347  067b beff          	ld	x,_displayDrawSelector$L-1
4348  067d 3cff          	inc	_displayDrawSelector$L-1
4349  067f a6ff          	ld	a,#255
4350  0681 d70001        	ld	(_m_arbyDisplayCommand,x),a
4351                     ; 486 	displayCmdToDisplay(m_arbyDisplayCommand);
4353  0684 a601          	ld	a,#low(_m_arbyDisplayCommand)
4354  0686 ae01          	ld	x,#high(_m_arbyDisplayCommand)
4355  0688 cd0095        	call	_displayCmdToDisplay
4357                     ; 487 }
4360  068b 81            	ret
4413                     ; 490 void displayDrawAlarm(BYTE a_byX, BYTE a_byY)
4413                     ; 491 {
4414                     	switch	.text
4416                     	xref.b	_displayDrawAlarm$L
4417  068c               _displayDrawAlarm:
4419  068c b701          	ld	_displayDrawAlarm$L+1,a
4420  068e bf00          	ld	_displayDrawAlarm$L,x
4422                     ; 492 	BYTE i = 0x00;
4424  0690 3fff          	clr	_displayDrawAlarm$L-1
4425                     ; 494 	if (a_byX != DISPLAY_NULL)
4427  0692 b600          	ld	a,_displayDrawAlarm$L
4428  0694 a1ff          	cp	a,#255
4429  0696 2728          	jreq	L1012
4430                     ; 496 		m_arbyDisplayCommand[i++] = DISPLAY_CURSOR_POSITION;
4432  0698 beff          	ld	x,_displayDrawAlarm$L-1
4433  069a 3cff          	inc	_displayDrawAlarm$L-1
4434  069c a610          	ld	a,#16
4435  069e d70001        	ld	(_m_arbyDisplayCommand,x),a
4436                     ; 497 		m_arbyDisplayCommand[i++] = a_byX + 2;
4438  06a1 b600          	ld	a,_displayDrawAlarm$L
4439  06a3 ab02          	add	a,#2
4440  06a5 beff          	ld	x,_displayDrawAlarm$L-1
4441  06a7 3cff          	inc	_displayDrawAlarm$L-1
4442  06a9 d70001        	ld	(_m_arbyDisplayCommand,x),a
4443                     ; 498 		m_arbyDisplayCommand[i++] = a_byY +7 ;
4445  06ac b601          	ld	a,_displayDrawAlarm$L+1
4446  06ae ab07          	add	a,#7
4447  06b0 beff          	ld	x,_displayDrawAlarm$L-1
4448  06b2 3cff          	inc	_displayDrawAlarm$L-1
4449  06b4 d70001        	ld	(_m_arbyDisplayCommand,x),a
4450                     ; 499 		m_arbyDisplayCommand[i++] = DISPLAY_WAIT;
4452  06b7 beff          	ld	x,_displayDrawAlarm$L-1
4453  06b9 3cff          	inc	_displayDrawAlarm$L-1
4454  06bb a6fe          	ld	a,#254
4455  06bd d70001        	ld	(_m_arbyDisplayCommand,x),a
4456  06c0               L1012:
4457                     ; 502 	m_arbyDisplayCommand[i++] = DISPLAY_GRAPHIC_WRITE;
4459  06c0 beff          	ld	x,_displayDrawAlarm$L-1
4460  06c2 3cff          	inc	_displayDrawAlarm$L-1
4461  06c4 a618          	ld	a,#24
4462  06c6 d70001        	ld	(_m_arbyDisplayCommand,x),a
4463                     ; 503 	m_arbyDisplayCommand[i++] = 7; //Length
4465  06c9 beff          	ld	x,_displayDrawAlarm$L-1
4466  06cb 3cff          	inc	_displayDrawAlarm$L-1
4467  06cd a607          	ld	a,#7
4468  06cf d70001        	ld	(_m_arbyDisplayCommand,x),a
4469                     ; 506 	m_arbyDisplayCommand[i++] = 0x04;
4471  06d2 beff          	ld	x,_displayDrawAlarm$L-1
4472  06d4 3cff          	inc	_displayDrawAlarm$L-1
4473  06d6 a604          	ld	a,#4
4474  06d8 d70001        	ld	(_m_arbyDisplayCommand,x),a
4475                     ; 507 	m_arbyDisplayCommand[i++] = 0x3A;
4477  06db beff          	ld	x,_displayDrawAlarm$L-1
4478  06dd 3cff          	inc	_displayDrawAlarm$L-1
4479  06df a63a          	ld	a,#58
4480  06e1 d70001        	ld	(_m_arbyDisplayCommand,x),a
4481                     ; 508 	m_arbyDisplayCommand[i++] = 0x42;
4483  06e4 beff          	ld	x,_displayDrawAlarm$L-1
4484  06e6 3cff          	inc	_displayDrawAlarm$L-1
4485  06e8 a642          	ld	a,#66
4486  06ea d70001        	ld	(_m_arbyDisplayCommand,x),a
4487                     ; 509 	m_arbyDisplayCommand[i++] = 0xC2;
4489  06ed beff          	ld	x,_displayDrawAlarm$L-1
4490  06ef 3cff          	inc	_displayDrawAlarm$L-1
4491  06f1 a6c2          	ld	a,#194
4492  06f3 d70001        	ld	(_m_arbyDisplayCommand,x),a
4493                     ; 510 	m_arbyDisplayCommand[i++] = 0x43;
4495  06f6 beff          	ld	x,_displayDrawAlarm$L-1
4496  06f8 3cff          	inc	_displayDrawAlarm$L-1
4497  06fa a643          	ld	a,#67
4498  06fc d70001        	ld	(_m_arbyDisplayCommand,x),a
4499                     ; 511 	m_arbyDisplayCommand[i++] = 0x3A;
4501  06ff beff          	ld	x,_displayDrawAlarm$L-1
4502  0701 3cff          	inc	_displayDrawAlarm$L-1
4503  0703 a63a          	ld	a,#58
4504  0705 d70001        	ld	(_m_arbyDisplayCommand,x),a
4505                     ; 512 	m_arbyDisplayCommand[i++] = 0x04;
4507  0708 beff          	ld	x,_displayDrawAlarm$L-1
4508  070a 3cff          	inc	_displayDrawAlarm$L-1
4509  070c a604          	ld	a,#4
4510  070e d70001        	ld	(_m_arbyDisplayCommand,x),a
4511                     ; 514 	m_arbyDisplayCommand[i++] = DISPLAY_WAIT;
4513  0711 beff          	ld	x,_displayDrawAlarm$L-1
4514  0713 3cff          	inc	_displayDrawAlarm$L-1
4515  0715 a6fe          	ld	a,#254
4516  0717 d70001        	ld	(_m_arbyDisplayCommand,x),a
4517                     ; 515 	m_arbyDisplayCommand[i++] = DISPLAY_EOF;		
4519  071a beff          	ld	x,_displayDrawAlarm$L-1
4520  071c 3cff          	inc	_displayDrawAlarm$L-1
4521  071e a6ff          	ld	a,#255
4522  0720 d70001        	ld	(_m_arbyDisplayCommand,x),a
4523                     ; 517 	displayCmdToDisplay(m_arbyDisplayCommand);			
4525  0723 a601          	ld	a,#low(_m_arbyDisplayCommand)
4526  0725 ae01          	ld	x,#high(_m_arbyDisplayCommand)
4527  0727 cd0095        	call	_displayCmdToDisplay
4529                     ; 518 }
4532  072a 81            	ret
4615                     ; 521 void displayDrawCorrection(BYTE a_byX, BYTE a_byY, BYTE a_byWidth, BYTE a_byDirection, BYTE a_bySize)
4615                     ; 522 {
4616                     	switch	.text
4618                     	xref.b	_displayDrawCorrection$L
4619  072b               _displayDrawCorrection:
4621  072b b701          	ld	_displayDrawCorrection$L+1,a
4622  072d bf00          	ld	_displayDrawCorrection$L,x
4624                     ; 523 	BYTE i = 0x00;
4626  072f 3fff          	clr	_displayDrawCorrection$L-1
4627                     ; 525 	if (a_bySize == 0x00) //Little
4629  0731 3d04          	tnz	_displayDrawCorrection$L+4
4630  0733 2645          	jrne	L5412
4631                     ; 527 		if (a_byDirection == 0x02)
4633  0735 b603          	ld	a,_displayDrawCorrection$L+3
4634  0737 a102          	cp	a,#2
4635  0739 2619          	jrne	L7412
4636                     ; 529 			displaySetArea(a_byX + 2, a_byY, a_byX + 3, a_byY + 2);
4638  073b b601          	ld	a,_displayDrawCorrection$L+1
4639  073d ab02          	add	a,#2
4640  073f b703          	ld	_displaySetArea$L+3,a
4641  0741 b600          	ld	a,_displayDrawCorrection$L
4642  0743 ab03          	add	a,#3
4643  0745 b702          	ld	_displaySetArea$L+2,a
4644  0747 b600          	ld	a,_displayDrawCorrection$L
4645  0749 ab02          	add	a,#2
4646  074b 97            	ld	x,a
4647  074c b601          	ld	a,_displayDrawCorrection$L+1
4648  074e cd02c8        	call	_displaySetArea
4651  0751 cc0926        	jp	L5512
4652  0754               L7412:
4653                     ; 531 		else if (a_byDirection == 0x01)
4655  0754 b603          	ld	a,_displayDrawCorrection$L+3
4656  0756 a101          	cp	a,#1
4657  0758 2703          	jreq	L201
4658  075a cc0926        	jp	L5512
4659  075d               L201:
4660                     ; 533 			displaySetArea(a_byX + a_byWidth - 4, a_byY, a_byX + a_byWidth - 3, a_byY + 2);
4662  075d b601          	ld	a,_displayDrawCorrection$L+1
4663  075f ab02          	add	a,#2
4664  0761 b703          	ld	_displaySetArea$L+3,a
4665  0763 b600          	ld	a,_displayDrawCorrection$L
4666  0765 bb02          	add	a,_displayDrawCorrection$L+2
4667  0767 a003          	sub	a,#3
4668  0769 b702          	ld	_displaySetArea$L+2,a
4669  076b b600          	ld	a,_displayDrawCorrection$L
4670  076d bb02          	add	a,_displayDrawCorrection$L+2
4671  076f a004          	sub	a,#4
4672  0771 97            	ld	x,a
4673  0772 b601          	ld	a,_displayDrawCorrection$L+1
4674  0774 cd02c8        	call	_displaySetArea
4676  0777 cc0926        	jp	L5512
4677  077a               L5412:
4678                     ; 538 		if (a_byDirection == 0x02) //Minus
4680  077a b603          	ld	a,_displayDrawCorrection$L+3
4681  077c a102          	cp	a,#2
4682  077e 2703          	jreq	L401
4683  0780 cc0828        	jp	L7512
4684  0783               L401:
4685                     ; 540 			displayClearArea(a_byX + a_byWidth - 10, a_byY +7, a_byX + a_byWidth - 3, a_byY +14);
4687  0783 b601          	ld	a,_displayDrawCorrection$L+1
4688  0785 ab0e          	add	a,#14
4689  0787 b703          	ld	_displayClearArea$L+3,a
4690  0789 b600          	ld	a,_displayDrawCorrection$L
4691  078b bb02          	add	a,_displayDrawCorrection$L+2
4692  078d a003          	sub	a,#3
4693  078f b702          	ld	_displayClearArea$L+2,a
4694  0791 b600          	ld	a,_displayDrawCorrection$L
4695  0793 bb02          	add	a,_displayDrawCorrection$L+2
4696  0795 a00a          	sub	a,#10
4697  0797 97            	ld	x,a
4698  0798 b601          	ld	a,_displayDrawCorrection$L+1
4699  079a ab07          	add	a,#7
4700  079c cd0378        	call	_displayClearArea
4702                     ; 543 			if (a_byX != DISPLAY_NULL)
4704  079f b600          	ld	a,_displayDrawCorrection$L
4705  07a1 a1ff          	cp	a,#255
4706  07a3 2728          	jreq	L1612
4707                     ; 545 				m_arbyDisplayCommand[i++] = DISPLAY_CURSOR_POSITION;
4709  07a5 beff          	ld	x,_displayDrawCorrection$L-1
4710  07a7 3cff          	inc	_displayDrawCorrection$L-1
4711  07a9 a610          	ld	a,#16
4712  07ab d70001        	ld	(_m_arbyDisplayCommand,x),a
4713                     ; 546 				m_arbyDisplayCommand[i++] = a_byX + 2;
4715  07ae b600          	ld	a,_displayDrawCorrection$L
4716  07b0 ab02          	add	a,#2
4717  07b2 beff          	ld	x,_displayDrawCorrection$L-1
4718  07b4 3cff          	inc	_displayDrawCorrection$L-1
4719  07b6 d70001        	ld	(_m_arbyDisplayCommand,x),a
4720                     ; 547 				m_arbyDisplayCommand[i++] = a_byY +7 ;
4722  07b9 b601          	ld	a,_displayDrawCorrection$L+1
4723  07bb ab07          	add	a,#7
4724  07bd beff          	ld	x,_displayDrawCorrection$L-1
4725  07bf 3cff          	inc	_displayDrawCorrection$L-1
4726  07c1 d70001        	ld	(_m_arbyDisplayCommand,x),a
4727                     ; 548 				m_arbyDisplayCommand[i++] = DISPLAY_WAIT;
4729  07c4 beff          	ld	x,_displayDrawCorrection$L-1
4730  07c6 3cff          	inc	_displayDrawCorrection$L-1
4731  07c8 a6fe          	ld	a,#254
4732  07ca d70001        	ld	(_m_arbyDisplayCommand,x),a
4733  07cd               L1612:
4734                     ; 551 			m_arbyDisplayCommand[i++] = DISPLAY_GRAPHIC_WRITE;
4736  07cd beff          	ld	x,_displayDrawCorrection$L-1
4737  07cf 3cff          	inc	_displayDrawCorrection$L-1
4738  07d1 a618          	ld	a,#24
4739  07d3 d70001        	ld	(_m_arbyDisplayCommand,x),a
4740                     ; 552 			m_arbyDisplayCommand[i++] = 8; //Length
4742  07d6 beff          	ld	x,_displayDrawCorrection$L-1
4743  07d8 3cff          	inc	_displayDrawCorrection$L-1
4744  07da a608          	ld	a,#8
4745  07dc d70001        	ld	(_m_arbyDisplayCommand,x),a
4746                     ; 555 			m_arbyDisplayCommand[i++] = 0x00;
4748  07df beff          	ld	x,_displayDrawCorrection$L-1
4749  07e1 3cff          	inc	_displayDrawCorrection$L-1
4750  07e3 4f            	clr	a
4751  07e4 d70001        	ld	(_m_arbyDisplayCommand,x),a
4752                     ; 556 			m_arbyDisplayCommand[i++] = 0x3C;
4754  07e7 beff          	ld	x,_displayDrawCorrection$L-1
4755  07e9 3cff          	inc	_displayDrawCorrection$L-1
4756  07eb a63c          	ld	a,#60
4757  07ed d70001        	ld	(_m_arbyDisplayCommand,x),a
4758                     ; 557 			m_arbyDisplayCommand[i++] = 0x42;
4760  07f0 beff          	ld	x,_displayDrawCorrection$L-1
4761  07f2 3cff          	inc	_displayDrawCorrection$L-1
4762  07f4 a642          	ld	a,#66
4763  07f6 d70001        	ld	(_m_arbyDisplayCommand,x),a
4764                     ; 558 			m_arbyDisplayCommand[i++] = 0x02;
4766  07f9 beff          	ld	x,_displayDrawCorrection$L-1
4767  07fb 3cff          	inc	_displayDrawCorrection$L-1
4768  07fd a602          	ld	a,#2
4769  07ff d70001        	ld	(_m_arbyDisplayCommand,x),a
4770                     ; 559 			m_arbyDisplayCommand[i++] = 0x72;
4772  0802 beff          	ld	x,_displayDrawCorrection$L-1
4773  0804 3cff          	inc	_displayDrawCorrection$L-1
4774  0806 a672          	ld	a,#114
4775  0808 d70001        	ld	(_m_arbyDisplayCommand,x),a
4776                     ; 560 			m_arbyDisplayCommand[i++] = 0x62;
4778  080b beff          	ld	x,_displayDrawCorrection$L-1
4779  080d 3cff          	inc	_displayDrawCorrection$L-1
4780  080f a662          	ld	a,#98
4781  0811 d70001        	ld	(_m_arbyDisplayCommand,x),a
4782                     ; 561 			m_arbyDisplayCommand[i++] = 0x5C;
4784  0814 beff          	ld	x,_displayDrawCorrection$L-1
4785  0816 3cff          	inc	_displayDrawCorrection$L-1
4786  0818 a65c          	ld	a,#92
4787  081a d70001        	ld	(_m_arbyDisplayCommand,x),a
4788                     ; 562 			m_arbyDisplayCommand[i++] = 0x00;
4790  081d beff          	ld	x,_displayDrawCorrection$L-1
4791  081f 3cff          	inc	_displayDrawCorrection$L-1
4792  0821 4f            	clr	a
4793  0822 d70001        	ld	(_m_arbyDisplayCommand,x),a
4795  0825 cc0907        	jp	L3612
4796  0828               L7512:
4797                     ; 564 		else if(a_byDirection == 0x01) //Plus
4799  0828 b603          	ld	a,_displayDrawCorrection$L+3
4800  082a a101          	cp	a,#1
4801  082c 2703          	jreq	L601
4802  082e cc08d3        	jp	L5612
4803  0831               L601:
4804                     ; 566 			displayClearArea(a_byX + 2, a_byY +7, a_byX + 9, a_byY +14);
4806  0831 b601          	ld	a,_displayDrawCorrection$L+1
4807  0833 ab0e          	add	a,#14
4808  0835 b703          	ld	_displayClearArea$L+3,a
4809  0837 b600          	ld	a,_displayDrawCorrection$L
4810  0839 ab09          	add	a,#9
4811  083b b702          	ld	_displayClearArea$L+2,a
4812  083d b600          	ld	a,_displayDrawCorrection$L
4813  083f ab02          	add	a,#2
4814  0841 97            	ld	x,a
4815  0842 b601          	ld	a,_displayDrawCorrection$L+1
4816  0844 ab07          	add	a,#7
4817  0846 cd0378        	call	_displayClearArea
4819                     ; 570 			if (a_byX != DISPLAY_NULL)
4821  0849 b600          	ld	a,_displayDrawCorrection$L
4822  084b a1ff          	cp	a,#255
4823  084d 272a          	jreq	L7612
4824                     ; 572 				m_arbyDisplayCommand[i++] = DISPLAY_CURSOR_POSITION;
4826  084f beff          	ld	x,_displayDrawCorrection$L-1
4827  0851 3cff          	inc	_displayDrawCorrection$L-1
4828  0853 a610          	ld	a,#16
4829  0855 d70001        	ld	(_m_arbyDisplayCommand,x),a
4830                     ; 573 				m_arbyDisplayCommand[i++] = a_byX + a_byWidth - 10;
4832  0858 b600          	ld	a,_displayDrawCorrection$L
4833  085a bb02          	add	a,_displayDrawCorrection$L+2
4834  085c a00a          	sub	a,#10
4835  085e beff          	ld	x,_displayDrawCorrection$L-1
4836  0860 3cff          	inc	_displayDrawCorrection$L-1
4837  0862 d70001        	ld	(_m_arbyDisplayCommand,x),a
4838                     ; 574 				m_arbyDisplayCommand[i++] = a_byY +7 ;
4840  0865 b601          	ld	a,_displayDrawCorrection$L+1
4841  0867 ab07          	add	a,#7
4842  0869 beff          	ld	x,_displayDrawCorrection$L-1
4843  086b 3cff          	inc	_displayDrawCorrection$L-1
4844  086d d70001        	ld	(_m_arbyDisplayCommand,x),a
4845                     ; 575 				m_arbyDisplayCommand[i++] = DISPLAY_WAIT;
4847  0870 beff          	ld	x,_displayDrawCorrection$L-1
4848  0872 3cff          	inc	_displayDrawCorrection$L-1
4849  0874 a6fe          	ld	a,#254
4850  0876 d70001        	ld	(_m_arbyDisplayCommand,x),a
4851  0879               L7612:
4852                     ; 578 			m_arbyDisplayCommand[i++] = DISPLAY_GRAPHIC_WRITE;
4854  0879 beff          	ld	x,_displayDrawCorrection$L-1
4855  087b 3cff          	inc	_displayDrawCorrection$L-1
4856  087d a618          	ld	a,#24
4857  087f d70001        	ld	(_m_arbyDisplayCommand,x),a
4858                     ; 579 			m_arbyDisplayCommand[i++] = 8; //Length
4860  0882 beff          	ld	x,_displayDrawCorrection$L-1
4861  0884 3cff          	inc	_displayDrawCorrection$L-1
4862  0886 a608          	ld	a,#8
4863  0888 d70001        	ld	(_m_arbyDisplayCommand,x),a
4864                     ; 582 			m_arbyDisplayCommand[i++] = 0x00;
4866  088b beff          	ld	x,_displayDrawCorrection$L-1
4867  088d 3cff          	inc	_displayDrawCorrection$L-1
4868  088f 4f            	clr	a
4869  0890 d70001        	ld	(_m_arbyDisplayCommand,x),a
4870                     ; 583 			m_arbyDisplayCommand[i++] = 0x3C;
4872  0893 beff          	ld	x,_displayDrawCorrection$L-1
4873  0895 3cff          	inc	_displayDrawCorrection$L-1
4874  0897 a63c          	ld	a,#60
4875  0899 d70001        	ld	(_m_arbyDisplayCommand,x),a
4876                     ; 584 			m_arbyDisplayCommand[i++] = 0x42;
4878  089c beff          	ld	x,_displayDrawCorrection$L-1
4879  089e 3cff          	inc	_displayDrawCorrection$L-1
4880  08a0 a642          	ld	a,#66
4881  08a2 d70001        	ld	(_m_arbyDisplayCommand,x),a
4882                     ; 585 			m_arbyDisplayCommand[i++] = 0x40;
4884  08a5 beff          	ld	x,_displayDrawCorrection$L-1
4885  08a7 3cff          	inc	_displayDrawCorrection$L-1
4886  08a9 a640          	ld	a,#64
4887  08ab d70001        	ld	(_m_arbyDisplayCommand,x),a
4888                     ; 586 			m_arbyDisplayCommand[i++] = 0x4E;
4890  08ae beff          	ld	x,_displayDrawCorrection$L-1
4891  08b0 3cff          	inc	_displayDrawCorrection$L-1
4892  08b2 a64e          	ld	a,#78
4893  08b4 d70001        	ld	(_m_arbyDisplayCommand,x),a
4894                     ; 587 			m_arbyDisplayCommand[i++] = 0x46;
4896  08b7 beff          	ld	x,_displayDrawCorrection$L-1
4897  08b9 3cff          	inc	_displayDrawCorrection$L-1
4898  08bb a646          	ld	a,#70
4899  08bd d70001        	ld	(_m_arbyDisplayCommand,x),a
4900                     ; 588 			m_arbyDisplayCommand[i++] = 0x3A;
4902  08c0 beff          	ld	x,_displayDrawCorrection$L-1
4903  08c2 3cff          	inc	_displayDrawCorrection$L-1
4904  08c4 a63a          	ld	a,#58
4905  08c6 d70001        	ld	(_m_arbyDisplayCommand,x),a
4906                     ; 589 			m_arbyDisplayCommand[i++] = 0x00;
4908  08c9 beff          	ld	x,_displayDrawCorrection$L-1
4909  08cb 3cff          	inc	_displayDrawCorrection$L-1
4910  08cd 4f            	clr	a
4911  08ce d70001        	ld	(_m_arbyDisplayCommand,x),a
4913  08d1 2034          	jra	L3612
4914  08d3               L5612:
4915                     ; 593 			displayClearArea(a_byX + 2, a_byY +7, a_byX + 9, a_byY +14);
4917  08d3 b601          	ld	a,_displayDrawCorrection$L+1
4918  08d5 ab0e          	add	a,#14
4919  08d7 b703          	ld	_displayClearArea$L+3,a
4920  08d9 b600          	ld	a,_displayDrawCorrection$L
4921  08db ab09          	add	a,#9
4922  08dd b702          	ld	_displayClearArea$L+2,a
4923  08df b600          	ld	a,_displayDrawCorrection$L
4924  08e1 ab02          	add	a,#2
4925  08e3 97            	ld	x,a
4926  08e4 b601          	ld	a,_displayDrawCorrection$L+1
4927  08e6 ab07          	add	a,#7
4928  08e8 cd0378        	call	_displayClearArea
4930                     ; 594 			displayClearArea(a_byX + a_byWidth - 10, a_byY +7, a_byX + a_byWidth - 3, a_byY +14);
4932  08eb b601          	ld	a,_displayDrawCorrection$L+1
4933  08ed ab0e          	add	a,#14
4934  08ef b703          	ld	_displayClearArea$L+3,a
4935  08f1 b600          	ld	a,_displayDrawCorrection$L
4936  08f3 bb02          	add	a,_displayDrawCorrection$L+2
4937  08f5 a003          	sub	a,#3
4938  08f7 b702          	ld	_displayClearArea$L+2,a
4939  08f9 b600          	ld	a,_displayDrawCorrection$L
4940  08fb bb02          	add	a,_displayDrawCorrection$L+2
4941  08fd a00a          	sub	a,#10
4942  08ff 97            	ld	x,a
4943  0900 b601          	ld	a,_displayDrawCorrection$L+1
4944  0902 ab07          	add	a,#7
4945  0904 cd0378        	call	_displayClearArea
4947  0907               L3612:
4948                     ; 598 		m_arbyDisplayCommand[i++] = DISPLAY_WAIT;
4950  0907 beff          	ld	x,_displayDrawCorrection$L-1
4951  0909 3cff          	inc	_displayDrawCorrection$L-1
4952  090b a6fe          	ld	a,#254
4953  090d d70001        	ld	(_m_arbyDisplayCommand,x),a
4954                     ; 599 		m_arbyDisplayCommand[i++] = DISPLAY_EOF;		
4956  0910 beff          	ld	x,_displayDrawCorrection$L-1
4957  0912 3cff          	inc	_displayDrawCorrection$L-1
4958  0914 a6ff          	ld	a,#255
4959  0916 d70001        	ld	(_m_arbyDisplayCommand,x),a
4960                     ; 601 		if (i>2) //Direction is specified
4962  0919 b6ff          	ld	a,_displayDrawCorrection$L-1
4963  091b a103          	cp	a,#3
4964  091d 2507          	jrult	L5512
4965                     ; 603 			displayCmdToDisplay(m_arbyDisplayCommand);
4967  091f a601          	ld	a,#low(_m_arbyDisplayCommand)
4968  0921 ae01          	ld	x,#high(_m_arbyDisplayCommand)
4969  0923 cd0095        	call	_displayCmdToDisplay
4971  0926               L5512:
4972                     ; 606 }
4975  0926 81            	ret
5106                     ; 609 void displayDrawBox(BYTE a_byLeft, BYTE a_byTop, BYTE a_byWidth, BYTE a_byHeigth, BYTE * a_strLabel, BYTE * a_strLabel2, WORD a_woValue, BYTE a_byLength, BYTE a_byRefresh)
5106                     ; 610 {
5107                     	switch	.text
5109                     	xref.b	_displayDrawBox$L
5110  0927               _displayDrawBox:
5112  0927 b701          	ld	_displayDrawBox$L+1,a
5113  0929 bf00          	ld	_displayDrawBox$L,x
5115                     ; 614 	byRight = a_byLeft + a_byWidth;
5117  092b 9f            	ld	a,x
5118  092c bb02          	add	a,_displayDrawBox$L+2
5119  092e b7ff          	ld	_displayDrawBox$L-1,a
5120                     ; 616 	if (!a_byRefresh)
5122  0930 3d0b          	tnz	_displayDrawBox$L+11
5123  0932 2703          	jreq	L611
5124  0934 cc09ca        	jp	L3622
5125  0937               L611:
5126                     ; 618 		displayClearArea(a_byLeft, a_byTop, byRight + 1, a_byTop + a_byHeigth + 1);
5128  0937 b601          	ld	a,_displayDrawBox$L+1
5129  0939 bb03          	add	a,_displayDrawBox$L+3
5130  093b 4c            	inc	a
5131  093c b703          	ld	_displayClearArea$L+3,a
5132  093e b6ff          	ld	a,_displayDrawBox$L-1
5133  0940 4c            	inc	a
5134  0941 b702          	ld	_displayClearArea$L+2,a
5135  0943 b601          	ld	a,_displayDrawBox$L+1
5136  0945 be00          	ld	x,_displayDrawBox$L
5137  0947 cd0378        	call	_displayClearArea
5139                     ; 619 		displaySetOutLine(a_byLeft, a_byTop, byRight, a_byTop + a_byHeigth, false);
5141  094a 3f04          	clr	_displaySetOutLine$L+4
5142  094c b601          	ld	a,_displayDrawBox$L+1
5143  094e bb03          	add	a,_displayDrawBox$L+3
5144  0950 b703          	ld	_displaySetOutLine$L+3,a
5145  0952 b6ff          	ld	a,_displayDrawBox$L-1
5146  0954 b702          	ld	_displaySetOutLine$L+2,a
5147  0956 b601          	ld	a,_displayDrawBox$L+1
5148  0958 be00          	ld	x,_displayDrawBox$L
5149  095a cd0315        	call	_displaySetOutLine
5151                     ; 621 		if (a_strLabel != NULL)
5153  095d b605          	ld	a,_displayDrawBox$L+5
5154  095f ba04          	or	a,_displayDrawBox$L+4
5155  0961 2748          	jreq	L5622
5156                     ; 623 			displayWriteString(a_strLabel, DISPLAY_SELECT_FONT_MINI, a_byLeft + 2, a_byTop + 6);
5158  0963 b601          	ld	a,_displayDrawBox$L+1
5159  0965 ab06          	add	a,#6
5160  0967 b704          	ld	_displayWriteString$L+4,a
5161  0969 b600          	ld	a,_displayDrawBox$L
5162  096b ab02          	add	a,#2
5163  096d b703          	ld	_displayWriteString$L+3,a
5164  096f a61c          	ld	a,#28
5165  0971 b702          	ld	_displayWriteString$L+2,a
5166  0973 b605          	ld	a,_displayDrawBox$L+5
5167  0975 be04          	ld	x,_displayDrawBox$L+4
5168  0977 cd0237        	call	_displayWriteString
5170                     ; 625 			if (byRight == 126) //workaround
5172  097a b6ff          	ld	a,_displayDrawBox$L-1
5173  097c a17e          	cp	a,#126
5174  097e 2617          	jrne	L7622
5175                     ; 627 				displayInvertArea(a_byLeft + 1, a_byTop + 1, byRight - 2, a_byTop + 6);
5177  0980 b601          	ld	a,_displayDrawBox$L+1
5178  0982 ab06          	add	a,#6
5179  0984 b703          	ld	_displayInvertArea$L+3,a
5180  0986 b6ff          	ld	a,_displayDrawBox$L-1
5181  0988 a002          	sub	a,#2
5182  098a b702          	ld	_displayInvertArea$L+2,a
5183  098c b601          	ld	a,_displayDrawBox$L+1
5184  098e 4c            	inc	a
5185  098f be00          	ld	x,_displayDrawBox$L
5186  0991 5c            	inc	x
5187  0992 cd03c5        	call	_displayInvertArea
5190  0995 2014          	jra	L5622
5191  0997               L7622:
5192                     ; 631 				displayInvertArea(a_byLeft + 1, a_byTop + 1, byRight - 1, a_byTop + 6);
5194  0997 b601          	ld	a,_displayDrawBox$L+1
5195  0999 ab06          	add	a,#6
5196  099b b703          	ld	_displayInvertArea$L+3,a
5197  099d b6ff          	ld	a,_displayDrawBox$L-1
5198  099f 4a            	dec	a
5199  09a0 b702          	ld	_displayInvertArea$L+2,a
5200  09a2 b601          	ld	a,_displayDrawBox$L+1
5201  09a4 4c            	inc	a
5202  09a5 be00          	ld	x,_displayDrawBox$L
5203  09a7 5c            	inc	x
5204  09a8 cd03c5        	call	_displayInvertArea
5206  09ab               L5622:
5207                     ; 635 		if(a_strLabel2 != NULL)
5209  09ab b607          	ld	a,_displayDrawBox$L+7
5210  09ad ba06          	or	a,_displayDrawBox$L+6
5211  09af 2719          	jreq	L3622
5212                     ; 637 			displayWriteString(a_strLabel2, DISPLAY_SELECT_FONT_MINI, a_byLeft + 2, a_byTop + a_byHeigth - 2);
5214  09b1 b601          	ld	a,_displayDrawBox$L+1
5215  09b3 bb03          	add	a,_displayDrawBox$L+3
5216  09b5 a002          	sub	a,#2
5217  09b7 b704          	ld	_displayWriteString$L+4,a
5218  09b9 b600          	ld	a,_displayDrawBox$L
5219  09bb ab02          	add	a,#2
5220  09bd b703          	ld	_displayWriteString$L+3,a
5221  09bf a61c          	ld	a,#28
5222  09c1 b702          	ld	_displayWriteString$L+2,a
5223  09c3 b607          	ld	a,_displayDrawBox$L+7
5224  09c5 be06          	ld	x,_displayDrawBox$L+6
5225  09c7 cd0237        	call	_displayWriteString
5227  09ca               L3622:
5228                     ; 641 	if ((a_byRefresh) && (a_woValue == 0xFFFF))
5230  09ca 3d0b          	tnz	_displayDrawBox$L+11
5231  09cc 273b          	jreq	L5722
5233  09ce b609          	ld	a,_displayDrawBox$L+9
5234  09d0 a1ff          	cp	a,#255
5235  09d2 2604          	jrne	L211
5236  09d4 be08          	ld	x,_displayDrawBox$L+8
5237  09d6 a3ff          	cp	x,#255
5238  09d8               L211:
5239  09d8 262f          	jrne	L5722
5240                     ; 643 		displayClearArea(a_byLeft+1, a_byTop+7, byRight - 1, a_byTop + a_byHeigth - 1);
5242  09da b601          	ld	a,_displayDrawBox$L+1
5243  09dc bb03          	add	a,_displayDrawBox$L+3
5244  09de 4a            	dec	a
5245  09df b703          	ld	_displayClearArea$L+3,a
5246  09e1 b6ff          	ld	a,_displayDrawBox$L-1
5247  09e3 4a            	dec	a
5248  09e4 b702          	ld	_displayClearArea$L+2,a
5249  09e6 b601          	ld	a,_displayDrawBox$L+1
5250  09e8 ab07          	add	a,#7
5251  09ea be00          	ld	x,_displayDrawBox$L
5252  09ec 5c            	inc	x
5253  09ed cd0378        	call	_displayClearArea
5255                     ; 644 		displayWriteString(a_strLabel2, DISPLAY_SELECT_FONT_MINI, a_byLeft + 2, a_byTop + a_byHeigth - 2);
5257  09f0 b601          	ld	a,_displayDrawBox$L+1
5258  09f2 bb03          	add	a,_displayDrawBox$L+3
5259  09f4 a002          	sub	a,#2
5260  09f6 b704          	ld	_displayWriteString$L+4,a
5261  09f8 b600          	ld	a,_displayDrawBox$L
5262  09fa ab02          	add	a,#2
5263  09fc b703          	ld	_displayWriteString$L+3,a
5264  09fe a61c          	ld	a,#28
5265  0a00 b702          	ld	_displayWriteString$L+2,a
5266  0a02 b607          	ld	a,_displayDrawBox$L+7
5267  0a04 be06          	ld	x,_displayDrawBox$L+6
5268  0a06 cd0237        	call	_displayWriteString
5270  0a09               L5722:
5271                     ; 647 	if (a_woValue != 0xFFFF)
5273  0a09 b609          	ld	a,_displayDrawBox$L+9
5274  0a0b a1ff          	cp	a,#255
5275  0a0d 2604          	jrne	L411
5276  0a0f be08          	ld	x,_displayDrawBox$L+8
5277  0a11 a3ff          	cp	x,#255
5278  0a13               L411:
5279  0a13 2736          	jreq	L7722
5280                     ; 649 		formatNumber(a_woValue, a_byLength, 0, strString);
5282  0a15 aeef          	ld	x,#high(_displayDrawBox$L-17)
5283  0a17 bf04          	ld	_formatNumber$L+4,x
5284  0a19 a6ef          	ld	a,#low(_displayDrawBox$L-17)
5285  0a1b b705          	ld	_formatNumber$L+5,a
5286  0a1d 3f03          	clr	_formatNumber$L+3
5287  0a1f b60a          	ld	a,_displayDrawBox$L+10
5288  0a21 b702          	ld	_formatNumber$L+2,a
5289  0a23 b609          	ld	a,_displayDrawBox$L+9
5290  0a25 be08          	ld	x,_displayDrawBox$L+8
5291  0a27 cd0000        	call	_formatNumber
5293                     ; 650 		strString[a_byLength] = 0x00;
5295  0a2a be0a          	ld	x,_displayDrawBox$L+10
5296  0a2c 4f            	clr	a
5297  0a2d e7ef          	ld	(_displayDrawBox$L-17,x),a
5298                     ; 652 		displayWriteString(strString, DISPLAY_SELECT_FONT_5x7, byRight - (a_byLength * 6) - 1, a_byTop + a_byHeigth - 1);
5300  0a2f b601          	ld	a,_displayDrawBox$L+1
5301  0a31 bb03          	add	a,_displayDrawBox$L+3
5302  0a33 4a            	dec	a
5303  0a34 b704          	ld	_displayWriteString$L+4,a
5304  0a36 b60a          	ld	a,_displayDrawBox$L+10
5305  0a38 ae06          	ld	x,#6
5306  0a3a 42            	mul	x,a
5307  0a3b b0ff          	sub	a,_displayDrawBox$L-1
5308  0a3d 40            	neg	a
5309  0a3e 4a            	dec	a
5310  0a3f b703          	ld	_displayWriteString$L+3,a
5311  0a41 a61d          	ld	a,#29
5312  0a43 b702          	ld	_displayWriteString$L+2,a
5313  0a45 a6ef          	ld	a,#_displayDrawBox$L-17
5314  0a47 5f            	clr	x
5315  0a48 cd0237        	call	_displayWriteString
5317  0a4b               L7722:
5318                     ; 655 }
5321  0a4b 81            	ret
5373                     	xdef	_displayKeyboardIRQ
5374                     	xdef	_displayClearCommandBuffer
5375                     	switch	.bss
5376  0000               L1211_m_byPrecKey:
5377  0000 00            	ds.b	1
5378  0001               _m_arbyDisplayCommand:
5379  0001 000000000000  	ds.b	128
5380                     	xdef	_m_arbyDisplayCommand
5381                     	xdef	_displayDrawBox
5382                     	xdef	_displayDrawAlarm
5383                     	xdef	_displayDrawLed
5384                     	xdef	_displayDrawCorrection
5385                     	xdef	_displayDrawSelector
5386                     	xdef	_displayDrawHorizontalLine
5387                     	xdef	_displayDrawVerticalLine
5388                     	xdef	_displayInvertArea
5389                     	xdef	_displaySetOutLine
5390                     	xdef	_displayClearArea
5391                     	xdef	_displaySetArea
5392                     	xdef	_displayWriteString
5393                     	xdef	_displayOff
5394                     	xdef	_displayIsKeyPress
5395                     	xdef	_displayKeyPressed
5396                     	xdef	_displayCmdToDisplay
5397                     	xdef	_isDisplayKeyPressed
5398                     	xdef	_displayReset
5399                     	xdef	_displayInit
5400                     	xref	_formatNumber
5401                     	xref	_memcpy
5402                     	xref	_sleep
5403                     	xref	_sleepSec
5404                     	xref	_SPI_MoveByte
5405                     	xref.b	c_x
5425                     	xref.b	_formatNumber$L
5426                     	xref.b	_displayWriteString$L
5427                     	xref.b	_displaySetOutLine$L
5428                     	xref.b	_displayClearArea$L
5429                     	xref.b	_displaySetArea$L
5430                     	xref.b	_displayInvertArea$L
5431                     	xref.b	_memcpy$L
5432                     	xref.b	_sleep$L
5433                     	end
