   1                     ; C Compiler for ST7 (COSMIC Software)
   2                     ; Generator V4.5.5 - 12 Jan 2006
1280                     .const:	section	.text
1281  0000               L327_mc_byApplicationVersion:
1282  0000 da            	dc.b	218
1313                     	switch	.const
1314  0001               L147_mc_displayPages:
1315  0001 00            	dc.b	0
1316  0002 00            	dc.b	0
1317  0003 00            	dc.b	0
1318  0004 00            	dc.b	0
1319  0005 00            	dc.b	0
1320  0006 00            	dc.b	0
1321  0007 00            	dc.b	0
1322  0008 00            	dc.b	0
1323  0009 00            	dc.b	0
1324  000a 00            	dc.b	0
1325  000b 00            	dc.b	0
1326  000c 00            	dc.b	0
1327  000d 00            	dc.b	0
1328  000e 00            	dc.b	0
1329  000f 00            	dc.b	0
1330  0010 00            	dc.b	0
1331  0011 00            	dc.b	0
1332  0012 00            	dc.b	0
1333  0013 00            	dc.b	0
1334  0014 00            	dc.b	0
1335  0015 00            	dc.b	0
1336  0016 00            	dc.b	0
1337  0017 00            	dc.b	0
1338  0018 00            	dc.b	0
1339  0019 00            	dc.b	0
1340  001a 00            	dc.b	0
1341  001b 04            	dc.b	4
1342  001c 04            	dc.b	4
1343  001d 06            	dc.b	6
1344  001e 0c            	dc.b	12
1345  001f 00            	dc.b	0
1346  0020 00            	dc.b	0
1347  0021 00            	dc.b	0
1348  0022 00            	dc.b	0
1349  0023 00            	dc.b	0
1350  0024 00            	dc.b	0
1351  0025 00            	dc.b	0
1352  0026 00            	dc.b	0
1353  0027 00            	dc.b	0
1354  0028 00            	dc.b	0
1355  0029 00            	dc.b	0
1356  002a 00            	dc.b	0
1357  002b 00            	dc.b	0
1358  002c 00            	dc.b	0
1359  002d 00            	dc.b	0
1360  002e 00            	dc.b	0
1361  002f 00            	dc.b	0
1362  0030 00            	dc.b	0
1363  0031 00            	dc.b	0
1364  0032 04            	dc.b	4
1365  0033 04            	dc.b	4
1366  0034 06            	dc.b	6
1367  0035 0c            	dc.b	12
1368  0036 cb            	dc.b	203
1369  0037 04            	dc.b	4
1370  0038 c9            	dc.b	201
1371  0039 04            	dc.b	4
1372  003a 04            	dc.b	4
1373  003b 04            	dc.b	4
1374  003c 04            	dc.b	4
1375  003d 04            	dc.b	4
1376  003e 04            	dc.b	4
1377  003f 04            	dc.b	4
1378  0040 04            	dc.b	4
1379  0041 04            	dc.b	4
1380  0042 10            	dc.b	16
1381  0043 04            	dc.b	4
1382  0044 11            	dc.b	17
1383  0045 04            	dc.b	4
1384  0046 00            	dc.b	0
1385  0047 00            	dc.b	0
1386  0048 00            	dc.b	0
1387  0049 04            	dc.b	4
1388  004a 04            	dc.b	4
1389  004b 06            	dc.b	6
1390  004c 0c            	dc.b	12
1391  004d cb            	dc.b	203
1392  004e 04            	dc.b	4
1393  004f c9            	dc.b	201
1394  0050 04            	dc.b	4
1395  0051 04            	dc.b	4
1396  0052 04            	dc.b	4
1397  0053 04            	dc.b	4
1398  0054 04            	dc.b	4
1399  0055 00            	dc.b	0
1400  0056 11            	dc.b	17
1401  0057 00            	dc.b	0
1402  0058 10            	dc.b	16
1403  0059 10            	dc.b	16
1404  005a 00            	dc.b	0
1405  005b 11            	dc.b	17
1406  005c 04            	dc.b	4
1407  005d 00            	dc.b	0
1408  005e 00            	dc.b	0
1409  005f 00            	dc.b	0
1410  0060 04            	dc.b	4
1411  0061 04            	dc.b	4
1412  0062 06            	dc.b	6
1413  0063 0c            	dc.b	12
1414  0064 cb            	dc.b	203
1415  0065 04            	dc.b	4
1416  0066 c9            	dc.b	201
1417  0067 04            	dc.b	4
1418  0068 04            	dc.b	4
1419  0069 04            	dc.b	4
1420  006a 04            	dc.b	4
1421  006b 04            	dc.b	4
1422  006c 00            	dc.b	0
1423  006d 11            	dc.b	17
1424  006e 00            	dc.b	0
1425  006f 10            	dc.b	16
1426  0070 10            	dc.b	16
1427  0071 00            	dc.b	0
1428  0072 11            	dc.b	17
1429  0073 04            	dc.b	4
1430  0074 00            	dc.b	0
1431  0075 00            	dc.b	0
1432  0076 00            	dc.b	0
1433  0077 05            	dc.b	5
1434  0078 07            	dc.b	7
1435  0079 05            	dc.b	5
1436  007a 05            	dc.b	5
1437  007b 00            	dc.b	0
1438  007c 00            	dc.b	0
1439  007d 00            	dc.b	0
1440  007e 00            	dc.b	0
1441  007f 05            	dc.b	5
1442  0080 05            	dc.b	5
1443  0081 05            	dc.b	5
1444  0082 05            	dc.b	5
1445  0083 16            	dc.b	22
1446  0084 00            	dc.b	0
1447  0085 00            	dc.b	0
1448  0086 00            	dc.b	0
1449  0087 00            	dc.b	0
1450  0088 00            	dc.b	0
1451  0089 00            	dc.b	0
1452  008a 00            	dc.b	0
1453  008b 06            	dc.b	6
1454  008c 01            	dc.b	1
1455  008d 01            	dc.b	1
1456  008e 12            	dc.b	18
1457  008f 04            	dc.b	4
1458  0090 07            	dc.b	7
1459  0091 0c            	dc.b	12
1460  0092 00            	dc.b	0
1461  0093 00            	dc.b	0
1462  0094 00            	dc.b	0
1463  0095 00            	dc.b	0
1464  0096 00            	dc.b	0
1465  0097 07            	dc.b	7
1466  0098 00            	dc.b	0
1467  0099 07            	dc.b	7
1468  009a 13            	dc.b	19
1469  009b 00            	dc.b	0
1470  009c 00            	dc.b	0
1471  009d 00            	dc.b	0
1472  009e 00            	dc.b	0
1473  009f 00            	dc.b	0
1474  00a0 00            	dc.b	0
1475  00a1 00            	dc.b	0
1476  00a2 06            	dc.b	6
1477  00a3 01            	dc.b	1
1478  00a4 02            	dc.b	2
1479  00a5 05            	dc.b	5
1480  00a6 04            	dc.b	4
1481  00a7 08            	dc.b	8
1482  00a8 0c            	dc.b	12
1483  00a9 00            	dc.b	0
1484  00aa 00            	dc.b	0
1485  00ab 00            	dc.b	0
1486  00ac 00            	dc.b	0
1487  00ad 06            	dc.b	6
1488  00ae 08            	dc.b	8
1489  00af 06            	dc.b	6
1490  00b0 08            	dc.b	8
1491  00b1 16            	dc.b	22
1492  00b2 00            	dc.b	0
1493  00b3 00            	dc.b	0
1494  00b4 00            	dc.b	0
1495  00b5 00            	dc.b	0
1496  00b6 00            	dc.b	0
1497  00b7 00            	dc.b	0
1498  00b8 00            	dc.b	0
1499  00b9 06            	dc.b	6
1500  00ba 01            	dc.b	1
1501  00bb 03            	dc.b	3
1502  00bc ce            	dc.b	206
1503  00bd 04            	dc.b	4
1504  00be 09            	dc.b	9
1505  00bf 0c            	dc.b	12
1506  00c0 00            	dc.b	0
1507  00c1 00            	dc.b	0
1508  00c2 00            	dc.b	0
1509  00c3 00            	dc.b	0
1510  00c4 07            	dc.b	7
1511  00c5 09            	dc.b	9
1512  00c6 07            	dc.b	7
1513  00c7 09            	dc.b	9
1514  00c8 00            	dc.b	0
1515  00c9 00            	dc.b	0
1516  00ca 00            	dc.b	0
1517  00cb 00            	dc.b	0
1518  00cc 00            	dc.b	0
1519  00cd 00            	dc.b	0
1520  00ce 00            	dc.b	0
1521  00cf 00            	dc.b	0
1522  00d0 06            	dc.b	6
1523  00d1 01            	dc.b	1
1524  00d2 04            	dc.b	4
1525  00d3 d3            	dc.b	211
1526  00d4 04            	dc.b	4
1527  00d5 06            	dc.b	6
1528  00d6 0c            	dc.b	12
1529  00d7 00            	dc.b	0
1530  00d8 00            	dc.b	0
1531  00d9 00            	dc.b	0
1532  00da 00            	dc.b	0
1533  00db 08            	dc.b	8
1534  00dc 00            	dc.b	0
1535  00dd 08            	dc.b	8
1536  00de 00            	dc.b	0
1537  00df 00            	dc.b	0
1538  00e0 00            	dc.b	0
1539  00e1 00            	dc.b	0
1540  00e2 00            	dc.b	0
1541  00e3 00            	dc.b	0
1542  00e4 00            	dc.b	0
1543  00e5 00            	dc.b	0
1544  00e6 00            	dc.b	0
1545  00e7 06            	dc.b	6
1546  00e8 01            	dc.b	1
1547  00e9 05            	dc.b	5
1548  00ea 00            	dc.b	0
1549  00eb 00            	dc.b	0
1550  00ec 00            	dc.b	0
1551  00ed 0c            	dc.b	12
1552  00ee 00            	dc.b	0
1553  00ef 00            	dc.b	0
1554  00f0 00            	dc.b	0
1555  00f1 00            	dc.b	0
1556  00f2 00            	dc.b	0
1557  00f3 00            	dc.b	0
1558  00f4 00            	dc.b	0
1559  00f5 00            	dc.b	0
1560  00f6 00            	dc.b	0
1561  00f7 00            	dc.b	0
1562  00f8 00            	dc.b	0
1563  00f9 00            	dc.b	0
1564  00fa 00            	dc.b	0
1565  00fb 00            	dc.b	0
1566  00fc 00            	dc.b	0
1567  00fd 00            	dc.b	0
1568  00fe 06            	dc.b	6
1569  00ff 01            	dc.b	1
1570  0100 06            	dc.b	6
1571  0101 00            	dc.b	0
1572  0102 00            	dc.b	0
1573  0103 00            	dc.b	0
1574  0104 0c            	dc.b	12
1575  0105 00            	dc.b	0
1576  0106 00            	dc.b	0
1577  0107 00            	dc.b	0
1578  0108 00            	dc.b	0
1579  0109 00            	dc.b	0
1580  010a 00            	dc.b	0
1581  010b 00            	dc.b	0
1582  010c 00            	dc.b	0
1583  010d 00            	dc.b	0
1584  010e 00            	dc.b	0
1585  010f 00            	dc.b	0
1586  0110 00            	dc.b	0
1587  0111 00            	dc.b	0
1588  0112 00            	dc.b	0
1589  0113 00            	dc.b	0
1590  0114 00            	dc.b	0
1591  0115 06            	dc.b	6
1592  0116 02            	dc.b	2
1593  0117 01            	dc.b	1
1594  0118 0e            	dc.b	14
1595  0119 04            	dc.b	4
1596  011a 06            	dc.b	6
1597  011b 0d            	dc.b	13
1598  011c 00            	dc.b	0
1599  011d 00            	dc.b	0
1600  011e 00            	dc.b	0
1601  011f 00            	dc.b	0
1602  0120 00            	dc.b	0
1603  0121 00            	dc.b	0
1604  0122 00            	dc.b	0
1605  0123 00            	dc.b	0
1606  0124 00            	dc.b	0
1607  0125 00            	dc.b	0
1608  0126 00            	dc.b	0
1609  0127 00            	dc.b	0
1610  0128 00            	dc.b	0
1611  0129 00            	dc.b	0
1612  012a 00            	dc.b	0
1613  012b 00            	dc.b	0
1614  012c 06            	dc.b	6
1615  012d 02            	dc.b	2
1616  012e 02            	dc.b	2
1617  012f 0f            	dc.b	15
1618  0130 04            	dc.b	4
1619  0131 06            	dc.b	6
1620  0132 0c            	dc.b	12
1621  0133 00            	dc.b	0
1622  0134 00            	dc.b	0
1623  0135 00            	dc.b	0
1624  0136 00            	dc.b	0
1625  0137 00            	dc.b	0
1626  0138 00            	dc.b	0
1627  0139 00            	dc.b	0
1628  013a 00            	dc.b	0
1629  013b 00            	dc.b	0
1630  013c 00            	dc.b	0
1631  013d 00            	dc.b	0
1632  013e 00            	dc.b	0
1633  013f 00            	dc.b	0
1634  0140 00            	dc.b	0
1635  0141 00            	dc.b	0
1636  0142 00            	dc.b	0
1637  0143 0a            	dc.b	10
1638  0144 00            	dc.b	0
1639  0145 00            	dc.b	0
1640  0146 cd            	dc.b	205
1641  0147 0c            	dc.b	12
1642  0148 00            	dc.b	0
1643  0149 00            	dc.b	0
1644  014a 00            	dc.b	0
1645  014b 00            	dc.b	0
1646  014c 00            	dc.b	0
1647  014d 00            	dc.b	0
1648  014e 0e            	dc.b	14
1649  014f 0e            	dc.b	14
1650  0150 0e            	dc.b	14
1651  0151 0e            	dc.b	14
1652  0152 00            	dc.b	0
1653  0153 00            	dc.b	0
1654  0154 00            	dc.b	0
1655  0155 00            	dc.b	0
1656  0156 00            	dc.b	0
1657  0157 00            	dc.b	0
1658  0158 00            	dc.b	0
1659  0159 00            	dc.b	0
1660  015a 0a            	dc.b	10
1661  015b 00            	dc.b	0
1662  015c 00            	dc.b	0
1663  015d cc            	dc.b	204
1664  015e 0d            	dc.b	13
1665  015f 00            	dc.b	0
1666  0160 00            	dc.b	0
1667  0161 00            	dc.b	0
1668  0162 00            	dc.b	0
1669  0163 00            	dc.b	0
1670  0164 00            	dc.b	0
1671  0165 0f            	dc.b	15
1672  0166 0f            	dc.b	15
1673  0167 0f            	dc.b	15
1674  0168 0f            	dc.b	15
1675  0169 00            	dc.b	0
1676  016a 00            	dc.b	0
1677  016b 00            	dc.b	0
1678  016c 00            	dc.b	0
1679  016d 00            	dc.b	0
1680  016e 00            	dc.b	0
1681  016f 00            	dc.b	0
1682  0170 00            	dc.b	0
1683  0171 00            	dc.b	0
1684  0172 00            	dc.b	0
1685  0173 00            	dc.b	0
1686  0174 04            	dc.b	4
1687  0175 04            	dc.b	4
1688  0176 04            	dc.b	4
1689  0177 04            	dc.b	4
1690  0178 04            	dc.b	4
1691  0179 04            	dc.b	4
1692  017a 04            	dc.b	4
1693  017b 04            	dc.b	4
1694  017c 04            	dc.b	4
1695  017d 04            	dc.b	4
1696  017e 04            	dc.b	4
1697  017f 04            	dc.b	4
1698  0180 04            	dc.b	4
1699  0181 04            	dc.b	4
1700  0182 04            	dc.b	4
1701  0183 04            	dc.b	4
1702  0184 10            	dc.b	16
1703  0185 04            	dc.b	4
1704  0186 04            	dc.b	4
1705  0187 04            	dc.b	4
1706  0188 00            	dc.b	0
1707  0189 00            	dc.b	0
1708  018a 00            	dc.b	0
1709  018b 04            	dc.b	4
1710  018c 04            	dc.b	4
1711  018d 04            	dc.b	4
1712  018e 04            	dc.b	4
1713  018f 04            	dc.b	4
1714  0190 04            	dc.b	4
1715  0191 04            	dc.b	4
1716  0192 04            	dc.b	4
1717  0193 04            	dc.b	4
1718  0194 04            	dc.b	4
1719  0195 04            	dc.b	4
1720  0196 04            	dc.b	4
1721  0197 04            	dc.b	4
1722  0198 04            	dc.b	4
1723  0199 04            	dc.b	4
1724  019a 04            	dc.b	4
1725  019b 04            	dc.b	4
1726  019c 04            	dc.b	4
1727  019d 11            	dc.b	17
1728  019e 04            	dc.b	4
1729  019f 0a            	dc.b	10
1730  01a0 00            	dc.b	0
1731  01a1 00            	dc.b	0
1732  01a2 cf            	dc.b	207
1733  01a3 06            	dc.b	6
1734  01a4 00            	dc.b	0
1735  01a5 00            	dc.b	0
1736  01a6 00            	dc.b	0
1737  01a7 00            	dc.b	0
1738  01a8 00            	dc.b	0
1739  01a9 00            	dc.b	0
1740  01aa 12            	dc.b	18
1741  01ab 12            	dc.b	18
1742  01ac 12            	dc.b	18
1743  01ad 12            	dc.b	18
1744  01ae 12            	dc.b	18
1745  01af 00            	dc.b	0
1746  01b0 00            	dc.b	0
1747  01b1 00            	dc.b	0
1748  01b2 00            	dc.b	0
1749  01b3 00            	dc.b	0
1750  01b4 00            	dc.b	0
1751  01b5 00            	dc.b	0
1752  01b6 00            	dc.b	0
1753  01b7 00            	dc.b	0
1754  01b8 00            	dc.b	0
1755  01b9 04            	dc.b	4
1756  01ba 04            	dc.b	4
1757  01bb 00            	dc.b	0
1758  01bc 00            	dc.b	0
1759  01bd 00            	dc.b	0
1760  01be 00            	dc.b	0
1761  01bf 00            	dc.b	0
1762  01c0 00            	dc.b	0
1763  01c1 00            	dc.b	0
1764  01c2 00            	dc.b	0
1765  01c3 00            	dc.b	0
1766  01c4 00            	dc.b	0
1767  01c5 00            	dc.b	0
1768  01c6 00            	dc.b	0
1769  01c7 00            	dc.b	0
1770  01c8 00            	dc.b	0
1771  01c9 00            	dc.b	0
1772  01ca 00            	dc.b	0
1773  01cb 00            	dc.b	0
1774  01cc 00            	dc.b	0
1775  01cd 06            	dc.b	6
1776  01ce 03            	dc.b	3
1777  01cf 01            	dc.b	1
1778  01d0 d1            	dc.b	209
1779  01d1 04            	dc.b	4
1780  01d2 15            	dc.b	21
1781  01d3 0c            	dc.b	12
1782  01d4 00            	dc.b	0
1783  01d5 00            	dc.b	0
1784  01d6 00            	dc.b	0
1785  01d7 00            	dc.b	0
1786  01d8 00            	dc.b	0
1787  01d9 15            	dc.b	21
1788  01da 00            	dc.b	0
1789  01db 15            	dc.b	21
1790  01dc 00            	dc.b	0
1791  01dd 00            	dc.b	0
1792  01de 00            	dc.b	0
1793  01df 00            	dc.b	0
1794  01e0 00            	dc.b	0
1795  01e1 00            	dc.b	0
1796  01e2 00            	dc.b	0
1797  01e3 00            	dc.b	0
1798  01e4 06            	dc.b	6
1799  01e5 03            	dc.b	3
1800  01e6 02            	dc.b	2
1801  01e7 d2            	dc.b	210
1802  01e8 04            	dc.b	4
1803  01e9 14            	dc.b	20
1804  01ea 0c            	dc.b	12
1805  01eb 00            	dc.b	0
1806  01ec 00            	dc.b	0
1807  01ed 00            	dc.b	0
1808  01ee 00            	dc.b	0
1809  01ef 14            	dc.b	20
1810  01f0 00            	dc.b	0
1811  01f1 14            	dc.b	20
1812  01f2 00            	dc.b	0
1813  01f3 00            	dc.b	0
1814  01f4 00            	dc.b	0
1815  01f5 00            	dc.b	0
1816  01f6 00            	dc.b	0
1817  01f7 00            	dc.b	0
1818  01f8 00            	dc.b	0
1819  01f9 00            	dc.b	0
1820  01fa 00            	dc.b	0
1821  01fb 00            	dc.b	0
1822  01fc 00            	dc.b	0
1823  01fd 00            	dc.b	0
1824  01fe 05            	dc.b	5
1825  01ff 07            	dc.b	7
1826  0200 05            	dc.b	5
1827  0201 05            	dc.b	5
1828  0202 00            	dc.b	0
1829  0203 00            	dc.b	0
1830  0204 00            	dc.b	0
1831  0205 00            	dc.b	0
1832  0206 05            	dc.b	5
1833  0207 05            	dc.b	5
1834  0208 05            	dc.b	5
1835  0209 05            	dc.b	5
1836  020a 05            	dc.b	5
1837  020b 00            	dc.b	0
1838  020c 00            	dc.b	0
1839  020d 00            	dc.b	0
1840  020e 00            	dc.b	0
1841  020f 00            	dc.b	0
1842  0210 00            	dc.b	0
1843  0211 00            	dc.b	0
1888                     ; 47 void displayAppInit(void)
1888                     ; 48 {
1889                     	switch	.text
1891                     	xref.b	_displayAppInit$L
1892  0000               _displayAppInit:
1895                     ; 49 	BYTE j = 0x01;
1897  0000 a601          	ld	a,#1
1898  0002 b7ff          	ld	_displayAppInit$L-1,a
1899                     ; 50 	screenInit();
1901  0004 cd0000        	call	_screenInit
1903                     ; 52 	screenBigStdMessage(SCREEN_STD_MSG_INIT_PARAM);
1905  0007 4f            	clr	a
1906  0008 cd0000        	call	_screenBigStdMessage
1908                     ; 54 	measureInit();
1910  000b cd0000        	call	_measureInit
1912                     ; 55 	parametersInit(); 
1914  000e cd0000        	call	_parametersInit
1916                     ; 57 }
1919  0011 81            	ret
1956                     ; 60 void displayAppRefreshVisualization(void)
1956                     ; 61 {
1957                     	switch	.text
1959                     	xref.b	_displayAppRefreshVisualization$L
1960  0012               _displayAppRefreshVisualization:
1963                     ; 64 	if(!displayIsKeyPressed())
1965  0012 cd0000        	call	_displayIsKeyPressed
1967  0015 4d            	tnz	a
1968  0016 260a          	jrne	L5001
1969                     ; 66 		byPage = parametersGetValue(PARAM_PAGE);
1971  0018 a60e          	ld	a,#14
1972  001a cd0000        	call	_parametersGetValue
1974  001d b7ff          	ld	_displayAppRefreshVisualization$L-1,a
1975                     ; 67 		screenUpdateCurrentScreen(); 
1977  001f cd0000        	call	_screenUpdateCurrentScreen
1979  0022               L5001:
1980                     ; 69 }
1983  0022 81            	ret
2042                     ; 72 void displayAppNavigate(void)
2042                     ; 73 {
2043                     	switch	.text
2045                     	xref.b	_displayAppNavigate$L
2046  0023               _displayAppNavigate:
2049                     ; 78 	byKey = displayGetKeyPressed();
2051  0023 cd0000        	call	_displayGetKeyPressed
2053  0026 b7ff          	ld	_displayAppNavigate$L-1,a
2054                     ; 79 	displayKeyPressedReset();	
2056  0028 cd0000        	call	_displayKeyPressedReset
2058                     ; 80 	if (byKey != KEY_NULL)
2060  002b b6ff          	ld	a,_displayAppNavigate$L-1
2061  002d a1ff          	cp	a,#255
2062  002f 2603          	jrne	L25
2063  0031 cc040c        	jp	L5701
2064  0034               L25:
2065                     ; 82 		if ( 
2065                     ; 83 			(parametersGetValue(PARAM_MODE)==PARAM_MODE_OFF) &&
2065                     ; 84 			((parametersGetValue(PARAM_VALVES)==VALVES_WASH) ||
2065                     ; 85 			(parametersGetValue(PARAM_VALVES)==VALVES_ADDSOLVENT)) &&
2065                     ; 86 			(byKey != KEY_R_SOLVENT) && 
2065                     ; 87 			(byKey != KEY_R_INK) && 
2065                     ; 88 			(byKey != KEY_R_BOTH) 
2065                     ; 89 		   )
2067  0034 a610          	ld	a,#16
2068  0036 cd0000        	call	_parametersGetValue
2070  0039 a102          	cp	a,#2
2071  003b 2602          	jrne	L21
2072  003d a300          	cp	x,#0
2073  003f               L21:
2074  003f 2644          	jrne	L7701
2076  0041 a611          	ld	a,#17
2077  0043 cd0000        	call	_parametersGetValue
2079  0046 a10c          	cp	a,#12
2080  0048 2602          	jrne	L41
2081  004a a300          	cp	x,#0
2082  004c               L41:
2083  004c 270d          	jreq	L1011
2085  004e a611          	ld	a,#17
2086  0050 cd0000        	call	_parametersGetValue
2088  0053 a106          	cp	a,#6
2089  0055 2602          	jrne	L61
2090  0057 a300          	cp	x,#0
2091  0059               L61:
2092  0059 262a          	jrne	L7701
2093  005b               L1011:
2095  005b b6ff          	ld	a,_displayAppNavigate$L-1
2096  005d a110          	cp	a,#16
2097  005f 2724          	jreq	L7701
2099  0061 b6ff          	ld	a,_displayAppNavigate$L-1
2100  0063 a111          	cp	a,#17
2101  0065 271e          	jreq	L7701
2103  0067 b6ff          	ld	a,_displayAppNavigate$L-1
2104  0069 a112          	cp	a,#18
2105  006b 2718          	jreq	L7701
2106                     ; 91 			measureSetValveStatus(VALVES_CLOSED);
2108  006d a680          	ld	a,#128
2109  006f cd0000        	call	_measureSetValveStatus
2111                     ; 92 			screenBigStdMessage(SCREEN_STD_MSG_CMD_DONE);
2113  0072 a606          	ld	a,#6
2114  0074 cd0000        	call	_screenBigStdMessage
2116                     ; 93 			parametersSet(PARAM_ALARM, PARAM_ALARM_OK);
2118  0077 3f01          	clr	_parametersSet$L+1
2119  0079 3f02          	clr	_parametersSet$L+2
2120  007b a60d          	ld	a,#13
2121  007d cd0000        	call	_parametersSet
2123                     ; 94 			sleepFix();
2125  0080 cd0000        	call	_sleepFix
2128  0083 2024          	jra	L3011
2129  0085               L7701:
2130                     ; 96 		else if ( 
2130                     ; 97 			(parametersGetValue(PARAM_MODE)!=PARAM_MODE_OFF) &&
2130                     ; 98 			(byKey != KEY_R_SOLVENT) && 
2130                     ; 99 			(byKey != KEY_R_INK) && 
2130                     ; 100 			(byKey != KEY_R_BOTH) 
2130                     ; 101 		   )
2132  0085 a610          	ld	a,#16
2133  0087 cd0000        	call	_parametersGetValue
2135  008a a102          	cp	a,#2
2136  008c 2602          	jrne	L02
2137  008e a300          	cp	x,#0
2138  0090               L02:
2139  0090 2717          	jreq	L3011
2141  0092 b6ff          	ld	a,_displayAppNavigate$L-1
2142  0094 a110          	cp	a,#16
2143  0096 2711          	jreq	L3011
2145  0098 b6ff          	ld	a,_displayAppNavigate$L-1
2146  009a a111          	cp	a,#17
2147  009c 270b          	jreq	L3011
2149  009e b6ff          	ld	a,_displayAppNavigate$L-1
2150  00a0 a112          	cp	a,#18
2151  00a2 2705          	jreq	L3011
2152                     ; 103 			measureSetValveStatus(VALVES_OPENED);
2154  00a4 a60a          	ld	a,#10
2155  00a6 cd0000        	call	_measureSetValveStatus
2157  00a9               L3011:
2158                     ; 107 		m_byNextPage =  mc_displayPages[parametersGetValue(PARAM_PAGE)][byKey+3];
2160  00a9 a60e          	ld	a,#14
2161  00ab cd0000        	call	_parametersGetValue
2163  00ae 3f00          	clr	c_y
2164  00b0 90ae17        	ld	y,#23
2165  00b3 cd0000        	call	c_imul
2167  00b6 bbff          	add	a,_displayAppNavigate$L-1
2168  00b8 2401          	jrnc	L22
2169  00ba 5c            	inc	x
2170  00bb               L22:
2171  00bb ab04          	add	a,#low(L147_mc_displayPages+3)
2172  00bd 88            	push	a
2173  00be 9f            	ld	a,x
2174  00bf a904          	adc	a,#high(L147_mc_displayPages+3)
2175  00c1 97            	ld	x,a
2176  00c2 84            	pop	a
2177  00c3 bf00          	ld	c_x,x
2178  00c5 97            	ld	x,a
2179  00c6 bf01          	ld	c_x+1,x
2180  00c8 92c600        	ld	a,[c_x.w]
2181  00cb c70001        	ld	_m_byNextPage,a
2182                     ; 109 		if ((mc_displayPages[m_byNextPage][0] == VALUE) || 
2182                     ; 110 			(m_byNextPage == PAGE_EXECUTE_SAVE) ||
2182                     ; 111 			(m_byNextPage == PAGE_EXECUTE_LOAD) ||
2182                     ; 112 			(m_byNextPage == PAGE_EXECUTE_CUP_01) ||
2182                     ; 113 			(m_byNextPage == PAGE_EXECUTE_CUP_02) ||
2182                     ; 114 			(m_byNextPage == PAGE_EXECUTE_CALIBRATION) ||
2182                     ; 115 			(m_byNextPage == PAGE_EXECUTE_RESET_CALIBRATION)
2182                     ; 116 			) 
2184  00ce c60001        	ld	a,_m_byNextPage
2185  00d1 ae17          	ld	x,#23
2186  00d3 42            	mul	x,a
2187  00d4 ab01          	add	a,#low(L147_mc_displayPages)
2188  00d6 88            	push	a
2189  00d7 9f            	ld	a,x
2190  00d8 a901          	adc	a,#high(L147_mc_displayPages)
2191  00da 97            	ld	x,a
2192  00db 84            	pop	a
2193  00dc bf00          	ld	c_x,x
2194  00de 97            	ld	x,a
2195  00df bf01          	ld	c_x+1,x
2196  00e1 92c600        	ld	a,[c_x.w]
2197  00e4 a10a          	cp	a,#10
2198  00e6 272a          	jreq	L1111
2200  00e8 c60001        	ld	a,_m_byNextPage
2201  00eb a1cd          	cp	a,#205
2202  00ed 2723          	jreq	L1111
2204  00ef c60001        	ld	a,_m_byNextPage
2205  00f2 a1cc          	cp	a,#204
2206  00f4 271c          	jreq	L1111
2208  00f6 c60001        	ld	a,_m_byNextPage
2209  00f9 a1d1          	cp	a,#209
2210  00fb 2715          	jreq	L1111
2212  00fd c60001        	ld	a,_m_byNextPage
2213  0100 a1d2          	cp	a,#210
2214  0102 270e          	jreq	L1111
2216  0104 c60001        	ld	a,_m_byNextPage
2217  0107 a1cf          	cp	a,#207
2218  0109 2707          	jreq	L1111
2220  010b c60001        	ld	a,_m_byNextPage
2221  010e a1d3          	cp	a,#211
2222  0110 260f          	jrne	L7011
2223  0112               L1111:
2224                     ; 118 			screenValue(/*Page*/&m_byNextPage, &byKey);
2226  0112 aeff          	ld	x,#high(_displayAppNavigate$L-1)
2227  0114 bf02          	ld	_screenValue$L+2,x
2228  0116 a6ff          	ld	a,#low(_displayAppNavigate$L-1)
2229  0118 b703          	ld	_screenValue$L+3,a
2230  011a a601          	ld	a,#low(_m_byNextPage)
2231  011c ae01          	ld	x,#high(_m_byNextPage)
2232  011e cd0000        	call	_screenValue
2234  0121               L7011:
2235                     ; 121 		m_bySelection = mc_displayPages[m_byNextPage][2];
2237  0121 c60001        	ld	a,_m_byNextPage
2238  0124 ae17          	ld	x,#23
2239  0126 42            	mul	x,a
2240  0127 ab03          	add	a,#low(L147_mc_displayPages+2)
2241  0129 88            	push	a
2242  012a 9f            	ld	a,x
2243  012b a903          	adc	a,#high(L147_mc_displayPages+2)
2244  012d 97            	ld	x,a
2245  012e 84            	pop	a
2246  012f bf00          	ld	c_x,x
2247  0131 97            	ld	x,a
2248  0132 bf01          	ld	c_x+1,x
2249  0134 92c600        	ld	a,[c_x.w]
2250  0137 c70000        	ld	_m_bySelection,a
2251                     ; 122 		if (mc_displayPages[m_byNextPage][0] == MENU6) //Type = Menu
2253  013a c60001        	ld	a,_m_byNextPage
2254  013d ae17          	ld	x,#23
2255  013f 42            	mul	x,a
2256  0140 ab01          	add	a,#low(L147_mc_displayPages)
2257  0142 88            	push	a
2258  0143 9f            	ld	a,x
2259  0144 a901          	adc	a,#high(L147_mc_displayPages)
2260  0146 97            	ld	x,a
2261  0147 84            	pop	a
2262  0148 bf00          	ld	c_x,x
2263  014a 97            	ld	x,a
2264  014b bf01          	ld	c_x+1,x
2265  014d 92c600        	ld	a,[c_x.w]
2266  0150 a106          	cp	a,#6
2267  0152 2622          	jrne	L5211
2268                     ; 125 			screen6Menus(/*Page*/&m_byNextPage, /*Group*/&(mc_displayPages[m_byNextPage][1]), &m_bySelection);
2270  0154 ae00          	ld	x,#high(_m_bySelection)
2271  0156 bf04          	ld	_screen6Menus$L+4,x
2272  0158 a600          	ld	a,#low(_m_bySelection)
2273  015a b705          	ld	_screen6Menus$L+5,a
2274  015c c60001        	ld	a,_m_byNextPage
2275  015f ae17          	ld	x,#23
2276  0161 42            	mul	x,a
2277  0162 ab02          	add	a,#low(L147_mc_displayPages+1)
2278  0164 88            	push	a
2279  0165 9f            	ld	a,x
2280  0166 a902          	adc	a,#high(L147_mc_displayPages+1)
2281  0168 97            	ld	x,a
2282  0169 84            	pop	a
2283  016a b703          	ld	_screen6Menus$L+3,a
2284  016c bf02          	ld	_screen6Menus$L+2,x
2285  016e a601          	ld	a,#low(_m_byNextPage)
2286  0170 ae01          	ld	x,#high(_m_byNextPage)
2287  0172 cd0000        	call	_screen6Menus
2289                     ; 126 			return;
2292  0175 81            	ret
2293  0176               L5211:
2294                     ; 129 		switch (m_byNextPage)
2296  0176 c60001        	ld	a,_m_byNextPage
2298                     ; 267 			default:
2298                     ; 268 				break;
2299  0179 a004          	sub	a,#4
2300  017b 2603          	jrne	L45
2301  017d cc0225        	jp	L1101
2302  0180               L45:
2303  0180 4a            	dec	a
2304  0181 2603          	jrne	L65
2305  0183 cc02fd        	jp	L7301
2306  0186               L65:
2307  0186 a00b          	sub	a,#11
2308  0188 2603          	jrne	L06
2309  018a cc03df        	jp	L1501
2310  018d               L06:
2311  018d 4a            	dec	a
2312  018e 2603          	jrne	L26
2313  0190 cc035f        	jp	L7401
2314  0193               L26:
2315  0193 a002          	sub	a,#2
2316  0195 2603          	jrne	L46
2317  0197 cc0403        	jp	L3501
2318  019a               L46:
2319  019a a003          	sub	a,#3
2320  019c 2603          	jrne	L66
2321  019e cc031c        	jp	L1401
2322  01a1               L66:
2323  01a1 a0b3          	sub	a,#179
2324  01a3 2603          	jrne	L07
2325  01a5 cc028d        	jp	L3201
2326  01a8               L07:
2327  01a8 4a            	dec	a
2328  01a9 2603          	jrne	L27
2329  01ab cc02ec        	jp	L5301
2330  01ae               L27:
2331  01ae 4a            	dec	a
2332  01af 2711          	jreq	L7001
2333  01b1 a003          	sub	a,#3
2334  01b3 2603          	jrne	L47
2335  01b5 cc033c        	jp	L3401
2336  01b8               L47:
2337  01b8 a002          	sub	a,#2
2338  01ba 2603          	jrne	L67
2339  01bc cc0345        	jp	L5401
2340  01bf               L67:
2341  01bf cc040f        	jp	L3611
2342  01c2               L7001:
2343                     ; 131 			case PAGE_EXECUTE_OFF:
2343                     ; 132 				if (parametersGetValue(PARAM_MODE) != PARAM_MODE_OFF)
2345  01c2 a610          	ld	a,#16
2346  01c4 cd0000        	call	_parametersGetValue
2348  01c7 a102          	cp	a,#2
2349  01c9 2602          	jrne	L42
2350  01cb a300          	cp	x,#0
2351  01cd               L42:
2352  01cd 272e          	jreq	L3311
2353                     ; 134 					parametersSet(PARAM_MODE, PARAM_MODE_OFF);
2355  01cf a602          	ld	a,#2
2356  01d1 b702          	ld	_parametersSet$L+2,a
2357  01d3 3f01          	clr	_parametersSet$L+1
2358  01d5 a610          	ld	a,#16
2359  01d7 cd0000        	call	_parametersSet
2361                     ; 135 					parametersSet(PARAM_ALARM, PARAM_ALARM_OK);
2363  01da 3f01          	clr	_parametersSet$L+1
2364  01dc 3f02          	clr	_parametersSet$L+2
2365  01de a60d          	ld	a,#13
2366  01e0 cd0000        	call	_parametersSet
2368                     ; 136 					measureSetValveStatus(VALVES_CLOSED);	
2370  01e3 a680          	ld	a,#128
2371  01e5 cd0000        	call	_measureSetValveStatus
2373                     ; 138 					parametersForceChangedFlag(PARAM_REF_VISCOSITY);
2375  01e8 a60b          	ld	a,#11
2376  01ea cd0000        	call	_parametersForceChangedFlag
2378                     ; 139 					parametersForceChangedFlag(PARAM_OUT_VISCOSITY);
2380  01ed a609          	ld	a,#9
2381  01ef cd0000        	call	_parametersForceChangedFlag
2383                     ; 140 					parametersForceChangedFlag(PARAM_OUT_TEMPERATURE);
2385  01f2 a608          	ld	a,#8
2386  01f4 cd0000        	call	_parametersForceChangedFlag
2388                     ; 142 					screenUpdateCurrentScreen();
2390  01f7 cd0000        	call	_screenUpdateCurrentScreen
2393  01fa cc040f        	jp	L3611
2394  01fd               L3311:
2395                     ; 146 					screenBigStdMessage(SCREEN_STD_MSG_RESET);
2397  01fd a604          	ld	a,#4
2398  01ff cd0000        	call	_screenBigStdMessage
2400                     ; 147 					sleepFix();
2402  0202 cd0000        	call	_sleepFix
2404                     ; 148 					displayOff();
2406  0205 cd0000        	call	_displayOff
2408                     ; 149 					parametersSet(PARAM_MODE, PARAM_MODE_MANUAL);
2410  0208 3f01          	clr	_parametersSet$L+1
2411  020a 3f02          	clr	_parametersSet$L+2
2412  020c a610          	ld	a,#16
2413  020e cd0000        	call	_parametersSet
2415                     ; 150 					displayInit();
2417  0211 cd0000        	call	_displayInit
2419                     ; 151 					displayAppInit();
2421  0214 cd0000        	call	_displayAppInit
2423                     ; 152 					sleepFix();
2425  0217 cd0000        	call	_sleepFix
2427                     ; 153 					screenMain();
2429  021a cd0000        	call	_screenMain
2431                     ; 154 					measureSetValveStatus(VALVES_OPENED);
2433  021d a60a          	ld	a,#10
2434  021f cd0000        	call	_measureSetValveStatus
2436  0222 cc040f        	jp	L3611
2437  0225               L1101:
2438                     ; 158 			case PAGE_MAIN:
2438                     ; 159 				switch(byKey)
2440  0225 b6ff          	ld	a,_displayAppNavigate$L-1
2442                     ; 172 						break;
2443  0227 a008          	sub	a,#8
2444  0229 270b          	jreq	L3101
2445  022b 4a            	dec	a
2446  022c 271c          	jreq	L5101
2447  022e 4a            	dec	a
2448  022f 272e          	jreq	L7101
2449  0231 4a            	dec	a
2450  0232 2740          	jreq	L1201
2451  0234 2051          	jra	L1411
2452  0236               L3101:
2453                     ; 161 					case KEY_ARROW_UP:
2453                     ; 162 						parametersSet(PARAM_REF_VISCOSITY, parametersGetValue(PARAM_REF_VISCOSITY)+1);
2455  0236 a60b          	ld	a,#11
2456  0238 cd0000        	call	_parametersGetValue
2458  023b 4c            	inc	a
2459  023c 2601          	jrne	L62
2460  023e 5c            	inc	x
2461  023f               L62:
2462  023f b702          	ld	_parametersSet$L+2,a
2463  0241 bf01          	ld	_parametersSet$L+1,x
2464  0243 a60b          	ld	a,#11
2465  0245 cd0000        	call	_parametersSet
2467                     ; 163 						break;
2469  0248 203d          	jra	L1411
2470  024a               L5101:
2471                     ; 164 					case KEY_ARROW_DOWN:
2471                     ; 165 						parametersSet(PARAM_REF_VISCOSITY, parametersGetValue(PARAM_REF_VISCOSITY)-1);
2473  024a a60b          	ld	a,#11
2474  024c cd0000        	call	_parametersGetValue
2476  024f 4d            	tnz	a
2477  0250 2601          	jrne	L03
2478  0252 5a            	dec	x
2479  0253               L03:
2480  0253 4a            	dec	a
2481  0254 b702          	ld	_parametersSet$L+2,a
2482  0256 bf01          	ld	_parametersSet$L+1,x
2483  0258 a60b          	ld	a,#11
2484  025a cd0000        	call	_parametersSet
2486                     ; 166 						break;
2488  025d 2028          	jra	L1411
2489  025f               L7101:
2490                     ; 167 					case KEY_ARROW_UP_F:
2490                     ; 168 						parametersSet(PARAM_REF_VISCOSITY, parametersGetValue(PARAM_REF_VISCOSITY)+10);
2492  025f a60b          	ld	a,#11
2493  0261 cd0000        	call	_parametersGetValue
2495  0264 ab0a          	add	a,#10
2496  0266 2401          	jrnc	L23
2497  0268 5c            	inc	x
2498  0269               L23:
2499  0269 b702          	ld	_parametersSet$L+2,a
2500  026b bf01          	ld	_parametersSet$L+1,x
2501  026d a60b          	ld	a,#11
2502  026f cd0000        	call	_parametersSet
2504                     ; 169 						break;
2506  0272 2013          	jra	L1411
2507  0274               L1201:
2508                     ; 170 					case KEY_ARROW_DOWN_F:
2508                     ; 171 						parametersSet(PARAM_REF_VISCOSITY, parametersGetValue(PARAM_REF_VISCOSITY)-10);
2510  0274 a60b          	ld	a,#11
2511  0276 cd0000        	call	_parametersGetValue
2513  0279 a00a          	sub	a,#10
2514  027b 2401          	jrnc	L43
2515  027d 5a            	dec	x
2516  027e               L43:
2517  027e b702          	ld	_parametersSet$L+2,a
2518  0280 bf01          	ld	_parametersSet$L+1,x
2519  0282 a60b          	ld	a,#11
2520  0284 cd0000        	call	_parametersSet
2522                     ; 172 						break;
2524  0287               L1411:
2525                     ; 174 				screenMain();
2527  0287 cd0000        	call	_screenMain
2529                     ; 175 				break;
2531  028a cc040f        	jp	L3611
2532  028d               L3201:
2533                     ; 176 			case PAGE_EXECUTE_MODE:
2533                     ; 177 				switch(parametersGetValue(PARAM_MODE))
2535  028d a610          	ld	a,#16
2536  028f cd0000        	call	_parametersGetValue
2539                     ; 195 						break;
2540  0292 5d            	tnz	x
2541  0293 2651          	jrne	L5411
2542  0295 4d            	tnz	a
2543  0296 270c          	jreq	L5201
2544  0298 4a            	dec	a
2545  0299 2740          	jreq	L3301
2546  029b 4a            	dec	a
2547  029c 271e          	jreq	L1301
2548  029e a0fd          	sub	a,#253
2549  02a0 270f          	jreq	L7201
2550  02a2 2042          	jra	L5411
2551  02a4               L5201:
2552                     ; 179 					case PARAM_MODE_MANUAL:
2552                     ; 180 						parametersSet(PARAM_MODE, PARAM_MODE_AUTO);
2554  02a4 a6ff          	ld	a,#255
2555  02a6 b702          	ld	_parametersSet$L+2,a
2556  02a8 3f01          	clr	_parametersSet$L+1
2557  02aa a610          	ld	a,#16
2558  02ac cd0000        	call	_parametersSet
2560                     ; 181 						break;
2562  02af 2035          	jra	L5411
2563  02b1               L7201:
2564                     ; 182 					case PARAM_MODE_AUTO:
2564                     ; 183 						parametersSet(PARAM_MODE, PARAM_MODE_MANUAL);
2566  02b1 3f01          	clr	_parametersSet$L+1
2567  02b3 3f02          	clr	_parametersSet$L+2
2568  02b5 a610          	ld	a,#16
2569  02b7 cd0000        	call	_parametersSet
2571                     ; 184 						break;
2573  02ba 202a          	jra	L5411
2574  02bc               L1301:
2575                     ; 185 					case PARAM_MODE_OFF:
2575                     ; 186 						parametersSet(PARAM_MODE, PARAM_MODE_MANUAL);
2577  02bc 3f01          	clr	_parametersSet$L+1
2578  02be 3f02          	clr	_parametersSet$L+2
2579  02c0 a610          	ld	a,#16
2580  02c2 cd0000        	call	_parametersSet
2582                     ; 187 						parametersForceChangedFlag(PARAM_REF_VISCOSITY);
2584  02c5 a60b          	ld	a,#11
2585  02c7 cd0000        	call	_parametersForceChangedFlag
2587                     ; 188 						parametersForceChangedFlag(PARAM_OUT_VISCOSITY);
2589  02ca a609          	ld	a,#9
2590  02cc cd0000        	call	_parametersForceChangedFlag
2592                     ; 189 						parametersForceChangedFlag(PARAM_OUT_TEMPERATURE);	
2594  02cf a608          	ld	a,#8
2595  02d1 cd0000        	call	_parametersForceChangedFlag
2597                     ; 191 						measureSetValveStatus(VALVES_OPENED);						
2599  02d4 a60a          	ld	a,#10
2600  02d6 cd0000        	call	_measureSetValveStatus
2602                     ; 192 						break;
2604  02d9 200b          	jra	L5411
2605  02db               L3301:
2606                     ; 193 					case PARAM_MODE_PAUSE:
2606                     ; 194 						parametersSet(PARAM_MODE, PARAM_MODE_AUTO);
2608  02db a6ff          	ld	a,#255
2609  02dd b702          	ld	_parametersSet$L+2,a
2610  02df 3f01          	clr	_parametersSet$L+1
2611  02e1 a610          	ld	a,#16
2612  02e3 cd0000        	call	_parametersSet
2614                     ; 195 						break;
2616  02e6               L5411:
2617                     ; 197 				screenUpdateCurrentScreen();
2619  02e6 cd0000        	call	_screenUpdateCurrentScreen
2621                     ; 198 				break;
2623  02e9 cc040f        	jp	L3611
2624  02ec               L5301:
2625                     ; 199 			case PAGE_EXECUTE_PAUSE:
2625                     ; 200 				parametersSet(PARAM_MODE, PARAM_MODE_PAUSE);
2627  02ec a601          	ld	a,#1
2628  02ee b702          	ld	_parametersSet$L+2,a
2629  02f0 3f01          	clr	_parametersSet$L+1
2630  02f2 a610          	ld	a,#16
2631  02f4 cd0000        	call	_parametersSet
2633                     ; 201 				screenUpdateCurrentScreen();
2635  02f7 cd0000        	call	_screenUpdateCurrentScreen
2637                     ; 202 				break;
2639  02fa cc040f        	jp	L3611
2640  02fd               L7301:
2641                     ; 203 			case PAGE_SETUP:
2641                     ; 204 				//If not standby, go to manual
2641                     ; 205 				if (parametersGetValue(PARAM_MODE) != PARAM_MODE_OFF)
2643  02fd a610          	ld	a,#16
2644  02ff cd0000        	call	_parametersGetValue
2646  0302 a102          	cp	a,#2
2647  0304 2602          	jrne	L04
2648  0306 a300          	cp	x,#0
2649  0308               L04:
2650  0308 2709          	jreq	L7411
2651                     ; 207 					parametersSet(PARAM_MODE, PARAM_MODE_MANUAL);
2653  030a 3f01          	clr	_parametersSet$L+1
2654  030c 3f02          	clr	_parametersSet$L+2
2655  030e a610          	ld	a,#16
2656  0310 cd0000        	call	_parametersSet
2658  0313               L7411:
2659                     ; 209 				screenSetUpParameter(byKey, false);
2661  0313 4f            	clr	a
2662  0314 beff          	ld	x,_displayAppNavigate$L-1
2663  0316 cd0000        	call	_screenSetUpParameter
2665                     ; 210 				break;
2667  0319 cc040f        	jp	L3611
2668  031c               L1401:
2669                     ; 211 			case PAGE_SETUP_FULL:
2669                     ; 212 				//If not standby, go to manual
2669                     ; 213 				if (parametersGetValue(PARAM_MODE) != PARAM_MODE_OFF)
2671  031c a610          	ld	a,#16
2672  031e cd0000        	call	_parametersGetValue
2674  0321 a102          	cp	a,#2
2675  0323 2602          	jrne	L24
2676  0325 a300          	cp	x,#0
2677  0327               L24:
2678  0327 2709          	jreq	L1511
2679                     ; 215 					parametersSet(PARAM_MODE, PARAM_MODE_MANUAL);
2681  0329 3f01          	clr	_parametersSet$L+1
2682  032b 3f02          	clr	_parametersSet$L+2
2683  032d a610          	ld	a,#16
2684  032f cd0000        	call	_parametersSet
2686  0332               L1511:
2687                     ; 217 				screenSetUpParameter(byKey, true);
2689  0332 a601          	ld	a,#1
2690  0334 beff          	ld	x,_displayAppNavigate$L-1
2691  0336 cd0000        	call	_screenSetUpParameter
2693                     ; 218 				break;
2695  0339 cc040f        	jp	L3611
2696  033c               L3401:
2697                     ; 219 			case PAGE_EXECUTE_VERSION:
2697                     ; 220 				screenVersion();
2699  033c cd0000        	call	_screenVersion
2701                     ; 221 				screenMain();				
2703  033f cd0000        	call	_screenMain
2705                     ; 222 				break;
2707  0342 cc040f        	jp	L3611
2708  0345               L5401:
2709                     ; 223 			case PAGE_EXECUTE_CALIBRATION_2:
2709                     ; 224 				measureViscosityCalibration();
2711  0345 cd0000        	call	_measureViscosityCalibration
2713                     ; 225 				parametersSet(PARAM_OUT_VISCOSITY, parametersGetValue(PARAM_CALIBRATION_VALUE));
2715  0348 a604          	ld	a,#4
2716  034a cd0000        	call	_parametersGetValue
2718  034d b702          	ld	_parametersSet$L+2,a
2719  034f bf01          	ld	_parametersSet$L+1,x
2720  0351 a609          	ld	a,#9
2721  0353 cd0000        	call	_parametersSet
2723                     ; 226 				measureInit();
2725  0356 cd0000        	call	_measureInit
2727                     ; 227 				screenMain();			
2729  0359 cd0000        	call	_screenMain
2731                     ; 228 				break;
2733  035c cc040f        	jp	L3611
2734  035f               L7401:
2735                     ; 229 			case PAGE_WASHING:
2735                     ; 230 				if (parametersGetValue(PARAM_PAGE) != PAGE_WASHING)
2737  035f a60e          	ld	a,#14
2738  0361 cd0000        	call	_parametersGetValue
2740  0364 a111          	cp	a,#17
2741  0366 2602          	jrne	L44
2742  0368 a300          	cp	x,#0
2743  036a               L44:
2744  036a 2603          	jrne	L001
2745  036c cc040f        	jp	L3611
2746  036f               L001:
2747                     ; 232 					screenBigStdMessage(SCREEN_STD_MSG_CHECK_PUMP);
2749  036f a60c          	ld	a,#12
2750  0371 cd0000        	call	_screenBigStdMessage
2752                     ; 234 					measureSetValveStatus(VALVES_OPENED);
2754  0374 a60a          	ld	a,#10
2755  0376 cd0000        	call	_measureSetValveStatus
2757                     ; 235 					sleepSec(1);
2759  0379 5f            	clr	x
2760  037a a601          	ld	a,#1
2761  037c cd0000        	call	_sleepSec
2763                     ; 236 					measureSetValveStatus(VALVES_MEASURING);
2765  037f a6ff          	ld	a,#255
2766  0381 cd0000        	call	_measureSetValveStatus
2768                     ; 237 					measureUpdateViscosity();
2770  0384 cd0000        	call	_measureUpdateViscosity
2772                     ; 240 					if(parametersGetValue(PARAM_ALARM) != PARAM_ALARM_MEASURING_VISCOSITY)
2774  0387 a60d          	ld	a,#13
2775  0389 cd0000        	call	_parametersGetValue
2777  038c a101          	cp	a,#1
2778  038e 2602          	jrne	L64
2779  0390 a300          	cp	x,#0
2780  0392               L64:
2781  0392 2720          	jreq	L5511
2782                     ; 242 						parametersSet(PARAM_ALARM, PARAM_ALARM_PUMP_ON);
2784  0394 a603          	ld	a,#3
2785  0396 b702          	ld	_parametersSet$L+2,a
2786  0398 3f01          	clr	_parametersSet$L+1
2787  039a a60d          	ld	a,#13
2788  039c cd0000        	call	_parametersSet
2790                     ; 243 						screenAlarm();
2792  039f cd0000        	call	_screenAlarm
2794                     ; 244 						measureSetValveStatus(VALVES_CLOSED);
2796  03a2 a680          	ld	a,#128
2797  03a4 cd0000        	call	_measureSetValveStatus
2799                     ; 245 						parametersSet(PARAM_MODE, PARAM_MODE_OFF);
2801  03a7 a602          	ld	a,#2
2802  03a9 b702          	ld	_parametersSet$L+2,a
2803  03ab 3f01          	clr	_parametersSet$L+1
2804  03ad a610          	ld	a,#16
2805  03af cd0000        	call	_parametersSet
2808  03b2 205b          	jra	L3611
2809  03b4               L5511:
2810                     ; 249 						screenBigStdMessage(SCREEN_STD_MSG_WASHING);					
2812  03b4 a601          	ld	a,#1
2813  03b6 cd0000        	call	_screenBigStdMessage
2815                     ; 250 						measureSetValveStatus(VALVES_WASH);
2817  03b9 a60c          	ld	a,#12
2818  03bb cd0000        	call	_measureSetValveStatus
2820                     ; 251 						parametersSet(PARAM_MODE, PARAM_MODE_OFF);
2822  03be a602          	ld	a,#2
2823  03c0 b702          	ld	_parametersSet$L+2,a
2824  03c2 3f01          	clr	_parametersSet$L+1
2825  03c4 a610          	ld	a,#16
2826  03c6 cd0000        	call	_parametersSet
2828                     ; 252 						parametersSet(PARAM_ALARM, PARAM_ALARM_OK);
2830  03c9 3f01          	clr	_parametersSet$L+1
2831  03cb 3f02          	clr	_parametersSet$L+2
2832  03cd a60d          	ld	a,#13
2833  03cf cd0000        	call	_parametersSet
2835                     ; 253 						parametersSet(PARAM_PAGE, PAGE_WASHING);
2837  03d2 a611          	ld	a,#17
2838  03d4 b702          	ld	_parametersSet$L+2,a
2839  03d6 3f01          	clr	_parametersSet$L+1
2840  03d8 a60e          	ld	a,#14
2841  03da cd0000        	call	_parametersSet
2843  03dd 2030          	jra	L3611
2844  03df               L1501:
2845                     ; 257 			case PAGE_ADD_SOLVENT:
2845                     ; 258 				if (parametersGetValue(PARAM_PAGE) != PAGE_ADD_SOLVENT)
2847  03df a60e          	ld	a,#14
2848  03e1 cd0000        	call	_parametersGetValue
2850  03e4 a110          	cp	a,#16
2851  03e6 2602          	jrne	L05
2852  03e8 a300          	cp	x,#0
2853  03ea               L05:
2854  03ea 2723          	jreq	L3611
2855                     ; 260 					measureSetValveStatus(VALVES_ADDSOLVENT);
2857  03ec a606          	ld	a,#6
2858  03ee cd0000        	call	_measureSetValveStatus
2860                     ; 261 					screenBigStdMessage(SCREEN_STD_MSG_ADDING_SOLVENT);
2862  03f1 a602          	ld	a,#2
2863  03f3 cd0000        	call	_screenBigStdMessage
2865                     ; 262 					parametersSet(PARAM_PAGE, PAGE_ADD_SOLVENT);
2867  03f6 a610          	ld	a,#16
2868  03f8 b702          	ld	_parametersSet$L+2,a
2869  03fa 3f01          	clr	_parametersSet$L+1
2870  03fc a60e          	ld	a,#14
2871  03fe cd0000        	call	_parametersSet
2873  0401 200c          	jra	L3611
2874  0403               L3501:
2875                     ; 265 			case PAGE_HISTORY_VALUE:
2875                     ; 266 				screenHistoricalValues();
2877  0403 cd0000        	call	_screenHistoricalValues
2879  0406 2007          	jra	L3611
2880  0408               L5501:
2881                     ; 267 			default:
2881                     ; 268 				break;
2883  0408 2005          	jra	L3611
2884  040a               L1311:
2886  040a 2003          	jra	L3611
2887  040c               L5701:
2888                     ; 273 		screenUpdateCurrentScreen();		
2890  040c cd0000        	call	_screenUpdateCurrentScreen
2892  040f               L3611:
2893                     ; 275 }
2896  040f 81            	ret
2935                     ; 278 void displayAppManageCorrection(void)
2935                     ; 279 {
2936                     	switch	.text
2938                     	xref.b	_displayAppManageCorrection$L
2939  0410               _displayAppManageCorrection:
2942                     ; 282 	if (
2942                     ; 283 		(parametersGetValue(PARAM_CALC_VISCOSITY)>parametersGetValue(PARAM_REF_VISCOSITY)) &&
2942                     ; 284 		(parametersGetValue(PARAM_MODE) == PARAM_MODE_AUTO)
2942                     ; 285 	   )
2944  0410 a602          	ld	a,#2
2945  0412 cd0000        	call	_parametersGetValue
2947  0415 b7fb          	ld	_displayAppManageCorrection$L-5,a
2948  0417 bffa          	ld	_displayAppManageCorrection$L-6,x
2949  0419 a60b          	ld	a,#11
2950  041b cd0000        	call	_parametersGetValue
2952  041e b0fb          	sub	a,_displayAppManageCorrection$L-5
2953  0420 9f            	ld	a,x
2954  0421 b2fa          	sbc	a,_displayAppManageCorrection$L-6
2955  0423 2503          	jrult	L411
2956  0425 cc04e5        	jp	L3021
2957  0428               L411:
2959  0428 a610          	ld	a,#16
2960  042a cd0000        	call	_parametersGetValue
2962  042d a1ff          	cp	a,#255
2963  042f 2602          	jrne	L401
2964  0431 a300          	cp	x,#0
2965  0433               L401:
2966  0433 2703          	jreq	L611
2967  0435 cc04e5        	jp	L3021
2968  0438               L611:
2969                     ; 287 		lwoTime = (LWORD)(
2969                     ; 288 							(
2969                     ; 289 								(double) parametersGetValue(PARAM_CALC_VISCOSITY)-
2969                     ; 290 								(double) parametersGetValue(PARAM_REF_VISCOSITY)
2969                     ; 291 							) * 
2969                     ; 292 							((double) parametersGetValue(PARAM_VISCOSITY_GAIN) *10.0)
2969                     ; 293 						 );
2971  0438 a613          	ld	a,#19
2972  043a cd0000        	call	_parametersGetValue
2974  043d cd0000        	call	c_uitof
2976  0440 ae12          	ld	x,#high(L1121)
2977  0442 bf00          	ld	c_x,x
2978  0444 ae12          	ld	x,#low(L1121)
2979  0446 cd0000        	call	c_xfmul
2981  0449 aef8          	ld	x,#_displayAppManageCorrection$L-8
2982  044b cd0000        	call	c_rtol
2984  044e a60b          	ld	a,#11
2985  0450 cd0000        	call	_parametersGetValue
2987  0453 cd0000        	call	c_uitof
2989  0456 aef4          	ld	x,#_displayAppManageCorrection$L-12
2990  0458 cd0000        	call	c_rtol
2992  045b a602          	ld	a,#2
2993  045d cd0000        	call	_parametersGetValue
2995  0460 cd0000        	call	c_uitof
2997  0463 aef4          	ld	x,#_displayAppManageCorrection$L-12
2998  0465 cd0000        	call	c_fsub
3000  0468 aef8          	ld	x,#_displayAppManageCorrection$L-8
3001  046a cd0000        	call	c_fmul
3003  046d cd0000        	call	c_ftol
3005  0470 aefc          	ld	x,#_displayAppManageCorrection$L-4
3006  0472 cd0000        	call	c_rtol
3008                     ; 295 		if (lwoTime > ((LWORD) 10 * (LWORD) parametersGetValue(PARAM_VISCOSITY_DEAD_ZONE) ))
3010  0475 a614          	ld	a,#20
3011  0477 cd0000        	call	_parametersGetValue
3013  047a 90ae0a        	ld	y,#10
3014  047d cd0000        	call	c_cmul
3016  0480 aefc          	ld	x,#_displayAppManageCorrection$L-4
3017  0482 cd0000        	call	c_lcmp
3019  0485 245e          	jruge	L3021
3020                     ; 297 			if (parametersGetValue(PARAM_MAX_CORRECTION) != 0x0000)
3022  0487 a629          	ld	a,#41
3023  0489 cd0000        	call	_parametersGetValue
3025  048c 4d            	tnz	a
3026  048d 2601          	jrne	L601
3027  048f 5d            	tnz	x
3028  0490               L601:
3029  0490 2729          	jreq	L7121
3030                     ; 299 				lwoTime = MIN(lwoTime, (LWORD) 20 * (LWORD) parametersGetValue(PARAM_MAX_CORRECTION));
3032  0492 a629          	ld	a,#41
3033  0494 cd0000        	call	_parametersGetValue
3035  0497 90ae14        	ld	y,#20
3036  049a cd0000        	call	c_cmul
3038  049d aefc          	ld	x,#_displayAppManageCorrection$L-4
3039  049f cd0000        	call	c_lcmp
3041  04a2 240d          	jruge	L011
3042  04a4 a629          	ld	a,#41
3043  04a6 cd0000        	call	_parametersGetValue
3045  04a9 90ae14        	ld	y,#20
3046  04ac cd0000        	call	c_cmul
3048  04af 2005          	jra	L211
3049  04b1               L011:
3050  04b1 aefc          	ld	x,#_displayAppManageCorrection$L-4
3051  04b3 cd0000        	call	c_ltor
3053  04b6               L211:
3054  04b6 aefc          	ld	x,#_displayAppManageCorrection$L-4
3055  04b8 cd0000        	call	c_rtol
3057  04bb               L7121:
3058                     ; 302 			measureSetValveStatus(VALVES_ADDSOLVENT);
3060  04bb a606          	ld	a,#6
3061  04bd cd0000        	call	_measureSetValveStatus
3063                     ; 303 			screenUpdateCurrentScreen();
3065  04c0 cd0000        	call	_screenUpdateCurrentScreen
3068  04c3 2001          	jra	L3221
3069  04c5               L1221:
3070                     ; 309 				Nop();
3073  04c5 9d            nop
3075  04c6               L3221:
3076                     ; 304 			while(
3076                     ; 305 					(lwoTime-->0) &&
3076                     ; 306 					(!displayIsKeyPressed())
3076                     ; 307 			     )
3078  04c6 aefc          	ld	x,#_displayAppManageCorrection$L-4
3079  04c8 cd0000        	call	c_ltor
3081  04cb aefc          	ld	x,#_displayAppManageCorrection$L-4
3082  04cd a601          	ld	a,#1
3083  04cf cd0000        	call	c_lgsbc
3085  04d2 cd0000        	call	c_lrzmp
3087  04d5 2706          	jreq	L7221
3089  04d7 cd0000        	call	_displayIsKeyPressed
3091  04da 4d            	tnz	a
3092  04db 27e8          	jreq	L1221
3093  04dd               L7221:
3094                     ; 311 			measureSetValveStatus(VALVES_OPENED);
3096  04dd a60a          	ld	a,#10
3097  04df cd0000        	call	_measureSetValveStatus
3099                     ; 312 			screenUpdateCurrentScreen();
3101  04e2 cd0000        	call	_screenUpdateCurrentScreen
3103  04e5               L3021:
3104                     ; 315 }
3107  04e5 81            	ret
3157                     ; 319 void displayAppLoop(void)
3157                     ; 320 {
3158                     	switch	.text
3160                     	xref.b	_displayAppLoop$L
3161  04e6               _displayAppLoop:
3164                     ; 323 	screenMain();
3166  04e6 cd0000        	call	_screenMain
3168                     ; 324 	if (parametersGetValue(PARAM_MODE)!=PARAM_MODE_OFF)
3170  04e9 a610          	ld	a,#16
3171  04eb cd0000        	call	_parametersGetValue
3173  04ee a102          	cp	a,#2
3174  04f0 2602          	jrne	L221
3175  04f2 a300          	cp	x,#0
3176  04f4               L221:
3177  04f4 2705          	jreq	L3521
3178                     ; 326 		measureSetValveStatus(VALVES_OPENED);
3180  04f6 a60a          	ld	a,#10
3181  04f8 cd0000        	call	_measureSetValveStatus
3183  04fb               L3521:
3184                     ; 328 	byDifferentMeasure = 1;
3186  04fb a601          	ld	a,#1
3187  04fd b7fb          	ld	_displayAppLoop$L-5,a
3188  04ff               L5521:
3189                     ; 333 		lwoTimeout = (0x0000073A * (LWORD)parametersGetValue(PARAM_INTERMEASURE)) / byDifferentMeasure;
3191  04ff b6fb          	ld	a,_displayAppLoop$L-5
3192  0501 b703          	ld	c_lreg+3,a
3193  0503 4f            	clr	a
3194  0504 b702          	ld	c_lreg+2,a
3195  0506 b701          	ld	c_lreg+1,a
3196  0508 b700          	ld	c_lreg,a
3197  050a aef7          	ld	x,#_displayAppLoop$L-9
3198  050c cd0000        	call	c_rtol
3200  050f a615          	ld	a,#21
3201  0511 cd0000        	call	_parametersGetValue
3203  0514 90ae07        	ld	y,#7
3204  0517 90bf00        	ld	c_y,y
3205  051a 90ae3a        	ld	y,#58
3206  051d cd0000        	call	c_umul
3208  0520 aef7          	ld	x,#_displayAppLoop$L-9
3209  0522 cd0000        	call	c_ludv
3211  0525 aefc          	ld	x,#_displayAppLoop$L-4
3212  0527 cd0000        	call	c_rtol
3215  052a 2003          	jra	L5621
3216  052c               L1621:
3217                     ; 336 			displayAppNavigate();
3219  052c cd0023        	call	_displayAppNavigate
3221  052f               L5621:
3222                     ; 334 		while(lwoTimeout-->0)
3224  052f aefc          	ld	x,#_displayAppLoop$L-4
3225  0531 cd0000        	call	c_ltor
3227  0534 aefc          	ld	x,#_displayAppLoop$L-4
3228  0536 a601          	ld	a,#1
3229  0538 cd0000        	call	c_lgsbc
3231  053b cd0000        	call	c_lrzmp
3233  053e 26ec          	jrne	L1621
3234                     ; 338 		if(
3234                     ; 339 				(parametersGetValue(PARAM_PAGE) == PAGE_MAIN) || 
3234                     ; 340 				(parametersGetValue(PARAM_PAGE) == PAGE_HISTORY_VALUE)
3234                     ; 341 			)
3236  0540 a60e          	ld	a,#14
3237  0542 cd0000        	call	_parametersGetValue
3239  0545 a104          	cp	a,#4
3240  0547 2602          	jrne	L421
3241  0549 a300          	cp	x,#0
3242  054b               L421:
3243  054b 270d          	jreq	L3721
3245  054d a60e          	ld	a,#14
3246  054f cd0000        	call	_parametersGetValue
3248  0552 a113          	cp	a,#19
3249  0554 2602          	jrne	L621
3250  0556 a300          	cp	x,#0
3251  0558               L621:
3252  0558 26a5          	jrne	L5521
3253  055a               L3721:
3254                     ; 343 			if  (parametersGetValue(PARAM_VALVES) == VALVES_OPENED)
3256  055a a611          	ld	a,#17
3257  055c cd0000        	call	_parametersGetValue
3259  055f a10a          	cp	a,#10
3260  0561 2602          	jrne	L031
3261  0563 a300          	cp	x,#0
3262  0565               L031:
3263  0565 2698          	jrne	L5521
3264                     ; 347 				measureSetValveStatus(VALVES_MEASURING);
3266  0567 a6ff          	ld	a,#255
3267  0569 cd0000        	call	_measureSetValveStatus
3269                     ; 348 				displayAppNavigate();
3271  056c cd0023        	call	_displayAppNavigate
3273                     ; 349 				measureSetValveStatus(VALVES_OPENED);
3275  056f a60a          	ld	a,#10
3276  0571 cd0000        	call	_measureSetValveStatus
3278                     ; 350 				measureUpdateTemperature();
3280  0574 cd0000        	call	_measureUpdateTemperature
3282                     ; 351 				if (parametersGetValue(PARAM_ALARM) == PARAM_ALARM_OK)
3284  0577 a60d          	ld	a,#13
3285  0579 cd0000        	call	_parametersGetValue
3287  057c 4d            	tnz	a
3288  057d 2601          	jrne	L231
3289  057f 5d            	tnz	x
3290  0580               L231:
3291  0580 2603          	jrne	L7721
3292                     ; 353 					measureUpdateViscosity();
3294  0582 cd0000        	call	_measureUpdateViscosity
3296  0585               L7721:
3297                     ; 355 				byDifferentMeasure = measureCalculation();
3299  0585 cd0000        	call	_measureCalculation
3301  0588 b7fb          	ld	_displayAppLoop$L-5,a
3302                     ; 356 				displayAppManageCorrection();
3304  058a cd0410        	call	_displayAppManageCorrection
3306  058d cc04ff        	jp	L5521
3349                     	xdef	_displayAppManageCorrection
3350                     	xdef	_displayAppRefreshVisualization
3351                     	xdef	_displayAppNavigate
3352                     	switch	.bss
3353  0000               _m_bySelection:
3354  0000 00            	ds.b	1
3355                     	xdef	_m_bySelection
3356  0001               _m_byNextPage:
3357  0001 00            	ds.b	1
3358                     	xdef	_m_byNextPage
3359                     	xref	_sleepFix
3360                     	xref	_sleepSec
3361                     	xdef	_displayAppLoop
3362                     	xdef	_displayAppInit
3363                     	xref	_screenHistoricalValues
3364                     	xref	_screenVersion
3365                     	xref	_screenSetUpParameter
3366                     	xref	_screenValue
3367                     	xref	_screen6Menus
3368                     	xref	_screenBigStdMessage
3369                     	xref	_screenAlarm
3370                     	xref	_screenMain
3371                     	xref	_screenUpdateCurrentScreen
3372                     	xref	_screenInit
3373                     	xref	_displayOff
3374                     	xref	_displayIsKeyPressed
3375                     	xref	_displayKeyPressedReset
3376                     	xref	_displayGetKeyPressed
3377                     	xref	_displayInit
3378                     	xref	_measureViscosityCalibration
3379                     	xref	_measureCalculation
3380                     	xref	_measureSetValveStatus
3381                     	xref	_measureUpdateViscosity
3382                     	xref	_measureUpdateTemperature
3383                     	xref	_measureInit
3384                     	xref	_parametersForceChangedFlag
3385                     	xref	_parametersSet
3386                     	xref	_parametersGetValue
3387                     	xref	_parametersInit
3388                     	switch	.const
3389  0212               L1121:
3390  0212 41200000      	dc.w	16672,0
3391                     	xref.b	c_lreg
3392                     	xref.b	c_x
3393                     	xref.b	c_y
3413                     	xref	c_ludv
3414                     	xref	c_umul
3415                     	xref	c_lrzmp
3416                     	xref	c_lgsbc
3417                     	xref	c_ltor
3418                     	xref	c_lcmp
3419                     	xref	c_cmul
3420                     	xref	c_ftol
3421                     	xref	c_fmul
3422                     	xref	c_xfmul
3423                     	xref	c_fsub
3424                     	xref	c_rtol
3425                     	xref	c_uitof
3426                     	xref	c_imul
3427                     	xref.b	_screen6Menus$L
3428                     	xref.b	_screenValue$L
3429                     	xref.b	_parametersSet$L
3430                     	end
