   1                     ; C Compiler for ST7 (COSMIC Software)
   2                     ; Generator V4.5.5 - 12 Jan 2006
1280                     .const:	section	.text
1281  0000               L327_mc_byApplicationVersion:
1282  0000 9d            	dc.b	157
1313                     	switch	.const
1314  0001               L147_mc_displayPages:
1315  0001 00            	dc.b	0
1316  0002 00            	dc.b	0
1317  0003 00            	dc.b	0
1318  0004 00            	dc.b	0
1319  0005 00            	dc.b	0
1320  0006 00            	dc.b	0
1321  0007 00            	dc.b	0
1322  0008 00            	dc.b	0
1323  0009 00            	dc.b	0
1324  000a 00            	dc.b	0
1325  000b 00            	dc.b	0
1326  000c 00            	dc.b	0
1327  000d 00            	dc.b	0
1328  000e 00            	dc.b	0
1329  000f 00            	dc.b	0
1330  0010 00            	dc.b	0
1331  0011 00            	dc.b	0
1332  0012 00            	dc.b	0
1333  0013 00            	dc.b	0
1334  0014 00            	dc.b	0
1335  0015 00            	dc.b	0
1336  0016 00            	dc.b	0
1337  0017 00            	dc.b	0
1338  0018 00            	dc.b	0
1339  0019 00            	dc.b	0
1340  001a 00            	dc.b	0
1341  001b 00            	dc.b	0
1342  001c 00            	dc.b	0
1343  001d 00            	dc.b	0
1344  001e 00            	dc.b	0
1345  001f 00            	dc.b	0
1346  0020 00            	dc.b	0
1347  0021 00            	dc.b	0
1348  0022 00            	dc.b	0
1349  0023 00            	dc.b	0
1350  0024 00            	dc.b	0
1351  0025 00            	dc.b	0
1352  0026 00            	dc.b	0
1353  0027 00            	dc.b	0
1354  0028 00            	dc.b	0
1355  0029 00            	dc.b	0
1356  002a 00            	dc.b	0
1357  002b 00            	dc.b	0
1358  002c 00            	dc.b	0
1359  002d 00            	dc.b	0
1360  002e 00            	dc.b	0
1361  002f 00            	dc.b	0
1362  0030 00            	dc.b	0
1363  0031 00            	dc.b	0
1364  0032 04            	dc.b	4
1365  0033 04            	dc.b	4
1366  0034 08            	dc.b	8
1367  0035 0d            	dc.b	13
1368  0036 19            	dc.b	25
1369  0037 1a            	dc.b	26
1370  0038 13            	dc.b	19
1371  0039 db            	dc.b	219
1372  003a da            	dc.b	218
1373  003b d9            	dc.b	217
1374  003c 00            	dc.b	0
1375  003d 00            	dc.b	0
1376  003e 00            	dc.b	0
1377  003f 00            	dc.b	0
1378  0040 00            	dc.b	0
1379  0041 00            	dc.b	0
1380  0042 00            	dc.b	0
1381  0043 00            	dc.b	0
1382  0044 00            	dc.b	0
1383  0045 00            	dc.b	0
1384  0046 00            	dc.b	0
1385  0047 00            	dc.b	0
1386  0048 00            	dc.b	0
1387  0049 00            	dc.b	0
1388  004a 00            	dc.b	0
1389  004b 00            	dc.b	0
1390  004c 00            	dc.b	0
1391  004d 00            	dc.b	0
1392  004e 00            	dc.b	0
1393  004f 00            	dc.b	0
1394  0050 00            	dc.b	0
1395  0051 00            	dc.b	0
1396  0052 00            	dc.b	0
1397  0053 00            	dc.b	0
1398  0054 00            	dc.b	0
1399  0055 00            	dc.b	0
1400  0056 04            	dc.b	4
1401  0057 04            	dc.b	4
1402  0058 08            	dc.b	8
1403  0059 0d            	dc.b	13
1404  005a 19            	dc.b	25
1405  005b 1a            	dc.b	26
1406  005c 13            	dc.b	19
1407  005d db            	dc.b	219
1408  005e da            	dc.b	218
1409  005f d9            	dc.b	217
1410  0060 00            	dc.b	0
1411  0061 00            	dc.b	0
1412  0062 00            	dc.b	0
1413  0063 00            	dc.b	0
1414  0064 00            	dc.b	0
1415  0065 00            	dc.b	0
1416  0066 00            	dc.b	0
1417  0067 00            	dc.b	0
1418  0068 00            	dc.b	0
1419  0069 00            	dc.b	0
1420  006a 00            	dc.b	0
1421  006b 00            	dc.b	0
1422  006c 00            	dc.b	0
1423  006d 00            	dc.b	0
1424  006e 00            	dc.b	0
1425  006f 00            	dc.b	0
1426  0070 00            	dc.b	0
1427  0071 00            	dc.b	0
1428  0072 00            	dc.b	0
1429  0073 00            	dc.b	0
1430  0074 00            	dc.b	0
1431  0075 00            	dc.b	0
1432  0076 00            	dc.b	0
1433  0077 00            	dc.b	0
1434  0078 00            	dc.b	0
1435  0079 00            	dc.b	0
1436  007a 04            	dc.b	4
1437  007b 04            	dc.b	4
1438  007c 08            	dc.b	8
1439  007d 0d            	dc.b	13
1440  007e 19            	dc.b	25
1441  007f 1a            	dc.b	26
1442  0080 13            	dc.b	19
1443  0081 db            	dc.b	219
1444  0082 da            	dc.b	218
1445  0083 d9            	dc.b	217
1446  0084 00            	dc.b	0
1447  0085 00            	dc.b	0
1448  0086 00            	dc.b	0
1449  0087 00            	dc.b	0
1450  0088 26            	dc.b	38
1451  0089 27            	dc.b	39
1452  008a 28            	dc.b	40
1453  008b 29            	dc.b	41
1454  008c 00            	dc.b	0
1455  008d 00            	dc.b	0
1456  008e 00            	dc.b	0
1457  008f 00            	dc.b	0
1458  0090 00            	dc.b	0
1459  0091 00            	dc.b	0
1460  0092 00            	dc.b	0
1461  0093 00            	dc.b	0
1462  0094 00            	dc.b	0
1463  0095 00            	dc.b	0
1464  0096 00            	dc.b	0
1465  0097 00            	dc.b	0
1466  0098 00            	dc.b	0
1467  0099 00            	dc.b	0
1468  009a 00            	dc.b	0
1469  009b 00            	dc.b	0
1470  009c 00            	dc.b	0
1471  009d 00            	dc.b	0
1472  009e 00            	dc.b	0
1473  009f 00            	dc.b	0
1474  00a0 08            	dc.b	8
1475  00a1 0d            	dc.b	13
1476  00a2 19            	dc.b	25
1477  00a3 1a            	dc.b	26
1478  00a4 13            	dc.b	19
1479  00a5 db            	dc.b	219
1480  00a6 da            	dc.b	218
1481  00a7 d9            	dc.b	217
1482  00a8 00            	dc.b	0
1483  00a9 00            	dc.b	0
1484  00aa 00            	dc.b	0
1485  00ab 00            	dc.b	0
1486  00ac 26            	dc.b	38
1487  00ad 27            	dc.b	39
1488  00ae 28            	dc.b	40
1489  00af 29            	dc.b	41
1490  00b0 00            	dc.b	0
1491  00b1 00            	dc.b	0
1492  00b2 00            	dc.b	0
1493  00b3 00            	dc.b	0
1494  00b4 00            	dc.b	0
1495  00b5 00            	dc.b	0
1496  00b6 00            	dc.b	0
1497  00b7 00            	dc.b	0
1498  00b8 00            	dc.b	0
1499  00b9 00            	dc.b	0
1500  00ba 00            	dc.b	0
1501  00bb 00            	dc.b	0
1502  00bc 00            	dc.b	0
1503  00bd 00            	dc.b	0
1504  00be 00            	dc.b	0
1505  00bf 00            	dc.b	0
1506  00c0 00            	dc.b	0
1507  00c1 00            	dc.b	0
1508  00c2 04            	dc.b	4
1509  00c3 04            	dc.b	4
1510  00c4 08            	dc.b	8
1511  00c5 0d            	dc.b	13
1512  00c6 19            	dc.b	25
1513  00c7 1a            	dc.b	26
1514  00c8 13            	dc.b	19
1515  00c9 db            	dc.b	219
1516  00ca da            	dc.b	218
1517  00cb d9            	dc.b	217
1518  00cc dc            	dc.b	220
1519  00cd dd            	dc.b	221
1520  00ce 00            	dc.b	0
1521  00cf 00            	dc.b	0
1522  00d0 26            	dc.b	38
1523  00d1 27            	dc.b	39
1524  00d2 28            	dc.b	40
1525  00d3 29            	dc.b	41
1526  00d4 d8            	dc.b	216
1527  00d5 d7            	dc.b	215
1528  00d6 d6            	dc.b	214
1529  00d7 d5            	dc.b	213
1530  00d8 00            	dc.b	0
1531  00d9 00            	dc.b	0
1532  00da 00            	dc.b	0
1533  00db 00            	dc.b	0
1534  00dc 00            	dc.b	0
1535  00dd 00            	dc.b	0
1536  00de 00            	dc.b	0
1537  00df 00            	dc.b	0
1538  00e0 00            	dc.b	0
1539  00e1 00            	dc.b	0
1540  00e2 00            	dc.b	0
1541  00e3 00            	dc.b	0
1542  00e4 00            	dc.b	0
1543  00e5 00            	dc.b	0
1544  00e6 cb            	dc.b	203
1545  00e7 04            	dc.b	4
1546  00e8 08            	dc.b	8
1547  00e9 0d            	dc.b	13
1548  00ea 19            	dc.b	25
1549  00eb 1a            	dc.b	26
1550  00ec 13            	dc.b	19
1551  00ed db            	dc.b	219
1552  00ee 00            	dc.b	0
1553  00ef 00            	dc.b	0
1554  00f0 dc            	dc.b	220
1555  00f1 dd            	dc.b	221
1556  00f2 00            	dc.b	0
1557  00f3 00            	dc.b	0
1558  00f4 00            	dc.b	0
1559  00f5 00            	dc.b	0
1560  00f6 00            	dc.b	0
1561  00f7 00            	dc.b	0
1562  00f8 d7            	dc.b	215
1563  00f9 d8            	dc.b	216
1564  00fa d6            	dc.b	214
1565  00fb d5            	dc.b	213
1566  00fc 00            	dc.b	0
1567  00fd 00            	dc.b	0
1568  00fe 00            	dc.b	0
1569  00ff 00            	dc.b	0
1570  0100 00            	dc.b	0
1571  0101 00            	dc.b	0
1572  0102 00            	dc.b	0
1573  0103 00            	dc.b	0
1574  0104 00            	dc.b	0
1575  0105 00            	dc.b	0
1576  0106 00            	dc.b	0
1577  0107 00            	dc.b	0
1578  0108 00            	dc.b	0
1579  0109 00            	dc.b	0
1580  010a 04            	dc.b	4
1581  010b 04            	dc.b	4
1582  010c 08            	dc.b	8
1583  010d 0d            	dc.b	13
1584  010e 19            	dc.b	25
1585  010f 1a            	dc.b	26
1586  0110 13            	dc.b	19
1587  0111 db            	dc.b	219
1588  0112 00            	dc.b	0
1589  0113 00            	dc.b	0
1590  0114 dc            	dc.b	220
1591  0115 dd            	dc.b	221
1592  0116 00            	dc.b	0
1593  0117 00            	dc.b	0
1594  0118 00            	dc.b	0
1595  0119 00            	dc.b	0
1596  011a 00            	dc.b	0
1597  011b 00            	dc.b	0
1598  011c d8            	dc.b	216
1599  011d d7            	dc.b	215
1600  011e d6            	dc.b	214
1601  011f d5            	dc.b	213
1602  0120 00            	dc.b	0
1603  0121 06            	dc.b	6
1604  0122 01            	dc.b	1
1605  0123 01            	dc.b	1
1606  0124 00            	dc.b	0
1607  0125 c9            	dc.b	201
1608  0126 00            	dc.b	0
1609  0127 06            	dc.b	6
1610  0128 cc            	dc.b	204
1611  0129 cd            	dc.b	205
1612  012a 07            	dc.b	7
1613  012b 00            	dc.b	0
1614  012c 00            	dc.b	0
1615  012d 00            	dc.b	0
1616  012e c9            	dc.b	201
1617  012f 04            	dc.b	4
1618  0130 09            	dc.b	9
1619  0131 0d            	dc.b	13
1620  0132 19            	dc.b	25
1621  0133 1a            	dc.b	26
1622  0134 13            	dc.b	19
1623  0135 db            	dc.b	219
1624  0136 00            	dc.b	0
1625  0137 00            	dc.b	0
1626  0138 00            	dc.b	0
1627  0139 09            	dc.b	9
1628  013a 00            	dc.b	0
1629  013b 0a            	dc.b	10
1630  013c 00            	dc.b	0
1631  013d 00            	dc.b	0
1632  013e 00            	dc.b	0
1633  013f 00            	dc.b	0
1634  0140 00            	dc.b	0
1635  0141 00            	dc.b	0
1636  0142 00            	dc.b	0
1637  0143 00            	dc.b	0
1638  0144 00            	dc.b	0
1639  0145 06            	dc.b	6
1640  0146 01            	dc.b	1
1641  0147 03            	dc.b	3
1642  0148 00            	dc.b	0
1643  0149 c9            	dc.b	201
1644  014a 00            	dc.b	0
1645  014b 06            	dc.b	6
1646  014c cc            	dc.b	204
1647  014d cd            	dc.b	205
1648  014e 07            	dc.b	7
1649  014f 00            	dc.b	0
1650  0150 00            	dc.b	0
1651  0151 00            	dc.b	0
1652  0152 06            	dc.b	6
1653  0153 04            	dc.b	4
1654  0154 0a            	dc.b	10
1655  0155 0d            	dc.b	13
1656  0156 19            	dc.b	25
1657  0157 1a            	dc.b	26
1658  0158 13            	dc.b	19
1659  0159 db            	dc.b	219
1660  015a 00            	dc.b	0
1661  015b 00            	dc.b	0
1662  015c 08            	dc.b	8
1663  015d 0a            	dc.b	10
1664  015e 00            	dc.b	0
1665  015f 0c            	dc.b	12
1666  0160 00            	dc.b	0
1667  0161 00            	dc.b	0
1668  0162 00            	dc.b	0
1669  0163 00            	dc.b	0
1670  0164 00            	dc.b	0
1671  0165 00            	dc.b	0
1672  0166 00            	dc.b	0
1673  0167 00            	dc.b	0
1674  0168 00            	dc.b	0
1675  0169 06            	dc.b	6
1676  016a 01            	dc.b	1
1677  016b 04            	dc.b	4
1678  016c 00            	dc.b	0
1679  016d c9            	dc.b	201
1680  016e 00            	dc.b	0
1681  016f 06            	dc.b	6
1682  0170 cc            	dc.b	204
1683  0171 cd            	dc.b	205
1684  0172 07            	dc.b	7
1685  0173 00            	dc.b	0
1686  0174 00            	dc.b	0
1687  0175 00            	dc.b	0
1688  0176 cc            	dc.b	204
1689  0177 04            	dc.b	4
1690  0178 0b            	dc.b	11
1691  0179 0d            	dc.b	13
1692  017a 19            	dc.b	25
1693  017b 1a            	dc.b	26
1694  017c 13            	dc.b	19
1695  017d db            	dc.b	219
1696  017e 00            	dc.b	0
1697  017f 00            	dc.b	0
1698  0180 09            	dc.b	9
1699  0181 0b            	dc.b	11
1700  0182 08            	dc.b	8
1701  0183 00            	dc.b	0
1702  0184 00            	dc.b	0
1703  0185 00            	dc.b	0
1704  0186 00            	dc.b	0
1705  0187 00            	dc.b	0
1706  0188 00            	dc.b	0
1707  0189 00            	dc.b	0
1708  018a 00            	dc.b	0
1709  018b 00            	dc.b	0
1710  018c 00            	dc.b	0
1711  018d 06            	dc.b	6
1712  018e 01            	dc.b	1
1713  018f 05            	dc.b	5
1714  0190 00            	dc.b	0
1715  0191 c9            	dc.b	201
1716  0192 00            	dc.b	0
1717  0193 06            	dc.b	6
1718  0194 cc            	dc.b	204
1719  0195 cd            	dc.b	205
1720  0196 07            	dc.b	7
1721  0197 00            	dc.b	0
1722  0198 00            	dc.b	0
1723  0199 00            	dc.b	0
1724  019a cd            	dc.b	205
1725  019b 04            	dc.b	4
1726  019c 0c            	dc.b	12
1727  019d 0d            	dc.b	13
1728  019e 19            	dc.b	25
1729  019f 1a            	dc.b	26
1730  01a0 13            	dc.b	19
1731  01a1 db            	dc.b	219
1732  01a2 00            	dc.b	0
1733  01a3 00            	dc.b	0
1734  01a4 0a            	dc.b	10
1735  01a5 0c            	dc.b	12
1736  01a6 00            	dc.b	0
1737  01a7 00            	dc.b	0
1738  01a8 00            	dc.b	0
1739  01a9 00            	dc.b	0
1740  01aa 00            	dc.b	0
1741  01ab 00            	dc.b	0
1742  01ac 00            	dc.b	0
1743  01ad 00            	dc.b	0
1744  01ae 00            	dc.b	0
1745  01af 00            	dc.b	0
1746  01b0 00            	dc.b	0
1747  01b1 06            	dc.b	6
1748  01b2 01            	dc.b	1
1749  01b3 06            	dc.b	6
1750  01b4 00            	dc.b	0
1751  01b5 c9            	dc.b	201
1752  01b6 00            	dc.b	0
1753  01b7 06            	dc.b	6
1754  01b8 cc            	dc.b	204
1755  01b9 cd            	dc.b	205
1756  01ba 07            	dc.b	7
1757  01bb 00            	dc.b	0
1758  01bc 00            	dc.b	0
1759  01bd 00            	dc.b	0
1760  01be 07            	dc.b	7
1761  01bf 04            	dc.b	4
1762  01c0 08            	dc.b	8
1763  01c1 0d            	dc.b	13
1764  01c2 19            	dc.b	25
1765  01c3 1a            	dc.b	26
1766  01c4 13            	dc.b	19
1767  01c5 db            	dc.b	219
1768  01c6 00            	dc.b	0
1769  01c7 00            	dc.b	0
1770  01c8 0b            	dc.b	11
1771  01c9 00            	dc.b	0
1772  01ca 09            	dc.b	9
1773  01cb 00            	dc.b	0
1774  01cc 00            	dc.b	0
1775  01cd 00            	dc.b	0
1776  01ce 00            	dc.b	0
1777  01cf 00            	dc.b	0
1778  01d0 00            	dc.b	0
1779  01d1 00            	dc.b	0
1780  01d2 00            	dc.b	0
1781  01d3 00            	dc.b	0
1782  01d4 00            	dc.b	0
1783  01d5 06            	dc.b	6
1784  01d6 02            	dc.b	2
1785  01d7 01            	dc.b	1
1786  01d8 00            	dc.b	0
1787  01d9 20            	dc.b	32
1788  01da 21            	dc.b	33
1789  01db 22            	dc.b	34
1790  01dc 23            	dc.b	35
1791  01dd 24            	dc.b	36
1792  01de 00            	dc.b	0
1793  01df 00            	dc.b	0
1794  01e0 00            	dc.b	0
1795  01e1 00            	dc.b	0
1796  01e2 20            	dc.b	32
1797  01e3 04            	dc.b	4
1798  01e4 08            	dc.b	8
1799  01e5 0e            	dc.b	14
1800  01e6 19            	dc.b	25
1801  01e7 1a            	dc.b	26
1802  01e8 13            	dc.b	19
1803  01e9 db            	dc.b	219
1804  01ea 00            	dc.b	0
1805  01eb 00            	dc.b	0
1806  01ec 00            	dc.b	0
1807  01ed 0e            	dc.b	14
1808  01ee 00            	dc.b	0
1809  01ef 10            	dc.b	16
1810  01f0 00            	dc.b	0
1811  01f1 00            	dc.b	0
1812  01f2 00            	dc.b	0
1813  01f3 00            	dc.b	0
1814  01f4 00            	dc.b	0
1815  01f5 00            	dc.b	0
1816  01f6 00            	dc.b	0
1817  01f7 00            	dc.b	0
1818  01f8 00            	dc.b	0
1819  01f9 06            	dc.b	6
1820  01fa 02            	dc.b	2
1821  01fb 02            	dc.b	2
1822  01fc 00            	dc.b	0
1823  01fd 20            	dc.b	32
1824  01fe 21            	dc.b	33
1825  01ff 22            	dc.b	34
1826  0200 23            	dc.b	35
1827  0201 24            	dc.b	36
1828  0202 00            	dc.b	0
1829  0203 00            	dc.b	0
1830  0204 00            	dc.b	0
1831  0205 00            	dc.b	0
1832  0206 21            	dc.b	33
1833  0207 04            	dc.b	4
1834  0208 08            	dc.b	8
1835  0209 0f            	dc.b	15
1836  020a 19            	dc.b	25
1837  020b 1a            	dc.b	26
1838  020c 13            	dc.b	19
1839  020d db            	dc.b	219
1840  020e 00            	dc.b	0
1841  020f 00            	dc.b	0
1842  0210 0d            	dc.b	13
1843  0211 0f            	dc.b	15
1844  0212 00            	dc.b	0
1845  0213 11            	dc.b	17
1846  0214 00            	dc.b	0
1847  0215 00            	dc.b	0
1848  0216 00            	dc.b	0
1849  0217 00            	dc.b	0
1850  0218 00            	dc.b	0
1851  0219 00            	dc.b	0
1852  021a 00            	dc.b	0
1853  021b 00            	dc.b	0
1854  021c 00            	dc.b	0
1855  021d 06            	dc.b	6
1856  021e 02            	dc.b	2
1857  021f 03            	dc.b	3
1858  0220 00            	dc.b	0
1859  0221 20            	dc.b	32
1860  0222 21            	dc.b	33
1861  0223 22            	dc.b	34
1862  0224 23            	dc.b	35
1863  0225 24            	dc.b	36
1864  0226 00            	dc.b	0
1865  0227 00            	dc.b	0
1866  0228 00            	dc.b	0
1867  0229 00            	dc.b	0
1868  022a 22            	dc.b	34
1869  022b 04            	dc.b	4
1870  022c 08            	dc.b	8
1871  022d 10            	dc.b	16
1872  022e 19            	dc.b	25
1873  022f 1a            	dc.b	26
1874  0230 13            	dc.b	19
1875  0231 db            	dc.b	219
1876  0232 00            	dc.b	0
1877  0233 00            	dc.b	0
1878  0234 0e            	dc.b	14
1879  0235 10            	dc.b	16
1880  0236 00            	dc.b	0
1881  0237 00            	dc.b	0
1882  0238 00            	dc.b	0
1883  0239 00            	dc.b	0
1884  023a 00            	dc.b	0
1885  023b 00            	dc.b	0
1886  023c 00            	dc.b	0
1887  023d 00            	dc.b	0
1888  023e 00            	dc.b	0
1889  023f 00            	dc.b	0
1890  0240 00            	dc.b	0
1891  0241 06            	dc.b	6
1892  0242 02            	dc.b	2
1893  0243 04            	dc.b	4
1894  0244 00            	dc.b	0
1895  0245 20            	dc.b	32
1896  0246 21            	dc.b	33
1897  0247 22            	dc.b	34
1898  0248 23            	dc.b	35
1899  0249 24            	dc.b	36
1900  024a 00            	dc.b	0
1901  024b 00            	dc.b	0
1902  024c 00            	dc.b	0
1903  024d 00            	dc.b	0
1904  024e 23            	dc.b	35
1905  024f 04            	dc.b	4
1906  0250 08            	dc.b	8
1907  0251 11            	dc.b	17
1908  0252 19            	dc.b	25
1909  0253 1a            	dc.b	26
1910  0254 13            	dc.b	19
1911  0255 db            	dc.b	219
1912  0256 00            	dc.b	0
1913  0257 00            	dc.b	0
1914  0258 0f            	dc.b	15
1915  0259 11            	dc.b	17
1916  025a 00            	dc.b	0
1917  025b 00            	dc.b	0
1918  025c 00            	dc.b	0
1919  025d 00            	dc.b	0
1920  025e 00            	dc.b	0
1921  025f 00            	dc.b	0
1922  0260 00            	dc.b	0
1923  0261 00            	dc.b	0
1924  0262 00            	dc.b	0
1925  0263 00            	dc.b	0
1926  0264 00            	dc.b	0
1927  0265 06            	dc.b	6
1928  0266 02            	dc.b	2
1929  0267 05            	dc.b	5
1930  0268 00            	dc.b	0
1931  0269 20            	dc.b	32
1932  026a 21            	dc.b	33
1933  026b 22            	dc.b	34
1934  026c 23            	dc.b	35
1935  026d 24            	dc.b	36
1936  026e 00            	dc.b	0
1937  026f 00            	dc.b	0
1938  0270 00            	dc.b	0
1939  0271 00            	dc.b	0
1940  0272 24            	dc.b	36
1941  0273 04            	dc.b	4
1942  0274 08            	dc.b	8
1943  0275 0d            	dc.b	13
1944  0276 19            	dc.b	25
1945  0277 1a            	dc.b	26
1946  0278 13            	dc.b	19
1947  0279 db            	dc.b	219
1948  027a 00            	dc.b	0
1949  027b 00            	dc.b	0
1950  027c 10            	dc.b	16
1951  027d 00            	dc.b	0
1952  027e 0d            	dc.b	13
1953  027f 00            	dc.b	0
1954  0280 00            	dc.b	0
1955  0281 00            	dc.b	0
1956  0282 00            	dc.b	0
1957  0283 00            	dc.b	0
1958  0284 00            	dc.b	0
1959  0285 00            	dc.b	0
1960  0286 00            	dc.b	0
1961  0287 00            	dc.b	0
1962  0288 00            	dc.b	0
1963  0289 06            	dc.b	6
1964  028a 02            	dc.b	2
1965  028b 06            	dc.b	6
1966  028c 00            	dc.b	0
1967  028d 20            	dc.b	32
1968  028e 21            	dc.b	33
1969  028f 22            	dc.b	34
1970  0290 23            	dc.b	35
1971  0291 24            	dc.b	36
1972  0292 24            	dc.b	36
1973  0293 00            	dc.b	0
1974  0294 00            	dc.b	0
1975  0295 00            	dc.b	0
1976  0296 25            	dc.b	37
1977  0297 04            	dc.b	4
1978  0298 08            	dc.b	8
1979  0299 00            	dc.b	0
1980  029a 19            	dc.b	25
1981  029b 1a            	dc.b	26
1982  029c 13            	dc.b	19
1983  029d db            	dc.b	219
1984  029e 00            	dc.b	0
1985  029f 00            	dc.b	0
1986  02a0 11            	dc.b	17
1987  02a1 00            	dc.b	0
1988  02a2 0e            	dc.b	14
1989  02a3 00            	dc.b	0
1990  02a4 00            	dc.b	0
1991  02a5 00            	dc.b	0
1992  02a6 00            	dc.b	0
1993  02a7 00            	dc.b	0
1994  02a8 00            	dc.b	0
1995  02a9 00            	dc.b	0
1996  02aa 00            	dc.b	0
1997  02ab 00            	dc.b	0
1998  02ac 00            	dc.b	0
1999  02ad 06            	dc.b	6
2000  02ae 03            	dc.b	3
2001  02af 01            	dc.b	1
2002  02b0 00            	dc.b	0
2003  02b1 cf            	dc.b	207
2004  02b2 d0            	dc.b	208
2005  02b3 d1            	dc.b	209
2006  02b4 00            	dc.b	0
2007  02b5 00            	dc.b	0
2008  02b6 00            	dc.b	0
2009  02b7 00            	dc.b	0
2010  02b8 00            	dc.b	0
2011  02b9 00            	dc.b	0
2012  02ba cf            	dc.b	207
2013  02bb 04            	dc.b	4
2014  02bc 08            	dc.b	8
2015  02bd 0d            	dc.b	13
2016  02be 19            	dc.b	25
2017  02bf 1a            	dc.b	26
2018  02c0 14            	dc.b	20
2019  02c1 db            	dc.b	219
2020  02c2 00            	dc.b	0
2021  02c3 00            	dc.b	0
2022  02c4 00            	dc.b	0
2023  02c5 14            	dc.b	20
2024  02c6 00            	dc.b	0
2025  02c7 00            	dc.b	0
2026  02c8 00            	dc.b	0
2027  02c9 00            	dc.b	0
2028  02ca 00            	dc.b	0
2029  02cb 00            	dc.b	0
2030  02cc 00            	dc.b	0
2031  02cd 00            	dc.b	0
2032  02ce 00            	dc.b	0
2033  02cf 00            	dc.b	0
2034  02d0 00            	dc.b	0
2035  02d1 06            	dc.b	6
2036  02d2 03            	dc.b	3
2037  02d3 02            	dc.b	2
2038  02d4 00            	dc.b	0
2039  02d5 cf            	dc.b	207
2040  02d6 d0            	dc.b	208
2041  02d7 d1            	dc.b	209
2042  02d8 00            	dc.b	0
2043  02d9 00            	dc.b	0
2044  02da 00            	dc.b	0
2045  02db 00            	dc.b	0
2046  02dc 00            	dc.b	0
2047  02dd 00            	dc.b	0
2048  02de d0            	dc.b	208
2049  02df 04            	dc.b	4
2050  02e0 08            	dc.b	8
2051  02e1 0d            	dc.b	13
2052  02e2 19            	dc.b	25
2053  02e3 1a            	dc.b	26
2054  02e4 15            	dc.b	21
2055  02e5 db            	dc.b	219
2056  02e6 00            	dc.b	0
2057  02e7 00            	dc.b	0
2058  02e8 13            	dc.b	19
2059  02e9 15            	dc.b	21
2060  02ea 00            	dc.b	0
2061  02eb 00            	dc.b	0
2062  02ec 00            	dc.b	0
2063  02ed 00            	dc.b	0
2064  02ee 00            	dc.b	0
2065  02ef 00            	dc.b	0
2066  02f0 00            	dc.b	0
2067  02f1 00            	dc.b	0
2068  02f2 00            	dc.b	0
2069  02f3 00            	dc.b	0
2070  02f4 00            	dc.b	0
2071  02f5 06            	dc.b	6
2072  02f6 03            	dc.b	3
2073  02f7 03            	dc.b	3
2074  02f8 00            	dc.b	0
2075  02f9 cf            	dc.b	207
2076  02fa d0            	dc.b	208
2077  02fb d1            	dc.b	209
2078  02fc 00            	dc.b	0
2079  02fd 00            	dc.b	0
2080  02fe 00            	dc.b	0
2081  02ff 00            	dc.b	0
2082  0300 00            	dc.b	0
2083  0301 00            	dc.b	0
2084  0302 d1            	dc.b	209
2085  0303 04            	dc.b	4
2086  0304 08            	dc.b	8
2087  0305 0d            	dc.b	13
2088  0306 19            	dc.b	25
2089  0307 1a            	dc.b	26
2090  0308 13            	dc.b	19
2091  0309 db            	dc.b	219
2092  030a 00            	dc.b	0
2093  030b 00            	dc.b	0
2094  030c 14            	dc.b	20
2095  030d 00            	dc.b	0
2096  030e 00            	dc.b	0
2097  030f 00            	dc.b	0
2098  0310 00            	dc.b	0
2099  0311 00            	dc.b	0
2100  0312 00            	dc.b	0
2101  0313 00            	dc.b	0
2102  0314 00            	dc.b	0
2103  0315 00            	dc.b	0
2104  0316 00            	dc.b	0
2105  0317 00            	dc.b	0
2106  0318 00            	dc.b	0
2107  0319 06            	dc.b	6
2108  031a 03            	dc.b	3
2109  031b 04            	dc.b	4
2110  031c 00            	dc.b	0
2111  031d 00            	dc.b	0
2112  031e 00            	dc.b	0
2113  031f 00            	dc.b	0
2114  0320 00            	dc.b	0
2115  0321 00            	dc.b	0
2116  0322 00            	dc.b	0
2117  0323 00            	dc.b	0
2118  0324 00            	dc.b	0
2119  0325 00            	dc.b	0
2120  0326 d2            	dc.b	210
2121  0327 04            	dc.b	4
2122  0328 08            	dc.b	8
2123  0329 0d            	dc.b	13
2124  032a 19            	dc.b	25
2125  032b 1a            	dc.b	26
2126  032c 00            	dc.b	0
2127  032d db            	dc.b	219
2128  032e 00            	dc.b	0
2129  032f 00            	dc.b	0
2130  0330 16            	dc.b	22
2131  0331 00            	dc.b	0
2132  0332 00            	dc.b	0
2133  0333 00            	dc.b	0
2134  0334 00            	dc.b	0
2135  0335 00            	dc.b	0
2136  0336 00            	dc.b	0
2137  0337 00            	dc.b	0
2138  0338 00            	dc.b	0
2139  0339 00            	dc.b	0
2140  033a 00            	dc.b	0
2141  033b 00            	dc.b	0
2142  033c 00            	dc.b	0
2143  033d 06            	dc.b	6
2144  033e 03            	dc.b	3
2145  033f 05            	dc.b	5
2146  0340 00            	dc.b	0
2147  0341 00            	dc.b	0
2148  0342 00            	dc.b	0
2149  0343 00            	dc.b	0
2150  0344 00            	dc.b	0
2151  0345 00            	dc.b	0
2152  0346 00            	dc.b	0
2153  0347 00            	dc.b	0
2154  0348 00            	dc.b	0
2155  0349 00            	dc.b	0
2156  034a d3            	dc.b	211
2157  034b 04            	dc.b	4
2158  034c 08            	dc.b	8
2159  034d 0d            	dc.b	13
2160  034e 19            	dc.b	25
2161  034f 1a            	dc.b	26
2162  0350 00            	dc.b	0
2163  0351 db            	dc.b	219
2164  0352 00            	dc.b	0
2165  0353 00            	dc.b	0
2166  0354 17            	dc.b	23
2167  0355 00            	dc.b	0
2168  0356 00            	dc.b	0
2169  0357 00            	dc.b	0
2170  0358 00            	dc.b	0
2171  0359 00            	dc.b	0
2172  035a 00            	dc.b	0
2173  035b 00            	dc.b	0
2174  035c 00            	dc.b	0
2175  035d 00            	dc.b	0
2176  035e 00            	dc.b	0
2177  035f 00            	dc.b	0
2178  0360 00            	dc.b	0
2179  0361 06            	dc.b	6
2180  0362 03            	dc.b	3
2181  0363 06            	dc.b	6
2182  0364 00            	dc.b	0
2183  0365 00            	dc.b	0
2184  0366 00            	dc.b	0
2185  0367 00            	dc.b	0
2186  0368 00            	dc.b	0
2187  0369 00            	dc.b	0
2188  036a 00            	dc.b	0
2189  036b 00            	dc.b	0
2190  036c 00            	dc.b	0
2191  036d 00            	dc.b	0
2192  036e d4            	dc.b	212
2193  036f 04            	dc.b	4
2194  0370 08            	dc.b	8
2195  0371 0d            	dc.b	13
2196  0372 19            	dc.b	25
2197  0373 1a            	dc.b	26
2198  0374 00            	dc.b	0
2199  0375 db            	dc.b	219
2200  0376 00            	dc.b	0
2201  0377 00            	dc.b	0
2202  0378 18            	dc.b	24
2203  0379 00            	dc.b	0
2204  037a 00            	dc.b	0
2205  037b 00            	dc.b	0
2206  037c 00            	dc.b	0
2207  037d 00            	dc.b	0
2208  037e 00            	dc.b	0
2209  037f 00            	dc.b	0
2210  0380 00            	dc.b	0
2211  0381 00            	dc.b	0
2212  0382 00            	dc.b	0
2213  0383 00            	dc.b	0
2214  0384 00            	dc.b	0
2215  0385 00            	dc.b	0
2216  0386 00            	dc.b	0
2217  0387 00            	dc.b	0
2218  0388 19            	dc.b	25
2219  0389 19            	dc.b	25
2220  038a 19            	dc.b	25
2221  038b 19            	dc.b	25
2222  038c 19            	dc.b	25
2223  038d 19            	dc.b	25
2224  038e 19            	dc.b	25
2225  038f 19            	dc.b	25
2226  0390 19            	dc.b	25
2227  0391 19            	dc.b	25
2228  0392 19            	dc.b	25
2229  0393 19            	dc.b	25
2230  0394 08            	dc.b	8
2231  0395 0d            	dc.b	13
2232  0396 19            	dc.b	25
2233  0397 1a            	dc.b	26
2234  0398 13            	dc.b	19
2235  0399 db            	dc.b	219
2236  039a 00            	dc.b	0
2237  039b 00            	dc.b	0
2238  039c 19            	dc.b	25
2239  039d 19            	dc.b	25
2240  039e 00            	dc.b	0
2241  039f 00            	dc.b	0
2242  03a0 00            	dc.b	0
2243  03a1 00            	dc.b	0
2244  03a2 00            	dc.b	0
2245  03a3 00            	dc.b	0
2246  03a4 00            	dc.b	0
2247  03a5 00            	dc.b	0
2248  03a6 00            	dc.b	0
2249  03a7 00            	dc.b	0
2250  03a8 00            	dc.b	0
2251  03a9 06            	dc.b	6
2252  03aa 04            	dc.b	4
2253  03ab 01            	dc.b	1
2254  03ac 00            	dc.b	0
2255  03ad 04            	dc.b	4
2256  03ae 05            	dc.b	5
2257  03af 2a            	dc.b	42
2258  03b0 2e            	dc.b	46
2259  03b1 30            	dc.b	48
2260  03b2 32            	dc.b	50
2261  03b3 00            	dc.b	0
2262  03b4 00            	dc.b	0
2263  03b5 00            	dc.b	0
2264  03b6 04            	dc.b	4
2265  03b7 04            	dc.b	4
2266  03b8 08            	dc.b	8
2267  03b9 0d            	dc.b	13
2268  03ba 19            	dc.b	25
2269  03bb 1b            	dc.b	27
2270  03bc 13            	dc.b	19
2271  03bd db            	dc.b	219
2272  03be 00            	dc.b	0
2273  03bf 00            	dc.b	0
2274  03c0 00            	dc.b	0
2275  03c1 1b            	dc.b	27
2276  03c2 00            	dc.b	0
2277  03c3 1d            	dc.b	29
2278  03c4 00            	dc.b	0
2279  03c5 00            	dc.b	0
2280  03c6 00            	dc.b	0
2281  03c7 00            	dc.b	0
2282  03c8 00            	dc.b	0
2283  03c9 00            	dc.b	0
2284  03ca 00            	dc.b	0
2285  03cb 00            	dc.b	0
2286  03cc 00            	dc.b	0
2287  03cd 06            	dc.b	6
2288  03ce 04            	dc.b	4
2289  03cf 02            	dc.b	2
2290  03d0 00            	dc.b	0
2291  03d1 04            	dc.b	4
2292  03d2 05            	dc.b	5
2293  03d3 2a            	dc.b	42
2294  03d4 2e            	dc.b	46
2295  03d5 30            	dc.b	48
2296  03d6 32            	dc.b	50
2297  03d7 00            	dc.b	0
2298  03d8 00            	dc.b	0
2299  03d9 00            	dc.b	0
2300  03da 05            	dc.b	5
2301  03db 04            	dc.b	4
2302  03dc 08            	dc.b	8
2303  03dd 0d            	dc.b	13
2304  03de 19            	dc.b	25
2305  03df 1c            	dc.b	28
2306  03e0 13            	dc.b	19
2307  03e1 db            	dc.b	219
2308  03e2 00            	dc.b	0
2309  03e3 00            	dc.b	0
2310  03e4 1a            	dc.b	26
2311  03e5 1c            	dc.b	28
2312  03e6 00            	dc.b	0
2313  03e7 1e            	dc.b	30
2314  03e8 00            	dc.b	0
2315  03e9 00            	dc.b	0
2316  03ea 00            	dc.b	0
2317  03eb 00            	dc.b	0
2318  03ec 00            	dc.b	0
2319  03ed 00            	dc.b	0
2320  03ee 00            	dc.b	0
2321  03ef 00            	dc.b	0
2322  03f0 00            	dc.b	0
2323  03f1 06            	dc.b	6
2324  03f2 04            	dc.b	4
2325  03f3 03            	dc.b	3
2326  03f4 00            	dc.b	0
2327  03f5 04            	dc.b	4
2328  03f6 05            	dc.b	5
2329  03f7 2a            	dc.b	42
2330  03f8 2e            	dc.b	46
2331  03f9 30            	dc.b	48
2332  03fa 32            	dc.b	50
2333  03fb 00            	dc.b	0
2334  03fc 00            	dc.b	0
2335  03fd 00            	dc.b	0
2336  03fe 2a            	dc.b	42
2337  03ff 04            	dc.b	4
2338  0400 08            	dc.b	8
2339  0401 0d            	dc.b	13
2340  0402 19            	dc.b	25
2341  0403 1d            	dc.b	29
2342  0404 13            	dc.b	19
2343  0405 db            	dc.b	219
2344  0406 00            	dc.b	0
2345  0407 00            	dc.b	0
2346  0408 1b            	dc.b	27
2347  0409 1d            	dc.b	29
2348  040a 00            	dc.b	0
2349  040b 1f            	dc.b	31
2350  040c 00            	dc.b	0
2351  040d 00            	dc.b	0
2352  040e 00            	dc.b	0
2353  040f 00            	dc.b	0
2354  0410 00            	dc.b	0
2355  0411 00            	dc.b	0
2356  0412 00            	dc.b	0
2357  0413 00            	dc.b	0
2358  0414 00            	dc.b	0
2359  0415 06            	dc.b	6
2360  0416 04            	dc.b	4
2361  0417 04            	dc.b	4
2362  0418 00            	dc.b	0
2363  0419 04            	dc.b	4
2364  041a 05            	dc.b	5
2365  041b 2a            	dc.b	42
2366  041c 2e            	dc.b	46
2367  041d 30            	dc.b	48
2368  041e 32            	dc.b	50
2369  041f 00            	dc.b	0
2370  0420 00            	dc.b	0
2371  0421 00            	dc.b	0
2372  0422 2e            	dc.b	46
2373  0423 04            	dc.b	4
2374  0424 08            	dc.b	8
2375  0425 0d            	dc.b	13
2376  0426 19            	dc.b	25
2377  0427 1e            	dc.b	30
2378  0428 13            	dc.b	19
2379  0429 db            	dc.b	219
2380  042a 00            	dc.b	0
2381  042b 00            	dc.b	0
2382  042c 1c            	dc.b	28
2383  042d 1e            	dc.b	30
2384  042e 1a            	dc.b	26
2385  042f 00            	dc.b	0
2386  0430 00            	dc.b	0
2387  0431 00            	dc.b	0
2388  0432 00            	dc.b	0
2389  0433 00            	dc.b	0
2390  0434 00            	dc.b	0
2391  0435 00            	dc.b	0
2392  0436 00            	dc.b	0
2393  0437 00            	dc.b	0
2394  0438 00            	dc.b	0
2395  0439 06            	dc.b	6
2396  043a 04            	dc.b	4
2397  043b 05            	dc.b	5
2398  043c 00            	dc.b	0
2399  043d 04            	dc.b	4
2400  043e 05            	dc.b	5
2401  043f 2a            	dc.b	42
2402  0440 2e            	dc.b	46
2403  0441 30            	dc.b	48
2404  0442 32            	dc.b	50
2405  0443 00            	dc.b	0
2406  0444 00            	dc.b	0
2407  0445 00            	dc.b	0
2408  0446 30            	dc.b	48
2409  0447 04            	dc.b	4
2410  0448 08            	dc.b	8
2411  0449 0d            	dc.b	13
2412  044a 19            	dc.b	25
2413  044b 1f            	dc.b	31
2414  044c 13            	dc.b	19
2415  044d db            	dc.b	219
2416  044e 00            	dc.b	0
2417  044f 00            	dc.b	0
2418  0450 1d            	dc.b	29
2419  0451 1f            	dc.b	31
2420  0452 1b            	dc.b	27
2421  0453 00            	dc.b	0
2422  0454 00            	dc.b	0
2423  0455 00            	dc.b	0
2424  0456 00            	dc.b	0
2425  0457 00            	dc.b	0
2426  0458 00            	dc.b	0
2427  0459 00            	dc.b	0
2428  045a 00            	dc.b	0
2429  045b 00            	dc.b	0
2430  045c 00            	dc.b	0
2431  045d 06            	dc.b	6
2432  045e 04            	dc.b	4
2433  045f 06            	dc.b	6
2434  0460 00            	dc.b	0
2435  0461 04            	dc.b	4
2436  0462 05            	dc.b	5
2437  0463 2a            	dc.b	42
2438  0464 2e            	dc.b	46
2439  0465 30            	dc.b	48
2440  0466 32            	dc.b	50
2441  0467 00            	dc.b	0
2442  0468 00            	dc.b	0
2443  0469 00            	dc.b	0
2444  046a 32            	dc.b	50
2445  046b 04            	dc.b	4
2446  046c 08            	dc.b	8
2447  046d 0d            	dc.b	13
2448  046e 19            	dc.b	25
2449  046f 1a            	dc.b	26
2450  0470 13            	dc.b	19
2451  0471 db            	dc.b	219
2452  0472 00            	dc.b	0
2453  0473 00            	dc.b	0
2454  0474 1e            	dc.b	30
2455  0475 00            	dc.b	0
2456  0476 1c            	dc.b	28
2457  0477 00            	dc.b	0
2458  0478 00            	dc.b	0
2459  0479 00            	dc.b	0
2460  047a 00            	dc.b	0
2461  047b 00            	dc.b	0
2462  047c 00            	dc.b	0
2463  047d 00            	dc.b	0
2464  047e 00            	dc.b	0
2465  047f 00            	dc.b	0
2466  0480 00            	dc.b	0
2467  0481 0a            	dc.b	10
2468  0482 00            	dc.b	0
2469  0483 01            	dc.b	1
2470  0484 20            	dc.b	32
2471  0485 20            	dc.b	32
2472  0486 20            	dc.b	32
2473  0487 20            	dc.b	32
2474  0488 20            	dc.b	32
2475  0489 20            	dc.b	32
2476  048a 20            	dc.b	32
2477  048b 20            	dc.b	32
2478  048c 20            	dc.b	32
2479  048d 20            	dc.b	32
2480  048e e6            	dc.b	230
2481  048f 0d            	dc.b	13
2482  0490 00            	dc.b	0
2483  0491 00            	dc.b	0
2484  0492 00            	dc.b	0
2485  0493 00            	dc.b	0
2486  0494 00            	dc.b	0
2487  0495 00            	dc.b	0
2488  0496 00            	dc.b	0
2489  0497 00            	dc.b	0
2490  0498 00            	dc.b	0
2491  0499 00            	dc.b	0
2492  049a 00            	dc.b	0
2493  049b 00            	dc.b	0
2494  049c 00            	dc.b	0
2495  049d 00            	dc.b	0
2496  049e 00            	dc.b	0
2497  049f 00            	dc.b	0
2498  04a0 00            	dc.b	0
2499  04a1 00            	dc.b	0
2500  04a2 00            	dc.b	0
2501  04a3 00            	dc.b	0
2502  04a4 00            	dc.b	0
2503  04a5 0a            	dc.b	10
2504  04a6 00            	dc.b	0
2505  04a7 02            	dc.b	2
2506  04a8 21            	dc.b	33
2507  04a9 21            	dc.b	33
2508  04aa 21            	dc.b	33
2509  04ab 21            	dc.b	33
2510  04ac 21            	dc.b	33
2511  04ad 21            	dc.b	33
2512  04ae 21            	dc.b	33
2513  04af 21            	dc.b	33
2514  04b0 21            	dc.b	33
2515  04b1 21            	dc.b	33
2516  04b2 e6            	dc.b	230
2517  04b3 0e            	dc.b	14
2518  04b4 00            	dc.b	0
2519  04b5 00            	dc.b	0
2520  04b6 00            	dc.b	0
2521  04b7 00            	dc.b	0
2522  04b8 00            	dc.b	0
2523  04b9 00            	dc.b	0
2524  04ba 00            	dc.b	0
2525  04bb 00            	dc.b	0
2526  04bc 00            	dc.b	0
2527  04bd 00            	dc.b	0
2528  04be 00            	dc.b	0
2529  04bf 00            	dc.b	0
2530  04c0 00            	dc.b	0
2531  04c1 00            	dc.b	0
2532  04c2 00            	dc.b	0
2533  04c3 00            	dc.b	0
2534  04c4 00            	dc.b	0
2535  04c5 00            	dc.b	0
2536  04c6 00            	dc.b	0
2537  04c7 00            	dc.b	0
2538  04c8 00            	dc.b	0
2539  04c9 0a            	dc.b	10
2540  04ca 00            	dc.b	0
2541  04cb 03            	dc.b	3
2542  04cc 22            	dc.b	34
2543  04cd 22            	dc.b	34
2544  04ce 22            	dc.b	34
2545  04cf 22            	dc.b	34
2546  04d0 22            	dc.b	34
2547  04d1 22            	dc.b	34
2548  04d2 22            	dc.b	34
2549  04d3 22            	dc.b	34
2550  04d4 22            	dc.b	34
2551  04d5 22            	dc.b	34
2552  04d6 e6            	dc.b	230
2553  04d7 0f            	dc.b	15
2554  04d8 00            	dc.b	0
2555  04d9 00            	dc.b	0
2556  04da 00            	dc.b	0
2557  04db 00            	dc.b	0
2558  04dc 00            	dc.b	0
2559  04dd 00            	dc.b	0
2560  04de 00            	dc.b	0
2561  04df 00            	dc.b	0
2562  04e0 00            	dc.b	0
2563  04e1 00            	dc.b	0
2564  04e2 00            	dc.b	0
2565  04e3 00            	dc.b	0
2566  04e4 00            	dc.b	0
2567  04e5 00            	dc.b	0
2568  04e6 00            	dc.b	0
2569  04e7 00            	dc.b	0
2570  04e8 00            	dc.b	0
2571  04e9 00            	dc.b	0
2572  04ea 00            	dc.b	0
2573  04eb 00            	dc.b	0
2574  04ec 00            	dc.b	0
2575  04ed 00            	dc.b	0
2576  04ee 00            	dc.b	0
2577  04ef 04            	dc.b	4
2578  04f0 00            	dc.b	0
2579  04f1 00            	dc.b	0
2580  04f2 00            	dc.b	0
2581  04f3 00            	dc.b	0
2582  04f4 00            	dc.b	0
2583  04f5 00            	dc.b	0
2584  04f6 00            	dc.b	0
2585  04f7 00            	dc.b	0
2586  04f8 00            	dc.b	0
2587  04f9 00            	dc.b	0
2588  04fa 10            	dc.b	16
2589  04fb 10            	dc.b	16
2590  04fc 08            	dc.b	8
2591  04fd 0d            	dc.b	13
2592  04fe 19            	dc.b	25
2593  04ff 1a            	dc.b	26
2594  0500 13            	dc.b	19
2595  0501 db            	dc.b	219
2596  0502 00            	dc.b	0
2597  0503 00            	dc.b	0
2598  0504 00            	dc.b	0
2599  0505 00            	dc.b	0
2600  0506 00            	dc.b	0
2601  0507 00            	dc.b	0
2602  0508 00            	dc.b	0
2603  0509 00            	dc.b	0
2604  050a 00            	dc.b	0
2605  050b 00            	dc.b	0
2606  050c 00            	dc.b	0
2607  050d 00            	dc.b	0
2608  050e 00            	dc.b	0
2609  050f 00            	dc.b	0
2610  0510 00            	dc.b	0
2611  0511 0a            	dc.b	10
2612  0512 00            	dc.b	0
2613  0513 05            	dc.b	5
2614  0514 24            	dc.b	36
2615  0515 24            	dc.b	36
2616  0516 24            	dc.b	36
2617  0517 24            	dc.b	36
2618  0518 24            	dc.b	36
2619  0519 24            	dc.b	36
2620  051a 24            	dc.b	36
2621  051b 24            	dc.b	36
2622  051c 24            	dc.b	36
2623  051d 24            	dc.b	36
2624  051e e6            	dc.b	230
2625  051f 11            	dc.b	17
2626  0520 00            	dc.b	0
2627  0521 00            	dc.b	0
2628  0522 00            	dc.b	0
2629  0523 00            	dc.b	0
2630  0524 00            	dc.b	0
2631  0525 00            	dc.b	0
2632  0526 00            	dc.b	0
2633  0527 00            	dc.b	0
2634  0528 00            	dc.b	0
2635  0529 00            	dc.b	0
2636  052a 00            	dc.b	0
2637  052b 00            	dc.b	0
2638  052c 00            	dc.b	0
2639  052d 00            	dc.b	0
2640  052e 00            	dc.b	0
2641  052f 00            	dc.b	0
2642  0530 00            	dc.b	0
2643  0531 00            	dc.b	0
2644  0532 00            	dc.b	0
2645  0533 00            	dc.b	0
2646  0534 00            	dc.b	0
2647  0535 00            	dc.b	0
2648  0536 00            	dc.b	0
2649  0537 06            	dc.b	6
2650  0538 00            	dc.b	0
2651  0539 00            	dc.b	0
2652  053a 00            	dc.b	0
2653  053b 00            	dc.b	0
2654  053c 00            	dc.b	0
2655  053d 00            	dc.b	0
2656  053e 00            	dc.b	0
2657  053f 00            	dc.b	0
2658  0540 00            	dc.b	0
2659  0541 00            	dc.b	0
2660  0542 12            	dc.b	18
2661  0543 12            	dc.b	18
2662  0544 08            	dc.b	8
2663  0545 0d            	dc.b	13
2664  0546 19            	dc.b	25
2665  0547 1a            	dc.b	26
2666  0548 13            	dc.b	19
2667  0549 db            	dc.b	219
2668  054a 00            	dc.b	0
2669  054b 00            	dc.b	0
2670  054c 00            	dc.b	0
2671  054d 00            	dc.b	0
2672  054e 00            	dc.b	0
2673  054f 00            	dc.b	0
2674  0550 00            	dc.b	0
2675  0551 00            	dc.b	0
2676  0552 00            	dc.b	0
2677  0553 00            	dc.b	0
2678  0554 00            	dc.b	0
2679  0555 00            	dc.b	0
2680  0556 00            	dc.b	0
2681  0557 00            	dc.b	0
2682  0558 00            	dc.b	0
2683  0559 0a            	dc.b	10
2684  055a 00            	dc.b	0
2685  055b 00            	dc.b	0
2686  055c 26            	dc.b	38
2687  055d 26            	dc.b	38
2688  055e 26            	dc.b	38
2689  055f 26            	dc.b	38
2690  0560 26            	dc.b	38
2691  0561 26            	dc.b	38
2692  0562 26            	dc.b	38
2693  0563 26            	dc.b	38
2694  0564 26            	dc.b	38
2695  0565 26            	dc.b	38
2696  0566 e6            	dc.b	230
2697  0567 04            	dc.b	4
2698  0568 00            	dc.b	0
2699  0569 00            	dc.b	0
2700  056a 00            	dc.b	0
2701  056b 00            	dc.b	0
2702  056c 00            	dc.b	0
2703  056d 00            	dc.b	0
2704  056e 00            	dc.b	0
2705  056f 00            	dc.b	0
2706  0570 00            	dc.b	0
2707  0571 00            	dc.b	0
2708  0572 00            	dc.b	0
2709  0573 00            	dc.b	0
2710  0574 00            	dc.b	0
2711  0575 27            	dc.b	39
2712  0576 28            	dc.b	40
2713  0577 29            	dc.b	41
2714  0578 00            	dc.b	0
2715  0579 00            	dc.b	0
2716  057a 00            	dc.b	0
2717  057b 00            	dc.b	0
2718  057c 00            	dc.b	0
2719  057d 0a            	dc.b	10
2720  057e 00            	dc.b	0
2721  057f 00            	dc.b	0
2722  0580 27            	dc.b	39
2723  0581 27            	dc.b	39
2724  0582 27            	dc.b	39
2725  0583 27            	dc.b	39
2726  0584 27            	dc.b	39
2727  0585 27            	dc.b	39
2728  0586 27            	dc.b	39
2729  0587 27            	dc.b	39
2730  0588 27            	dc.b	39
2731  0589 27            	dc.b	39
2732  058a e6            	dc.b	230
2733  058b 04            	dc.b	4
2734  058c 00            	dc.b	0
2735  058d 00            	dc.b	0
2736  058e 00            	dc.b	0
2737  058f 00            	dc.b	0
2738  0590 00            	dc.b	0
2739  0591 00            	dc.b	0
2740  0592 00            	dc.b	0
2741  0593 00            	dc.b	0
2742  0594 00            	dc.b	0
2743  0595 00            	dc.b	0
2744  0596 00            	dc.b	0
2745  0597 00            	dc.b	0
2746  0598 26            	dc.b	38
2747  0599 00            	dc.b	0
2748  059a 28            	dc.b	40
2749  059b 29            	dc.b	41
2750  059c 00            	dc.b	0
2751  059d 00            	dc.b	0
2752  059e 00            	dc.b	0
2753  059f 00            	dc.b	0
2754  05a0 00            	dc.b	0
2755  05a1 0a            	dc.b	10
2756  05a2 00            	dc.b	0
2757  05a3 00            	dc.b	0
2758  05a4 28            	dc.b	40
2759  05a5 28            	dc.b	40
2760  05a6 28            	dc.b	40
2761  05a7 28            	dc.b	40
2762  05a8 28            	dc.b	40
2763  05a9 28            	dc.b	40
2764  05aa 28            	dc.b	40
2765  05ab 28            	dc.b	40
2766  05ac 28            	dc.b	40
2767  05ad 28            	dc.b	40
2768  05ae e6            	dc.b	230
2769  05af 04            	dc.b	4
2770  05b0 00            	dc.b	0
2771  05b1 00            	dc.b	0
2772  05b2 00            	dc.b	0
2773  05b3 00            	dc.b	0
2774  05b4 00            	dc.b	0
2775  05b5 00            	dc.b	0
2776  05b6 00            	dc.b	0
2777  05b7 00            	dc.b	0
2778  05b8 00            	dc.b	0
2779  05b9 00            	dc.b	0
2780  05ba 00            	dc.b	0
2781  05bb 00            	dc.b	0
2782  05bc 26            	dc.b	38
2783  05bd 27            	dc.b	39
2784  05be 00            	dc.b	0
2785  05bf 29            	dc.b	41
2786  05c0 00            	dc.b	0
2787  05c1 00            	dc.b	0
2788  05c2 00            	dc.b	0
2789  05c3 00            	dc.b	0
2790  05c4 00            	dc.b	0
2791  05c5 0a            	dc.b	10
2792  05c6 00            	dc.b	0
2793  05c7 00            	dc.b	0
2794  05c8 29            	dc.b	41
2795  05c9 29            	dc.b	41
2796  05ca 29            	dc.b	41
2797  05cb 29            	dc.b	41
2798  05cc 29            	dc.b	41
2799  05cd 29            	dc.b	41
2800  05ce 29            	dc.b	41
2801  05cf 29            	dc.b	41
2802  05d0 29            	dc.b	41
2803  05d1 29            	dc.b	41
2804  05d2 e6            	dc.b	230
2805  05d3 04            	dc.b	4
2806  05d4 00            	dc.b	0
2807  05d5 00            	dc.b	0
2808  05d6 00            	dc.b	0
2809  05d7 00            	dc.b	0
2810  05d8 00            	dc.b	0
2811  05d9 00            	dc.b	0
2812  05da 00            	dc.b	0
2813  05db 00            	dc.b	0
2814  05dc 00            	dc.b	0
2815  05dd 00            	dc.b	0
2816  05de 00            	dc.b	0
2817  05df 00            	dc.b	0
2818  05e0 26            	dc.b	38
2819  05e1 27            	dc.b	39
2820  05e2 28            	dc.b	40
2821  05e3 00            	dc.b	0
2822  05e4 00            	dc.b	0
2823  05e5 00            	dc.b	0
2824  05e6 00            	dc.b	0
2825  05e7 00            	dc.b	0
2826  05e8 00            	dc.b	0
2827  05e9 06            	dc.b	6
2828  05ea 05            	dc.b	5
2829  05eb 01            	dc.b	1
2830  05ec 00            	dc.b	0
2831  05ed 2c            	dc.b	44
2832  05ee 2d            	dc.b	45
2833  05ef 00            	dc.b	0
2834  05f0 00            	dc.b	0
2835  05f1 00            	dc.b	0
2836  05f2 00            	dc.b	0
2837  05f3 00            	dc.b	0
2838  05f4 00            	dc.b	0
2839  05f5 00            	dc.b	0
2840  05f6 2c            	dc.b	44
2841  05f7 1c            	dc.b	28
2842  05f8 08            	dc.b	8
2843  05f9 0d            	dc.b	13
2844  05fa 19            	dc.b	25
2845  05fb 2b            	dc.b	43
2846  05fc 13            	dc.b	19
2847  05fd db            	dc.b	219
2848  05fe 00            	dc.b	0
2849  05ff 00            	dc.b	0
2850  0600 00            	dc.b	0
2851  0601 2d            	dc.b	45
2852  0602 00            	dc.b	0
2853  0603 00            	dc.b	0
2854  0604 00            	dc.b	0
2855  0605 00            	dc.b	0
2856  0606 00            	dc.b	0
2857  0607 00            	dc.b	0
2858  0608 00            	dc.b	0
2859  0609 00            	dc.b	0
2860  060a 00            	dc.b	0
2861  060b 00            	dc.b	0
2862  060c 00            	dc.b	0
2863  060d 06            	dc.b	6
2864  060e 05            	dc.b	5
2865  060f 02            	dc.b	2
2866  0610 00            	dc.b	0
2867  0611 2c            	dc.b	44
2868  0612 2d            	dc.b	45
2869  0613 00            	dc.b	0
2870  0614 00            	dc.b	0
2871  0615 00            	dc.b	0
2872  0616 00            	dc.b	0
2873  0617 00            	dc.b	0
2874  0618 00            	dc.b	0
2875  0619 00            	dc.b	0
2876  061a 2d            	dc.b	45
2877  061b 1c            	dc.b	28
2878  061c 08            	dc.b	8
2879  061d 0d            	dc.b	13
2880  061e 19            	dc.b	25
2881  061f 2a            	dc.b	42
2882  0620 13            	dc.b	19
2883  0621 db            	dc.b	219
2884  0622 00            	dc.b	0
2885  0623 00            	dc.b	0
2886  0624 2c            	dc.b	44
2887  0625 00            	dc.b	0
2888  0626 00            	dc.b	0
2889  0627 00            	dc.b	0
2890  0628 00            	dc.b	0
2891  0629 00            	dc.b	0
2892  062a 00            	dc.b	0
2893  062b 00            	dc.b	0
2894  062c 00            	dc.b	0
2895  062d 00            	dc.b	0
2896  062e 00            	dc.b	0
2897  062f 00            	dc.b	0
2898  0630 00            	dc.b	0
2899  0631 0a            	dc.b	10
2900  0632 00            	dc.b	0
2901  0633 00            	dc.b	0
2902  0634 2c            	dc.b	44
2903  0635 2c            	dc.b	44
2904  0636 2c            	dc.b	44
2905  0637 2c            	dc.b	44
2906  0638 2c            	dc.b	44
2907  0639 2c            	dc.b	44
2908  063a 2c            	dc.b	44
2909  063b 2c            	dc.b	44
2910  063c 2c            	dc.b	44
2911  063d 2c            	dc.b	44
2912  063e e6            	dc.b	230
2913  063f 2a            	dc.b	42
2914  0640 00            	dc.b	0
2915  0641 00            	dc.b	0
2916  0642 00            	dc.b	0
2917  0643 00            	dc.b	0
2918  0644 00            	dc.b	0
2919  0645 00            	dc.b	0
2920  0646 00            	dc.b	0
2921  0647 00            	dc.b	0
2922  0648 00            	dc.b	0
2923  0649 00            	dc.b	0
2924  064a 00            	dc.b	0
2925  064b 00            	dc.b	0
2926  064c 00            	dc.b	0
2927  064d 00            	dc.b	0
2928  064e 00            	dc.b	0
2929  064f 00            	dc.b	0
2930  0650 00            	dc.b	0
2931  0651 00            	dc.b	0
2932  0652 00            	dc.b	0
2933  0653 00            	dc.b	0
2934  0654 00            	dc.b	0
2935  0655 0a            	dc.b	10
2936  0656 00            	dc.b	0
2937  0657 00            	dc.b	0
2938  0658 2d            	dc.b	45
2939  0659 2d            	dc.b	45
2940  065a 2d            	dc.b	45
2941  065b 2d            	dc.b	45
2942  065c 2d            	dc.b	45
2943  065d 2d            	dc.b	45
2944  065e 2d            	dc.b	45
2945  065f 2d            	dc.b	45
2946  0660 2d            	dc.b	45
2947  0661 2d            	dc.b	45
2948  0662 e6            	dc.b	230
2949  0663 2b            	dc.b	43
2950  0664 00            	dc.b	0
2951  0665 00            	dc.b	0
2952  0666 00            	dc.b	0
2953  0667 00            	dc.b	0
2954  0668 00            	dc.b	0
2955  0669 00            	dc.b	0
2956  066a 00            	dc.b	0
2957  066b 00            	dc.b	0
2958  066c 00            	dc.b	0
2959  066d 00            	dc.b	0
2960  066e 00            	dc.b	0
2961  066f 00            	dc.b	0
2962  0670 00            	dc.b	0
2963  0671 00            	dc.b	0
2964  0672 00            	dc.b	0
2965  0673 00            	dc.b	0
2966  0674 00            	dc.b	0
2967  0675 00            	dc.b	0
2968  0676 00            	dc.b	0
2969  0677 00            	dc.b	0
2970  0678 00            	dc.b	0
2971  0679 06            	dc.b	6
2972  067a 06            	dc.b	6
2973  067b 01            	dc.b	1
2974  067c 00            	dc.b	0
2975  067d e8            	dc.b	232
2976  067e e9            	dc.b	233
2977  067f 00            	dc.b	0
2978  0680 00            	dc.b	0
2979  0681 00            	dc.b	0
2980  0682 00            	dc.b	0
2981  0683 00            	dc.b	0
2982  0684 00            	dc.b	0
2983  0685 00            	dc.b	0
2984  0686 e8            	dc.b	232
2985  0687 1d            	dc.b	29
2986  0688 08            	dc.b	8
2987  0689 0d            	dc.b	13
2988  068a 19            	dc.b	25
2989  068b 2f            	dc.b	47
2990  068c 13            	dc.b	19
2991  068d db            	dc.b	219
2992  068e 00            	dc.b	0
2993  068f 00            	dc.b	0
2994  0690 00            	dc.b	0
2995  0691 2f            	dc.b	47
2996  0692 00            	dc.b	0
2997  0693 00            	dc.b	0
2998  0694 00            	dc.b	0
2999  0695 00            	dc.b	0
3000  0696 00            	dc.b	0
3001  0697 00            	dc.b	0
3002  0698 00            	dc.b	0
3003  0699 00            	dc.b	0
3004  069a 00            	dc.b	0
3005  069b 00            	dc.b	0
3006  069c 00            	dc.b	0
3007  069d 06            	dc.b	6
3008  069e 06            	dc.b	6
3009  069f 02            	dc.b	2
3010  06a0 00            	dc.b	0
3011  06a1 e8            	dc.b	232
3012  06a2 e9            	dc.b	233
3013  06a3 00            	dc.b	0
3014  06a4 00            	dc.b	0
3015  06a5 00            	dc.b	0
3016  06a6 00            	dc.b	0
3017  06a7 00            	dc.b	0
3018  06a8 00            	dc.b	0
3019  06a9 00            	dc.b	0
3020  06aa e9            	dc.b	233
3021  06ab 1d            	dc.b	29
3022  06ac 08            	dc.b	8
3023  06ad 0d            	dc.b	13
3024  06ae 19            	dc.b	25
3025  06af 2e            	dc.b	46
3026  06b0 13            	dc.b	19
3027  06b1 db            	dc.b	219
3028  06b2 00            	dc.b	0
3029  06b3 00            	dc.b	0
3030  06b4 2e            	dc.b	46
3031  06b5 00            	dc.b	0
3032  06b6 00            	dc.b	0
3033  06b7 00            	dc.b	0
3034  06b8 00            	dc.b	0
3035  06b9 00            	dc.b	0
3036  06ba 00            	dc.b	0
3037  06bb 00            	dc.b	0
3038  06bc 00            	dc.b	0
3039  06bd 00            	dc.b	0
3040  06be 00            	dc.b	0
3041  06bf 00            	dc.b	0
3042  06c0 00            	dc.b	0
3043  06c1 06            	dc.b	6
3044  06c2 07            	dc.b	7
3045  06c3 01            	dc.b	1
3046  06c4 00            	dc.b	0
3047  06c5 ea            	dc.b	234
3048  06c6 eb            	dc.b	235
3049  06c7 00            	dc.b	0
3050  06c8 00            	dc.b	0
3051  06c9 00            	dc.b	0
3052  06ca 00            	dc.b	0
3053  06cb 00            	dc.b	0
3054  06cc 00            	dc.b	0
3055  06cd 00            	dc.b	0
3056  06ce ea            	dc.b	234
3057  06cf 1e            	dc.b	30
3058  06d0 08            	dc.b	8
3059  06d1 0d            	dc.b	13
3060  06d2 19            	dc.b	25
3061  06d3 31            	dc.b	49
3062  06d4 13            	dc.b	19
3063  06d5 db            	dc.b	219
3064  06d6 00            	dc.b	0
3065  06d7 00            	dc.b	0
3066  06d8 00            	dc.b	0
3067  06d9 31            	dc.b	49
3068  06da 00            	dc.b	0
3069  06db 00            	dc.b	0
3070  06dc 00            	dc.b	0
3071  06dd 00            	dc.b	0
3072  06de 00            	dc.b	0
3073  06df 00            	dc.b	0
3074  06e0 00            	dc.b	0
3075  06e1 00            	dc.b	0
3076  06e2 00            	dc.b	0
3077  06e3 00            	dc.b	0
3078  06e4 00            	dc.b	0
3079  06e5 06            	dc.b	6
3080  06e6 07            	dc.b	7
3081  06e7 02            	dc.b	2
3082  06e8 00            	dc.b	0
3083  06e9 ea            	dc.b	234
3084  06ea eb            	dc.b	235
3085  06eb 00            	dc.b	0
3086  06ec 00            	dc.b	0
3087  06ed 00            	dc.b	0
3088  06ee 00            	dc.b	0
3089  06ef 00            	dc.b	0
3090  06f0 00            	dc.b	0
3091  06f1 00            	dc.b	0
3092  06f2 eb            	dc.b	235
3093  06f3 1e            	dc.b	30
3094  06f4 08            	dc.b	8
3095  06f5 0d            	dc.b	13
3096  06f6 19            	dc.b	25
3097  06f7 30            	dc.b	48
3098  06f8 13            	dc.b	19
3099  06f9 db            	dc.b	219
3100  06fa 00            	dc.b	0
3101  06fb 00            	dc.b	0
3102  06fc 30            	dc.b	48
3103  06fd 00            	dc.b	0
3104  06fe 00            	dc.b	0
3105  06ff 00            	dc.b	0
3106  0700 00            	dc.b	0
3107  0701 00            	dc.b	0
3108  0702 00            	dc.b	0
3109  0703 00            	dc.b	0
3110  0704 00            	dc.b	0
3111  0705 00            	dc.b	0
3112  0706 00            	dc.b	0
3113  0707 00            	dc.b	0
3114  0708 00            	dc.b	0
3115  0709 06            	dc.b	6
3116  070a 08            	dc.b	8
3117  070b 01            	dc.b	1
3118  070c 00            	dc.b	0
3119  070d ec            	dc.b	236
3120  070e ed            	dc.b	237
3121  070f 00            	dc.b	0
3122  0710 00            	dc.b	0
3123  0711 00            	dc.b	0
3124  0712 00            	dc.b	0
3125  0713 00            	dc.b	0
3126  0714 00            	dc.b	0
3127  0715 00            	dc.b	0
3128  0716 ec            	dc.b	236
3129  0717 1f            	dc.b	31
3130  0718 08            	dc.b	8
3131  0719 0d            	dc.b	13
3132  071a 19            	dc.b	25
3133  071b 33            	dc.b	51
3134  071c 13            	dc.b	19
3135  071d db            	dc.b	219
3136  071e 00            	dc.b	0
3137  071f 00            	dc.b	0
3138  0720 00            	dc.b	0
3139  0721 33            	dc.b	51
3140  0722 00            	dc.b	0
3141  0723 00            	dc.b	0
3142  0724 00            	dc.b	0
3143  0725 00            	dc.b	0
3144  0726 00            	dc.b	0
3145  0727 00            	dc.b	0
3146  0728 00            	dc.b	0
3147  0729 00            	dc.b	0
3148  072a 00            	dc.b	0
3149  072b 00            	dc.b	0
3150  072c 00            	dc.b	0
3151  072d 06            	dc.b	6
3152  072e 08            	dc.b	8
3153  072f 02            	dc.b	2
3154  0730 00            	dc.b	0
3155  0731 ec            	dc.b	236
3156  0732 ed            	dc.b	237
3157  0733 00            	dc.b	0
3158  0734 00            	dc.b	0
3159  0735 00            	dc.b	0
3160  0736 00            	dc.b	0
3161  0737 00            	dc.b	0
3162  0738 00            	dc.b	0
3163  0739 00            	dc.b	0
3164  073a ed            	dc.b	237
3165  073b 1f            	dc.b	31
3166  073c 08            	dc.b	8
3167  073d 0d            	dc.b	13
3168  073e 19            	dc.b	25
3169  073f 32            	dc.b	50
3170  0740 13            	dc.b	19
3171  0741 db            	dc.b	219
3172  0742 00            	dc.b	0
3173  0743 00            	dc.b	0
3174  0744 32            	dc.b	50
3175  0745 00            	dc.b	0
3176  0746 00            	dc.b	0
3177  0747 00            	dc.b	0
3178  0748 00            	dc.b	0
3179  0749 00            	dc.b	0
3180  074a 00            	dc.b	0
3181  074b 00            	dc.b	0
3182  074c 00            	dc.b	0
3183  074d 00            	dc.b	0
3184  074e 00            	dc.b	0
3185  074f 00            	dc.b	0
3186  0750 00            	dc.b	0
3237                     ; 88 void displayAppInit(void)
3237                     ; 89 {
3238                     	switch	.text
3240                     	xref.b	_displayAppInit$L
3241  0000               _displayAppInit:
3244                     ; 90 	BYTE j = 0x01;
3246  0000 a601          	ld	a,#1
3247  0002 b7ff          	ld	_displayAppInit$L-1,a
3248                     ; 91 	screenInit();
3250  0004 cd0000        	call	_screenInit
3252                     ; 93 	screenBigStdMessage(SCREEN_STD_MSG_INIT_PARAM);
3254  0007 4f            	clr	a
3255  0008 cd0000        	call	_screenBigStdMessage
3257                     ; 95 	m_byPageWaitingAnswer = PAGE_NONE;
3259  000b 4f            	clr	a
3260  000c c70001        	ld	_m_byPageWaitingAnswer,a
3261                     ; 96 	m_byPageAnswerReceived = false;
3263  000f 4f            	clr	a
3264  0010 c70000        	ld	_m_byPageAnswerReceived,a
3265                     ; 97 	m_byManualShiftActiveLong = false;
3267  0013 4f            	clr	a
3268  0014 c70004        	ld	_m_byManualShiftActiveLong,a
3269                     ; 98 	m_byManualShiftActiveTrans = false;
3271  0017 4f            	clr	a
3272  0018 c70003        	ld	_m_byManualShiftActiveTrans,a
3273                     ; 99 	m_byManualShiftActivePull = false;
3275  001b 4f            	clr	a
3276  001c c70002        	ld	_m_byManualShiftActivePull,a
3277                     ; 101 	parametersInit(); 
3279  001f cd0000        	call	_parametersInit
3281                     ; 102 	SNI_Init();
3283  0022 cd0000        	call	_SNI_Init
3285                     ; 104 	STI_SendMessage(STI_FUNZ_INIT_PARAM, 0x00, 0x0000);
3287  0025 3f02          	clr	_STI_SendMessage$L+2
3288  0027 3f03          	clr	_STI_SendMessage$L+3
3289  0029 4f            	clr	a
3290  002a ae8e          	ld	x,#142
3291  002c cd0000        	call	_STI_SendMessage
3293                     ; 106 	STI_SendMessage(STI_FUNZ_STOP_REFERENCE_MAN, 0x00, 0x0000);
3295  002f 3f02          	clr	_STI_SendMessage$L+2
3296  0031 3f03          	clr	_STI_SendMessage$L+3
3297  0033 4f            	clr	a
3298  0034 ae8c          	ld	x,#140
3299  0036 cd0000        	call	_STI_SendMessage
3301                     ; 108 }
3304  0039 81            	ret
3344                     ; 111 void displayAppUpdateMode(BYTE byLongitudinal)
3344                     ; 112 {
3345                     	switch	.text
3347                     	xref.b	_displayAppUpdateMode$L
3348  003a               _displayAppUpdateMode:
3350  003a b700          	ld	_displayAppUpdateMode$L,a
3352                     ; 113 	if ((parametersGetValue(PARAM_PAGE) != PAGE_REGISTER) && 
3352                     ; 114 		(parametersGetValue(PARAM_PAGE) != PAGE_ALARM)  &&
3352                     ; 115 		(parametersGetValue(PARAM_PAGE) != PAGE_OSCILLOSCOPE)  
3352                     ; 116 	   )
3354  003c a608          	ld	a,#8
3355  003e cd0000        	call	_parametersGetValue
3357  0041 a104          	cp	a,#4
3358  0043 2602          	jrne	L01
3359  0045 a300          	cp	x,#0
3360  0047               L01:
3361  0047 271b          	jreq	L5001
3363  0049 a608          	ld	a,#8
3364  004b cd0000        	call	_parametersGetValue
3366  004e a103          	cp	a,#3
3367  0050 2602          	jrne	L21
3368  0052 a300          	cp	x,#0
3369  0054               L21:
3370  0054 270e          	jreq	L5001
3372  0056 a608          	ld	a,#8
3373  0058 cd0000        	call	_parametersGetValue
3375  005b a105          	cp	a,#5
3376  005d 2602          	jrne	L41
3377  005f a300          	cp	x,#0
3378  0061               L41:
3379  0061 2701          	jreq	L5001
3380                     ; 118 		return;
3383  0063 81            	ret
3384  0064               L5001:
3385                     ; 121 	if (byLongitudinal)
3387  0064 3d00          	tnz	_displayAppUpdateMode$L
3388  0066 276d          	jreq	L7001
3389                     ; 123 		if (parametersGetValue(PARAM_MODE_LONG)==PARAM_MODE_AUTO)
3391  0068 a60a          	ld	a,#10
3392  006a cd0000        	call	_parametersGetValue
3394  006d a1ff          	cp	a,#255
3395  006f 2602          	jrne	L61
3396  0071 a300          	cp	x,#0
3397  0073               L61:
3398  0073 2645          	jrne	L1101
3399                     ; 125 			parametersSet(PARAM_MODE_LONG, PARAM_MODE_MANUAL);
3401  0075 3f01          	clr	_parametersSet$L+1
3402  0077 3f02          	clr	_parametersSet$L+2
3403  0079 a60a          	ld	a,#10
3404  007b cd0000        	call	_parametersSet
3406                     ; 126 			parametersSet(PARAM_MODE_PULL, PARAM_MODE_MANUAL);
3408  007e 3f01          	clr	_parametersSet$L+1
3409  0080 3f02          	clr	_parametersSet$L+2
3410  0082 a60c          	ld	a,#12
3411  0084 cd0000        	call	_parametersSet
3413                     ; 127 			parametersSet(PARAM_CORRECTION, 0x0000);	
3415  0087 3f01          	clr	_parametersSet$L+1
3416  0089 3f02          	clr	_parametersSet$L+2
3417  008b a60d          	ld	a,#13
3418  008d cd0000        	call	_parametersSet
3420                     ; 129 			parametersSet(PARAM_ERR_BOUND_LONG, false);			
3422  0090 3f01          	clr	_parametersSet$L+1
3423  0092 3f02          	clr	_parametersSet$L+2
3424  0094 a613          	ld	a,#19
3425  0096 cd0000        	call	_parametersSet
3427                     ; 130 			m_byManualShiftActiveLong = false;
3429  0099 4f            	clr	a
3430  009a c70004        	ld	_m_byManualShiftActiveLong,a
3431                     ; 131 			m_byManualShiftActivePull = false;
3433  009d 4f            	clr	a
3434  009e c70002        	ld	_m_byManualShiftActivePull,a
3435                     ; 132 			STI_SendMessage(STI_FUNZ_WRITE_PARAM, STI_PARAM_MODE_LONG, PARAM_MODE_MANUAL);
3437  00a1 3f02          	clr	_STI_SendMessage$L+2
3438  00a3 3f03          	clr	_STI_SendMessage$L+3
3439  00a5 a60d          	ld	a,#13
3440  00a7 ae81          	ld	x,#129
3441  00a9 cd0000        	call	_STI_SendMessage
3443                     ; 133 			STI_SendMessage(STI_FUNZ_WRITE_PARAM, STI_PARAM_MODE_PULL, PARAM_MODE_MANUAL);
3445  00ac 3f02          	clr	_STI_SendMessage$L+2
3446  00ae 3f03          	clr	_STI_SendMessage$L+3
3447  00b0 a623          	ld	a,#35
3448  00b2 ae81          	ld	x,#129
3449  00b4 cd0000        	call	_STI_SendMessage
3452  00b7 cc018a        	jp	L5101
3453  00ba               L1101:
3454                     ; 137 			parametersSet(PARAM_MODE_LONG, PARAM_MODE_AUTO);
3456  00ba a6ff          	ld	a,#255
3457  00bc b702          	ld	_parametersSet$L+2,a
3458  00be 3f01          	clr	_parametersSet$L+1
3459  00c0 a60a          	ld	a,#10
3460  00c2 cd0000        	call	_parametersSet
3462                     ; 138 			STI_SendMessage(STI_FUNZ_WRITE_PARAM, STI_PARAM_MODE_LONG, PARAM_MODE_AUTO);
3464  00c5 a6ff          	ld	a,#255
3465  00c7 b703          	ld	_STI_SendMessage$L+3,a
3466  00c9 3f02          	clr	_STI_SendMessage$L+2
3467  00cb a60d          	ld	a,#13
3468  00cd ae81          	ld	x,#129
3469  00cf cd0000        	call	_STI_SendMessage
3471  00d2 cc018a        	jp	L5101
3472  00d5               L7001:
3473                     ; 143 		if (parametersGetValue(PARAM_TRANS_ENABLE)==0x0000)
3475  00d5 a630          	ld	a,#48
3476  00d7 cd0000        	call	_parametersGetValue
3478  00da 4d            	tnz	a
3479  00db 2601          	jrne	L02
3480  00dd 5d            	tnz	x
3481  00de               L02:
3482  00de 264a          	jrne	L7101
3483                     ; 145 			if (parametersGetValue(PARAM_MODE_TRANS)==PARAM_MODE_AUTO)
3485  00e0 a60b          	ld	a,#11
3486  00e2 cd0000        	call	_parametersGetValue
3488  00e5 a1ff          	cp	a,#255
3489  00e7 2602          	jrne	L22
3490  00e9 a300          	cp	x,#0
3491  00eb               L22:
3492  00eb 2623          	jrne	L1201
3493                     ; 147 				parametersSet(PARAM_MODE_TRANS, PARAM_MODE_MANUAL);
3495  00ed 3f01          	clr	_parametersSet$L+1
3496  00ef 3f02          	clr	_parametersSet$L+2
3497  00f1 a60b          	ld	a,#11
3498  00f3 cd0000        	call	_parametersSet
3500                     ; 148 				parametersSet(PARAM_CORRECTION, 0x0000);
3502  00f6 3f01          	clr	_parametersSet$L+1
3503  00f8 3f02          	clr	_parametersSet$L+2
3504  00fa a60d          	ld	a,#13
3505  00fc cd0000        	call	_parametersSet
3507                     ; 149 				m_byManualShiftActiveTrans = false;
3509  00ff 4f            	clr	a
3510  0100 c70003        	ld	_m_byManualShiftActiveTrans,a
3511                     ; 150 				STI_SendMessage(STI_FUNZ_WRITE_PARAM, STI_PARAM_MODE_TRANS, PARAM_MODE_MANUAL);
3513  0103 3f02          	clr	_STI_SendMessage$L+2
3514  0105 3f03          	clr	_STI_SendMessage$L+3
3515  0107 a60e          	ld	a,#14
3516  0109 ae81          	ld	x,#129
3517  010b cd0000        	call	_STI_SendMessage
3520  010e 207a          	jra	L5101
3521  0110               L1201:
3522                     ; 154 				parametersSet(PARAM_MODE_TRANS, PARAM_MODE_AUTO);
3524  0110 a6ff          	ld	a,#255
3525  0112 b702          	ld	_parametersSet$L+2,a
3526  0114 3f01          	clr	_parametersSet$L+1
3527  0116 a60b          	ld	a,#11
3528  0118 cd0000        	call	_parametersSet
3530                     ; 155 				STI_SendMessage(STI_FUNZ_WRITE_PARAM, STI_PARAM_MODE_TRANS, PARAM_MODE_AUTO);
3532  011b a6ff          	ld	a,#255
3533  011d b703          	ld	_STI_SendMessage$L+3,a
3534  011f 3f02          	clr	_STI_SendMessage$L+2
3535  0121 a60e          	ld	a,#14
3536  0123 ae81          	ld	x,#129
3537  0125 cd0000        	call	_STI_SendMessage
3539  0128 2060          	jra	L5101
3540  012a               L7101:
3541                     ; 158 		else if (parametersGetValue(PARAM_PULL_ENABLE)==0x0000)
3543  012a a631          	ld	a,#49
3544  012c cd0000        	call	_parametersGetValue
3546  012f 4d            	tnz	a
3547  0130 2601          	jrne	L42
3548  0132 5d            	tnz	x
3549  0133               L42:
3550  0133 2655          	jrne	L5101
3551                     ; 160 			if (parametersGetValue(PARAM_MODE_PULL)==PARAM_MODE_AUTO)
3553  0135 a60c          	ld	a,#12
3554  0137 cd0000        	call	_parametersGetValue
3556  013a a1ff          	cp	a,#255
3557  013c 2602          	jrne	L62
3558  013e a300          	cp	x,#0
3559  0140               L62:
3560  0140 2623          	jrne	L1301
3561                     ; 162 				parametersSet(PARAM_MODE_PULL, PARAM_MODE_MANUAL);
3563  0142 3f01          	clr	_parametersSet$L+1
3564  0144 3f02          	clr	_parametersSet$L+2
3565  0146 a60c          	ld	a,#12
3566  0148 cd0000        	call	_parametersSet
3568                     ; 163 				parametersSet(PARAM_CORRECTION, 0x0000);
3570  014b 3f01          	clr	_parametersSet$L+1
3571  014d 3f02          	clr	_parametersSet$L+2
3572  014f a60d          	ld	a,#13
3573  0151 cd0000        	call	_parametersSet
3575                     ; 164 				m_byManualShiftActivePull = false;
3577  0154 4f            	clr	a
3578  0155 c70002        	ld	_m_byManualShiftActivePull,a
3579                     ; 165 				STI_SendMessage(STI_FUNZ_WRITE_PARAM, STI_PARAM_MODE_PULL, PARAM_MODE_MANUAL);
3581  0158 3f02          	clr	_STI_SendMessage$L+2
3582  015a 3f03          	clr	_STI_SendMessage$L+3
3583  015c a623          	ld	a,#35
3584  015e ae81          	ld	x,#129
3585  0160 cd0000        	call	_STI_SendMessage
3588  0163 2025          	jra	L5101
3589  0165               L1301:
3590                     ; 169 				if (parametersGetValue(PARAM_MODE_LONG)==PARAM_MODE_AUTO)
3592  0165 a60a          	ld	a,#10
3593  0167 cd0000        	call	_parametersGetValue
3595  016a a1ff          	cp	a,#255
3596  016c 2602          	jrne	L03
3597  016e a300          	cp	x,#0
3598  0170               L03:
3599  0170 2618          	jrne	L5101
3600                     ; 171 					parametersSet(PARAM_MODE_PULL, PARAM_MODE_AUTO);
3602  0172 a6ff          	ld	a,#255
3603  0174 b702          	ld	_parametersSet$L+2,a
3604  0176 3f01          	clr	_parametersSet$L+1
3605  0178 a60c          	ld	a,#12
3606  017a cd0000        	call	_parametersSet
3608                     ; 172 					STI_SendMessage(STI_FUNZ_WRITE_PARAM, STI_PARAM_MODE_PULL, PARAM_MODE_AUTO);
3610  017d a6ff          	ld	a,#255
3611  017f b703          	ld	_STI_SendMessage$L+3,a
3612  0181 3f02          	clr	_STI_SendMessage$L+2
3613  0183 a623          	ld	a,#35
3614  0185 ae81          	ld	x,#129
3615  0187 cd0000        	call	_STI_SendMessage
3617  018a               L5101:
3618                     ; 177 }
3621  018a 81            	ret
3661                     ; 181 void displayAppRefreshVisualization(void)
3661                     ; 182 {
3662                     	switch	.text
3664                     	xref.b	_displayAppRefreshVisualization$L
3665  018b               _displayAppRefreshVisualization:
3668                     ; 185 	if(!displayIsKeyPressed())
3670  018b cd0000        	call	_displayIsKeyPressed
3672  018e 4d            	tnz	a
3673  018f 2638          	jrne	L5501
3674                     ; 187 		byPage = parametersGetValue(PARAM_PAGE);
3676  0191 a608          	ld	a,#8
3677  0193 cd0000        	call	_parametersGetValue
3679  0196 b7ff          	ld	_displayAppRefreshVisualization$L-1,a
3680                     ; 189 		if (((byPage == PAGE_PHASE_FAST) || 
3680                     ; 190 			(byPage == PAGE_OSCILLOSCOPE) || 
3680                     ; 191 			(byPage == PAGE_PHASE_OSCILL)) 
3680                     ; 192 			// && (!parametersIsChanged(PARAM_CORRECTION)) ;autorefresh
3680                     ; 193 		   )
3682  0198 b6ff          	ld	a,_displayAppRefreshVisualization$L-1
3683  019a a107          	cp	a,#7
3684  019c 270c          	jreq	L1601
3686  019e b6ff          	ld	a,_displayAppRefreshVisualization$L-1
3687  01a0 a105          	cp	a,#5
3688  01a2 2706          	jreq	L1601
3690  01a4 b6ff          	ld	a,_displayAppRefreshVisualization$L-1
3691  01a6 a106          	cp	a,#6
3692  01a8 261c          	jrne	L7501
3693  01aa               L1601:
3694                     ; 195 			scanningHeadSignalAcquire();
3696  01aa cd0000        	call	_scanningHeadSignalAcquire
3698                     ; 196 			if (parametersGetValue(PARAM_PULL_DAC_ENABLE) == 0x0000)
3700  01ad a63d          	ld	a,#61
3701  01af cd0000        	call	_parametersGetValue
3703  01b2 4d            	tnz	a
3704  01b3 2601          	jrne	L43
3705  01b5 5d            	tnz	x
3706  01b6               L43:
3707  01b6 260e          	jrne	L7501
3708                     ; 198 				parametersSet(PARAM_BASE_VALUE_DAC, STI_GetMessage(STI_PARAM_BASE_VALUE_DAC));
3710  01b8 a621          	ld	a,#33
3711  01ba cd0000        	call	_STI_GetMessage
3713  01bd b702          	ld	_parametersSet$L+2,a
3714  01bf bf01          	ld	_parametersSet$L+1,x
3715  01c1 a61b          	ld	a,#27
3716  01c3 cd0000        	call	_parametersSet
3718  01c6               L7501:
3719                     ; 202 		screenUpdateCurrentScreen(); 
3721  01c6 cd0000        	call	_screenUpdateCurrentScreen
3723  01c9               L5501:
3724                     ; 204 }
3727  01c9 81            	ret
3770                     ; 208 void  displayAppShowMessages(void)
3770                     ; 209 {
3771                     	switch	.text
3773                     	xref.b	_displayAppShowMessages$L
3774  01ca               _displayAppShowMessages:
3777                     ; 212 	if (_btst(_Pa_DDASK, _Pin_DDASK))
3779  01ca b600          	ld	a,_PADR
3780  01cc a508          	bcp	a,#8
3781  01ce 2603          	jrne	L04
3782  01d0 cc033c        	jp	L5111
3783  01d3               L04:
3784                     ; 214 		STI_ReceiveMessage(&m_byCode, &m_byAdditionalCode, &m_woValue);
3786  01d3 ae06          	ld	x,#high(_m_woValue)
3787  01d5 bf04          	ld	_STI_ReceiveMessage$L+4,x
3788  01d7 a606          	ld	a,#low(_m_woValue)
3789  01d9 b705          	ld	_STI_ReceiveMessage$L+5,a
3790  01db ae08          	ld	x,#high(_m_byAdditionalCode)
3791  01dd bf02          	ld	_STI_ReceiveMessage$L+2,x
3792  01df a608          	ld	a,#low(_m_byAdditionalCode)
3793  01e1 b703          	ld	_STI_ReceiveMessage$L+3,a
3794  01e3 a609          	ld	a,#low(_m_byCode)
3795  01e5 ae09          	ld	x,#high(_m_byCode)
3796  01e7 cd0000        	call	_STI_ReceiveMessage
3798                     ; 216 		if(m_byCode==0xC4)
3800  01ea c60009        	ld	a,_m_byCode
3801  01ed a1c4          	cp	a,#196
3802  01ef 263e          	jrne	L7111
3803                     ; 218 			strString[15] = 0x00;
3805  01f1 3fff          	clr	_displayAppShowMessages$L-1
3806                     ; 219 			memcpy(strString, "Status  = ", 9); 
3808  01f3 a609          	ld	a,#9
3809  01f5 b704          	ld	_memcpy$L+4,a
3810  01f7 aec2          	ld	x,#high(L1211)
3811  01f9 bf02          	ld	_memcpy$L+2,x
3812  01fb a6c2          	ld	a,#low(L1211)
3813  01fd b703          	ld	_memcpy$L+3,a
3814  01ff a6f0          	ld	a,#_displayAppShowMessages$L-16
3815  0201 5f            	clr	x
3816  0202 cd0000        	call	_memcpy
3818                     ; 220 			formatNumber(m_woValue, 5, 0, strString+9);
3820  0205 aef9          	ld	x,#high(_displayAppShowMessages$L-7)
3821  0207 bf04          	ld	_formatNumber$L+4,x
3822  0209 a6f9          	ld	a,#low(_displayAppShowMessages$L-7)
3823  020b b705          	ld	_formatNumber$L+5,a
3824  020d 3f03          	clr	_formatNumber$L+3
3825  020f a605          	ld	a,#5
3826  0211 b702          	ld	_formatNumber$L+2,a
3827  0213 c60007        	ld	a,_m_woValue+1
3828  0216 ce0006        	ld	x,_m_woValue
3829  0219 cd0000        	call	_formatNumber
3831                     ; 221 			displayWriteString(strString, DISPLAY_SELECT_FONT_5x7, 0, 40);
3833  021c a628          	ld	a,#40
3834  021e b704          	ld	_displayWriteString$L+4,a
3835  0220 3f03          	clr	_displayWriteString$L+3
3836  0222 a61d          	ld	a,#29
3837  0224 b702          	ld	_displayWriteString$L+2,a
3838  0226 a6f0          	ld	a,#_displayAppShowMessages$L-16
3839  0228 5f            	clr	x
3840  0229 cd0000        	call	_displayWriteString
3843  022c cc033c        	jp	L5111
3844  022f               L7111:
3845                     ; 225 			switch(m_byAdditionalCode)
3847  022f c60008        	ld	a,_m_byAdditionalCode
3849                     ; 250 					break;
3850  0232 a01a          	sub	a,#26
3851  0234 2603          	jrne	L24
3852  0236 cc02c4        	jp	L3701
3853  0239               L24:
3854  0239 4a            	dec	a
3855  023a 2603          	jrne	L44
3856  023c cc0301        	jp	L5701
3857  023f               L44:
3858  023f 4a            	dec	a
3859  0240 2707          	jreq	L7601
3860  0242 a004          	sub	a,#4
3861  0244 2741          	jreq	L1701
3862  0246 cc033c        	jp	L5111
3863  0249               L7601:
3864                     ; 227 				case 0x1C:
3864                     ; 228 					strString[15] = 0x00;
3866  0249 3fff          	clr	_displayAppShowMessages$L-1
3867                     ; 229 					memcpy(strString, "Led    = ", 9); 
3869  024b a609          	ld	a,#9
3870  024d b704          	ld	_memcpy$L+4,a
3871  024f aeb8          	ld	x,#high(L1311)
3872  0251 bf02          	ld	_memcpy$L+2,x
3873  0253 a6b8          	ld	a,#low(L1311)
3874  0255 b703          	ld	_memcpy$L+3,a
3875  0257 a6f0          	ld	a,#_displayAppShowMessages$L-16
3876  0259 5f            	clr	x
3877  025a cd0000        	call	_memcpy
3879                     ; 230 					formatNumber(m_woValue, 5, 0, strString+9);
3881  025d aef9          	ld	x,#high(_displayAppShowMessages$L-7)
3882  025f bf04          	ld	_formatNumber$L+4,x
3883  0261 a6f9          	ld	a,#low(_displayAppShowMessages$L-7)
3884  0263 b705          	ld	_formatNumber$L+5,a
3885  0265 3f03          	clr	_formatNumber$L+3
3886  0267 a605          	ld	a,#5
3887  0269 b702          	ld	_formatNumber$L+2,a
3888  026b c60007        	ld	a,_m_woValue+1
3889  026e ce0006        	ld	x,_m_woValue
3890  0271 cd0000        	call	_formatNumber
3892                     ; 231 					displayWriteString(strString, DISPLAY_SELECT_FONT_5x7, 0, 10);
3894  0274 a60a          	ld	a,#10
3895  0276 b704          	ld	_displayWriteString$L+4,a
3896  0278 3f03          	clr	_displayWriteString$L+3
3897  027a a61d          	ld	a,#29
3898  027c b702          	ld	_displayWriteString$L+2,a
3899  027e a6f0          	ld	a,#_displayAppShowMessages$L-16
3900  0280 5f            	clr	x
3901  0281 cd0000        	call	_displayWriteString
3903                     ; 232 					break;
3905  0284 cc033c        	jp	L5111
3906  0287               L1701:
3907                     ; 233 				case 0x20:
3907                     ; 234 					strString[15] = 0x00;
3909  0287 3fff          	clr	_displayAppShowMessages$L-1
3910                     ; 235 					memcpy(strString, "Speed  = ", 9); 
3912  0289 a609          	ld	a,#9
3913  028b b704          	ld	_memcpy$L+4,a
3914  028d aeae          	ld	x,#high(L3311)
3915  028f bf02          	ld	_memcpy$L+2,x
3916  0291 a6ae          	ld	a,#low(L3311)
3917  0293 b703          	ld	_memcpy$L+3,a
3918  0295 a6f0          	ld	a,#_displayAppShowMessages$L-16
3919  0297 5f            	clr	x
3920  0298 cd0000        	call	_memcpy
3922                     ; 236 					formatNumber(m_woValue, 5, 0, strString+9);
3924  029b aef9          	ld	x,#high(_displayAppShowMessages$L-7)
3925  029d bf04          	ld	_formatNumber$L+4,x
3926  029f a6f9          	ld	a,#low(_displayAppShowMessages$L-7)
3927  02a1 b705          	ld	_formatNumber$L+5,a
3928  02a3 3f03          	clr	_formatNumber$L+3
3929  02a5 a605          	ld	a,#5
3930  02a7 b702          	ld	_formatNumber$L+2,a
3931  02a9 c60007        	ld	a,_m_woValue+1
3932  02ac ce0006        	ld	x,_m_woValue
3933  02af cd0000        	call	_formatNumber
3935                     ; 237 					displayWriteString(strString, DISPLAY_SELECT_FONT_5x7, 0, 20);
3937  02b2 a614          	ld	a,#20
3938  02b4 b704          	ld	_displayWriteString$L+4,a
3939  02b6 3f03          	clr	_displayWriteString$L+3
3940  02b8 a61d          	ld	a,#29
3941  02ba b702          	ld	_displayWriteString$L+2,a
3942  02bc a6f0          	ld	a,#_displayAppShowMessages$L-16
3943  02be 5f            	clr	x
3944  02bf cd0000        	call	_displayWriteString
3946                     ; 238 					break;
3948  02c2 2078          	jra	L5111
3949  02c4               L3701:
3950                     ; 239 				case 0x1A:
3950                     ; 240 					strString[15] = 0x00;
3952  02c4 3fff          	clr	_displayAppShowMessages$L-1
3953                     ; 241 					memcpy(strString, "Error =+", 9); 
3955  02c6 a609          	ld	a,#9
3956  02c8 b704          	ld	_memcpy$L+4,a
3957  02ca aea5          	ld	x,#high(L5311)
3958  02cc bf02          	ld	_memcpy$L+2,x
3959  02ce a6a5          	ld	a,#low(L5311)
3960  02d0 b703          	ld	_memcpy$L+3,a
3961  02d2 a6f0          	ld	a,#_displayAppShowMessages$L-16
3962  02d4 5f            	clr	x
3963  02d5 cd0000        	call	_memcpy
3965                     ; 242 					formatNumber(m_woValue, 5, 0, strString+9);
3967  02d8 aef9          	ld	x,#high(_displayAppShowMessages$L-7)
3968  02da bf04          	ld	_formatNumber$L+4,x
3969  02dc a6f9          	ld	a,#low(_displayAppShowMessages$L-7)
3970  02de b705          	ld	_formatNumber$L+5,a
3971  02e0 3f03          	clr	_formatNumber$L+3
3972  02e2 a605          	ld	a,#5
3973  02e4 b702          	ld	_formatNumber$L+2,a
3974  02e6 c60007        	ld	a,_m_woValue+1
3975  02e9 ce0006        	ld	x,_m_woValue
3976  02ec cd0000        	call	_formatNumber
3978                     ; 243 					displayWriteString(strString, DISPLAY_SELECT_FONT_5x7, 0, 30);
3980  02ef a61e          	ld	a,#30
3981  02f1 b704          	ld	_displayWriteString$L+4,a
3982  02f3 3f03          	clr	_displayWriteString$L+3
3983  02f5 a61d          	ld	a,#29
3984  02f7 b702          	ld	_displayWriteString$L+2,a
3985  02f9 a6f0          	ld	a,#_displayAppShowMessages$L-16
3986  02fb 5f            	clr	x
3987  02fc cd0000        	call	_displayWriteString
3989                     ; 244 					break;
3991  02ff 203b          	jra	L5111
3992  0301               L5701:
3993                     ; 245 				case 0x1B:
3993                     ; 246 					strString[15] = 0x00;
3995  0301 3fff          	clr	_displayAppShowMessages$L-1
3996                     ; 247 					memcpy(strString, "Error  =-", 9); 
3998  0303 a609          	ld	a,#9
3999  0305 b704          	ld	_memcpy$L+4,a
4000  0307 ae9b          	ld	x,#high(L7311)
4001  0309 bf02          	ld	_memcpy$L+2,x
4002  030b a69b          	ld	a,#low(L7311)
4003  030d b703          	ld	_memcpy$L+3,a
4004  030f a6f0          	ld	a,#_displayAppShowMessages$L-16
4005  0311 5f            	clr	x
4006  0312 cd0000        	call	_memcpy
4008                     ; 248 					formatNumber(m_woValue, 5, 0, strString+9);
4010  0315 aef9          	ld	x,#high(_displayAppShowMessages$L-7)
4011  0317 bf04          	ld	_formatNumber$L+4,x
4012  0319 a6f9          	ld	a,#low(_displayAppShowMessages$L-7)
4013  031b b705          	ld	_formatNumber$L+5,a
4014  031d 3f03          	clr	_formatNumber$L+3
4015  031f a605          	ld	a,#5
4016  0321 b702          	ld	_formatNumber$L+2,a
4017  0323 c60007        	ld	a,_m_woValue+1
4018  0326 ce0006        	ld	x,_m_woValue
4019  0329 cd0000        	call	_formatNumber
4021                     ; 249 					displayWriteString(strString, DISPLAY_SELECT_FONT_5x7, 0, 30);
4023  032c a61e          	ld	a,#30
4024  032e b704          	ld	_displayWriteString$L+4,a
4025  0330 3f03          	clr	_displayWriteString$L+3
4026  0332 a61d          	ld	a,#29
4027  0334 b702          	ld	_displayWriteString$L+2,a
4028  0336 a6f0          	ld	a,#_displayAppShowMessages$L-16
4029  0338 5f            	clr	x
4030  0339 cd0000        	call	_displayWriteString
4032                     ; 250 					break;
4034  033c               L7211:
4035  033c               L5111:
4036                     ; 254 }
4039  033c 81            	ret
4068                     ; 257 void  displayAppRequestCom(void)
4068                     ; 258 {
4069                     	switch	.text
4070  033d               _displayAppRequestCom:
4073  033d 201a          	jra	L3511
4074  033f               L1511:
4075                     ; 261 		STI_ReceiveMessage(&m_byCode, &m_byAdditionalCode, &m_woValue);
4077  033f ae06          	ld	x,#high(_m_woValue)
4078  0341 bf04          	ld	_STI_ReceiveMessage$L+4,x
4079  0343 a606          	ld	a,#low(_m_woValue)
4080  0345 b705          	ld	_STI_ReceiveMessage$L+5,a
4081  0347 ae08          	ld	x,#high(_m_byAdditionalCode)
4082  0349 bf02          	ld	_STI_ReceiveMessage$L+2,x
4083  034b a608          	ld	a,#low(_m_byAdditionalCode)
4084  034d b703          	ld	_STI_ReceiveMessage$L+3,a
4085  034f a609          	ld	a,#low(_m_byCode)
4086  0351 ae09          	ld	x,#high(_m_byCode)
4087  0353 cd0000        	call	_STI_ReceiveMessage
4089                     ; 262 		displayAppManageParameter();
4091  0356 cd0434        	call	_displayAppManageParameter
4093  0359               L3511:
4094                     ; 259 	while (_btst(_Pa_DDASK, _Pin_DDASK))
4096  0359 b600          	ld	a,_PADR
4097  035b a508          	bcp	a,#8
4098  035d 26e0          	jrne	L1511
4099                     ; 264 }
4102  035f 81            	ret
4146                     ; 267 void displayAppManageAnswer(void)
4146                     ; 268 {	
4147                     	switch	.text
4149                     	xref.b	_displayAppManageAnswer$L
4150  0360               _displayAppManageAnswer:
4153                     ; 273 	if((m_byPageWaitingAnswer != PAGE_NONE) && m_byPageAnswerReceived)
4155  0360 c60001        	ld	a,_m_byPageWaitingAnswer
4156  0363 4d            	tnz	a
4157  0364 2603          	jrne	L25
4158  0366 cc0433        	jp	L7021
4159  0369               L25:
4161  0369 c60000        	ld	a,_m_byPageAnswerReceived
4162  036c 4d            	tnz	a
4163  036d 2603          	jrne	L45
4164  036f cc0433        	jp	L7021
4165  0372               L45:
4166                     ; 275 		woAnswer = parametersGetValue(PARAM_ALARM);
4168  0372 a607          	ld	a,#7
4169  0374 cd0000        	call	_parametersGetValue
4171  0377 b7ff          	ld	_displayAppManageAnswer$L-1,a
4172  0379 bffe          	ld	_displayAppManageAnswer$L-2,x
4173                     ; 276 		parametersSet(PARAM_MODE_LONG, STI_GetMessage(STI_PARAM_MODE_LONG));
4175  037b a60d          	ld	a,#13
4176  037d cd0000        	call	_STI_GetMessage
4178  0380 b702          	ld	_parametersSet$L+2,a
4179  0382 bf01          	ld	_parametersSet$L+1,x
4180  0384 a60a          	ld	a,#10
4181  0386 cd0000        	call	_parametersSet
4183                     ; 277 		parametersSet(PARAM_MODE_TRANS, STI_GetMessage(STI_PARAM_MODE_TRANS));
4185  0389 a60e          	ld	a,#14
4186  038b cd0000        	call	_STI_GetMessage
4188  038e b702          	ld	_parametersSet$L+2,a
4189  0390 bf01          	ld	_parametersSet$L+1,x
4190  0392 a60b          	ld	a,#11
4191  0394 cd0000        	call	_parametersSet
4193                     ; 278 		parametersSet(PARAM_MODE_PULL, STI_GetMessage(STI_PARAM_MODE_PULL));
4195  0397 a623          	ld	a,#35
4196  0399 cd0000        	call	_STI_GetMessage
4198  039c b702          	ld	_parametersSet$L+2,a
4199  039e bf01          	ld	_parametersSet$L+1,x
4200  03a0 a60c          	ld	a,#12
4201  03a2 cd0000        	call	_parametersSet
4203                     ; 279 		switch(m_byPageWaitingAnswer)
4205  03a5 c60001        	ld	a,_m_byPageWaitingAnswer
4207                     ; 330 				break;
4208  03a8 a007          	sub	a,#7
4209  03aa 2734          	jreq	L1611
4210  03ac a0c5          	sub	a,#197
4211  03ae 270c          	jreq	L7511
4212  03b0 a003          	sub	a,#3
4213  03b2 2739          	jreq	L3611
4214  03b4 4a            	dec	a
4215  03b5 274e          	jreq	L5611
4216  03b7 4a            	dec	a
4217  03b8 2763          	jreq	L7611
4218  03ba 206f          	jra	L3121
4219  03bc               L7511:
4220                     ; 281 			case PAGE_EXECUTE_F4:
4220                     ; 282 				if (!_btst(woAnswer, STI_ANSWER_ALARM_ERR_PHASE_AUTO) && 
4220                     ; 283 				    (!_btst(woAnswer, STI_ANSWER_ALARM_ERR_NO_PRINT)) &&
4220                     ; 284 					(!_btst(woAnswer, STI_ANSWER_ALARM_ERR_DOUBLE_MARK)) 
4220                     ; 285 					)
4222  03bc b6ff          	ld	a,_displayAppManageAnswer$L-1
4223  03be a504          	bcp	a,#4
4224  03c0 2619          	jrne	L5121
4226  03c2 b6fe          	ld	a,_displayAppManageAnswer$L-2
4227  03c4 a510          	bcp	a,#16
4228  03c6 2613          	jrne	L5121
4230  03c8 b6fe          	ld	a,_displayAppManageAnswer$L-2
4231  03ca a580          	bcp	a,#128
4232  03cc 260d          	jrne	L5121
4233                     ; 287 					screenBigStdMessage(SCREEN_STD_MSG_PHASE_OK);
4235  03ce a60d          	ld	a,#13
4236  03d0 cd0000        	call	_screenBigStdMessage
4238                     ; 288 					sleepFix();
4240  03d3 cd0000        	call	_sleepFix
4242                     ; 289 					screenRegister();
4244  03d6 cd0000        	call	_screenRegister
4247  03d9 2050          	jra	L3121
4248  03db               L5121:
4249                     ; 293 					screenAlarm();
4251  03db cd0000        	call	_screenAlarm
4253  03de 204b          	jra	L3121
4254  03e0               L1611:
4255                     ; 296 			case PAGE_PHASE_FAST:
4255                     ; 297 				screenBigStdMessage(SCREEN_STD_MSG_PHASE_OK);
4257  03e0 a60d          	ld	a,#13
4258  03e2 cd0000        	call	_screenBigStdMessage
4260                     ; 298 				sleepFix();
4262  03e5 cd0000        	call	_sleepFix
4264                     ; 299 				screenRegister();
4266  03e8 cd0000        	call	_screenRegister
4268                     ; 300 				break;
4270  03eb 203e          	jra	L3121
4271  03ed               L3611:
4272                     ; 301 			case PAGE_EXECUTE_T1:
4272                     ; 302 				if (!_btst(woAnswer, STI_ANSWER_ALARM_ERR_TEST_SH))
4274  03ed b6ff          	ld	a,_displayAppManageAnswer$L-1
4275  03ef a501          	bcp	a,#1
4276  03f1 260d          	jrne	L1221
4277                     ; 304 					screenBigStdMessage(SCREEN_STD_MSG_TEST_OK);
4279  03f3 a612          	ld	a,#18
4280  03f5 cd0000        	call	_screenBigStdMessage
4282                     ; 305 					sleepFix();
4284  03f8 cd0000        	call	_sleepFix
4286                     ; 306 					screenRegister();
4288  03fb cd0000        	call	_screenRegister
4291  03fe 202b          	jra	L3121
4292  0400               L1221:
4293                     ; 310 					screenAlarm();
4295  0400 cd0000        	call	_screenAlarm
4297  0403 2026          	jra	L3121
4298  0405               L5611:
4299                     ; 313 			case PAGE_EXECUTE_T2:
4299                     ; 314 				if (!_btst(woAnswer, STI_ANSWER_ALARM_ERR_TEST_ENC))
4301  0405 b6ff          	ld	a,_displayAppManageAnswer$L-1
4302  0407 a502          	bcp	a,#2
4303  0409 260d          	jrne	L5221
4304                     ; 316 					screenBigStdMessage(SCREEN_STD_MSG_TEST_OK);
4306  040b a612          	ld	a,#18
4307  040d cd0000        	call	_screenBigStdMessage
4309                     ; 317 					sleepFix();
4311  0410 cd0000        	call	_sleepFix
4313                     ; 318 					screenRegister();
4315  0413 cd0000        	call	_screenRegister
4318  0416 2013          	jra	L3121
4319  0418               L5221:
4320                     ; 322 					screenAlarm();					
4322  0418 cd0000        	call	_screenAlarm
4324  041b 200e          	jra	L3121
4325  041d               L7611:
4326                     ; 325 			case PAGE_EXECUTE_T3:
4326                     ; 326 				screenBigStdMessage(SCREEN_STD_MSG_TEST_OK);
4328  041d a612          	ld	a,#18
4329  041f cd0000        	call	_screenBigStdMessage
4331                     ; 327 				sleepFix();
4333  0422 cd0000        	call	_sleepFix
4335                     ; 328 				screenRegister();
4337  0425 cd0000        	call	_screenRegister
4339                     ; 329 				SNI_ResetData();
4341  0428 cd0000        	call	_SNI_ResetData
4343                     ; 330 				break;
4345  042b               L3121:
4346                     ; 332 		m_byPageWaitingAnswer = PAGE_NONE;
4348  042b 4f            	clr	a
4349  042c c70001        	ld	_m_byPageWaitingAnswer,a
4350                     ; 333 		m_byPageAnswerReceived = false;
4352  042f 4f            	clr	a
4353  0430 c70000        	ld	_m_byPageAnswerReceived,a
4354  0433               L7021:
4355                     ; 335 }
4358  0433 81            	ret
4390                     ; 339 void displayAppManageParameter(void)
4390                     ; 340 {
4391                     	switch	.text
4392  0434               _displayAppManageParameter:
4395                     ; 341 	switch(m_byCode)
4397  0434 c60009        	ld	a,_m_byCode
4399                     ; 387 		default:
4399                     ; 388 		
4399                     ; 389 		
4399                     ; 390 			//screenBigStdMessage(SCREEN_STD_MSG_UNKNOWN_CODE);
4399                     ; 391 			//sleepFix();
4399                     ; 392 			//screenReceivedCode(m_byCode, m_byAdditionalCode, m_woValue);
4399                     ; 393 			//sleepFix();
4399                     ; 394 			//screenUpdateCurrentScreen();
4399                     ; 395 			break;
4400  0437 a080          	sub	a,#128
4401  0439 2733          	jreq	L3321
4402  043b a003          	sub	a,#3
4403  043d 2603          	jrne	L001
4404  043f cc056e        	jp	L1521
4405  0442               L001:
4406  0442 a041          	sub	a,#65
4407  0444 2703          	jreq	L201
4408  0446 cc0572        	jp	L7621
4409  0449               L201:
4410                     ; 343 		case STI_ANSWER:
4410                     ; 344 			if (m_byPageWaitingAnswer != PAGE_NONE)
4412  0449 c60001        	ld	a,_m_byPageWaitingAnswer
4413  044c 4d            	tnz	a
4414  044d 2705          	jreq	L1721
4415                     ; 346 				m_byPageAnswerReceived = true;
4417  044f a601          	ld	a,#1
4418  0451 c70000        	ld	_m_byPageAnswerReceived,a
4419  0454               L1721:
4420                     ; 348 			parametersSet(PARAM_ALARM, (m_woValue & STI_ANSWER_ALARMS));	
4422  0454 c60007        	ld	a,_m_woValue+1
4423  0457 ce0006        	ld	x,_m_woValue
4424  045a a41f          	and	a,#31
4425  045c 88            	push	a
4426  045d 9f            	ld	a,x
4427  045e a4bf          	and	a,#191
4428  0460 97            	ld	x,a
4429  0461 84            	pop	a
4430  0462 b702          	ld	_parametersSet$L+2,a
4431  0464 bf01          	ld	_parametersSet$L+1,x
4432  0466 a607          	ld	a,#7
4433  0468 cd0000        	call	_parametersSet
4435                     ; 349 			break;
4437  046b cc0572        	jp	L7621
4438  046e               L3321:
4439                     ; 350 		case STI_FUNZ_READ_PARAM:
4439                     ; 351 			switch(m_byAdditionalCode)
4441  046e c60008        	ld	a,_m_byAdditionalCode
4443                     ; 380 				default:
4443                     ; 381 					break;
4444  0471 a01a          	sub	a,#26
4445  0473 273a          	jreq	L1421
4446  0475 4a            	dec	a
4447  0476 2603          	jrne	L401
4448  0478 cc04fe        	jp	L3421
4449  047b               L401:
4450  047b 4a            	dec	a
4451  047c 271f          	jreq	L7321
4452  047e a004          	sub	a,#4
4453  0480 2709          	jreq	L5321
4454  0482 4a            	dec	a
4455  0483 2603          	jrne	L601
4456  0485 cc054d        	jp	L5421
4457  0488               L601:
4458  0488 cc0572        	jp	L7621
4459  048b               L5321:
4460                     ; 353 				case STI_PARAM_SPEED:
4460                     ; 354 					parametersSet(PARAM_SPEED, m_woValue);
4462  048b ce0006        	ld	x,_m_woValue
4463  048e bf01          	ld	_parametersSet$L+1,x
4464  0490 c60007        	ld	a,_m_woValue+1
4465  0493 b702          	ld	_parametersSet$L+2,a
4466  0495 a605          	ld	a,#5
4467  0497 cd0000        	call	_parametersSet
4469                     ; 355 					break;
4471  049a cc0572        	jp	L7621
4472  049d               L7321:
4473                     ; 356 				case STI_PARAM_CORRECTIONS:
4473                     ; 357 					parametersSet(PARAM_CORRECTION, m_woValue);
4475  049d ce0006        	ld	x,_m_woValue
4476  04a0 bf01          	ld	_parametersSet$L+1,x
4477  04a2 c60007        	ld	a,_m_woValue+1
4478  04a5 b702          	ld	_parametersSet$L+2,a
4479  04a7 a60d          	ld	a,#13
4480  04a9 cd0000        	call	_parametersSet
4482                     ; 358 					break; 
4484  04ac cc0572        	jp	L7621
4485  04af               L1421:
4486                     ; 359 				case STI_PARAM_ERROR_A:
4486                     ; 360 					parametersSet(PARAM_ERR_LONG, 0x8000 + m_woValue);
4488  04af c60007        	ld	a,_m_woValue+1
4489  04b2 ce0006        	ld	x,_m_woValue
4490  04b5 ab00          	add	a,#0
4491  04b7 88            	push	a
4492  04b8 9f            	ld	a,x
4493  04b9 a980          	adc	a,#128
4494  04bb 97            	ld	x,a
4495  04bc 84            	pop	a
4496  04bd b702          	ld	_parametersSet$L+2,a
4497  04bf bf01          	ld	_parametersSet$L+1,x
4498  04c1 a60e          	ld	a,#14
4499  04c3 cd0000        	call	_parametersSet
4501                     ; 361 					parametersSet(PARAM_ERR_BOUND_LONG, ((m_woValue>=parametersGetValue(PARAM_ALARM_BOUND)&& (parametersGetValue(PARAM_MODE_LONG)==PARAM_MODE_AUTO) && (parametersGetValue(PARAM_ALARM_BOUND) >0)) ));
4503  04c6 a604          	ld	a,#4
4504  04c8 cd0000        	call	_parametersGetValue
4506  04cb 99            	scf
4507  04cc c20007        	sbc	a,_m_woValue+1
4508  04cf 9f            	ld	a,x
4509  04d0 c20006        	sbc	a,_m_woValue
4510  04d3 241c          	jruge	L06
4511  04d5 a60a          	ld	a,#10
4512  04d7 cd0000        	call	_parametersGetValue
4514  04da a1ff          	cp	a,#255
4515  04dc 2602          	jrne	L26
4516  04de a300          	cp	x,#0
4517  04e0               L26:
4518  04e0 260f          	jrne	L06
4519  04e2 a604          	ld	a,#4
4520  04e4 cd0000        	call	_parametersGetValue
4522  04e7 4d            	tnz	a
4523  04e8 2601          	jrne	L46
4524  04ea 5d            	tnz	x
4525  04eb               L46:
4526  04eb 2704          	jreq	L06
4527  04ed a601          	ld	a,#1
4528  04ef 2001          	jra	L66
4529  04f1               L06:
4530  04f1 4f            	clr	a
4531  04f2               L66:
4532  04f2 5f            	clr	x
4533  04f3 b702          	ld	_parametersSet$L+2,a
4534  04f5 bf01          	ld	_parametersSet$L+1,x
4535  04f7 a613          	ld	a,#19
4536  04f9 cd0000        	call	_parametersSet
4538                     ; 362 					break;
4540  04fc 2074          	jra	L7621
4541  04fe               L3421:
4542                     ; 363 				case STI_PARAM_ERROR_R:
4542                     ; 364 					parametersSet(PARAM_ERR_LONG, 0x8000 - m_woValue);
4544  04fe a680          	ld	a,#128
4545  0500 97            	ld	x,a
4546  0501 4f            	clr	a
4547  0502 c00007        	sub	a,_m_woValue+1
4548  0505 88            	push	a
4549  0506 9f            	ld	a,x
4550  0507 c20006        	sbc	a,_m_woValue
4551  050a 97            	ld	x,a
4552  050b 84            	pop	a
4553  050c b702          	ld	_parametersSet$L+2,a
4554  050e bf01          	ld	_parametersSet$L+1,x
4555  0510 a60e          	ld	a,#14
4556  0512 cd0000        	call	_parametersSet
4558                     ; 365 					parametersSet(PARAM_ERR_BOUND_LONG, ((m_woValue>=parametersGetValue(PARAM_ALARM_BOUND)&& (parametersGetValue(PARAM_MODE_LONG)==PARAM_MODE_AUTO) && (parametersGetValue(PARAM_ALARM_BOUND) >0)) ));
4560  0515 a604          	ld	a,#4
4561  0517 cd0000        	call	_parametersGetValue
4563  051a 99            	scf
4564  051b c20007        	sbc	a,_m_woValue+1
4565  051e 9f            	ld	a,x
4566  051f c20006        	sbc	a,_m_woValue
4567  0522 241c          	jruge	L07
4568  0524 a60a          	ld	a,#10
4569  0526 cd0000        	call	_parametersGetValue
4571  0529 a1ff          	cp	a,#255
4572  052b 2602          	jrne	L27
4573  052d a300          	cp	x,#0
4574  052f               L27:
4575  052f 260f          	jrne	L07
4576  0531 a604          	ld	a,#4
4577  0533 cd0000        	call	_parametersGetValue
4579  0536 4d            	tnz	a
4580  0537 2601          	jrne	L47
4581  0539 5d            	tnz	x
4582  053a               L47:
4583  053a 2704          	jreq	L07
4584  053c a601          	ld	a,#1
4585  053e 2001          	jra	L67
4586  0540               L07:
4587  0540 4f            	clr	a
4588  0541               L67:
4589  0541 5f            	clr	x
4590  0542 b702          	ld	_parametersSet$L+2,a
4591  0544 bf01          	ld	_parametersSet$L+1,x
4592  0546 a613          	ld	a,#19
4593  0548 cd0000        	call	_parametersSet
4595                     ; 366 					break;
4597  054b 2025          	jra	L7621
4598  054d               L5421:
4599                     ; 367 				case STI_PARAM_BASE_VALUE_DAC:
4599                     ; 368 					parametersSet(PARAM_BASE_VALUE_DAC, m_woValue);
4601  054d ce0006        	ld	x,_m_woValue
4602  0550 bf01          	ld	_parametersSet$L+1,x
4603  0552 c60007        	ld	a,_m_woValue+1
4604  0555 b702          	ld	_parametersSet$L+2,a
4605  0557 a61b          	ld	a,#27
4606  0559 cd0000        	call	_parametersSet
4608                     ; 369 					_switch(_Pa_Led_D3, _Pin_Led_D3);		
4610  055c b60c          	ld	a,_PEDR
4611  055e a520          	bcp	a,#32
4612  0560 2704          	jreq	L7721
4615  0562 1b0c          	bres	_PEDR,#5
4617  0564 200c          	jra	L7621
4618  0566               L7721:
4621  0566 1a0c          	bset	_PEDR,#5
4622  0568 2008          	jra	L7621
4623  056a               L7421:
4624                     ; 380 				default:
4624                     ; 381 					break;
4626  056a 2006          	jra	L7621
4627  056c               L5721:
4628                     ; 383 			break;
4630  056c 2004          	jra	L7621
4631  056e               L1521:
4632                     ; 384 		case STI_FUNZ_INIT_Z80:
4632                     ; 385 			parametersLoadAll(false);
4634  056e 4f            	clr	a
4635  056f cd0000        	call	_parametersLoadAll
4637                     ; 386 			break;
4639  0572               L3521:
4640                     ; 387 		default:
4640                     ; 388 		
4640                     ; 389 		
4640                     ; 390 			//screenBigStdMessage(SCREEN_STD_MSG_UNKNOWN_CODE);
4640                     ; 391 			//sleepFix();
4640                     ; 392 			//screenReceivedCode(m_byCode, m_byAdditionalCode, m_woValue);
4640                     ; 393 			//sleepFix();
4640                     ; 394 			//screenUpdateCurrentScreen();
4640                     ; 395 			break;
4642  0572               L7621:
4643                     ; 397 }
4646  0572 81            	ret
4673                     ; 401 void displayAppManageCorrection(void)
4673                     ; 402 {
4674                     	switch	.text
4675  0573               _displayAppManageCorrection:
4678                     ; 403 	if (m_byManualShiftActiveLong)
4680  0573 c60004        	ld	a,_m_byManualShiftActiveLong
4681  0576 4d            	tnz	a
4682  0577 2715          	jreq	L3131
4683                     ; 405 		m_byManualShiftActiveLong = false;
4685  0579 4f            	clr	a
4686  057a c70004        	ld	_m_byManualShiftActiveLong,a
4687                     ; 406 		STI_SendMessage(STI_FUNZ_STOP_REFERENCE_MAN, 0x00, 0x0000);
4689  057d 3f02          	clr	_STI_SendMessage$L+2
4690  057f 3f03          	clr	_STI_SendMessage$L+3
4691  0581 4f            	clr	a
4692  0582 ae8c          	ld	x,#140
4693  0584 cd0000        	call	_STI_SendMessage
4695                     ; 407 		m_byNextPage = PAGE_NONE;
4697  0587 4f            	clr	a
4698  0588 c70005        	ld	_m_byNextPage,a
4700  058b cc06e7        	jp	L5131
4701  058e               L3131:
4702                     ; 409 	else if ((m_byNextPage == PAGE_COR_MINUS) && (parametersGetValue(PARAM_MODE_LONG)==PARAM_MODE_MANUAL))
4704  058e c60005        	ld	a,_m_byNextPage
4705  0591 a126          	cp	a,#38
4706  0593 2622          	jrne	L7131
4708  0595 a60a          	ld	a,#10
4709  0597 cd0000        	call	_parametersGetValue
4711  059a 4d            	tnz	a
4712  059b 2601          	jrne	L211
4713  059d 5d            	tnz	x
4714  059e               L211:
4715  059e 2617          	jrne	L7131
4716                     ; 411 		STI_SendMessage(STI_FUNZ_SHIFT_REFERENCE_MAN, STI_DIRECTION_R, 0x0000);
4718  05a0 3f02          	clr	_STI_SendMessage$L+2
4719  05a2 3f03          	clr	_STI_SendMessage$L+3
4720  05a4 a60c          	ld	a,#12
4721  05a6 ae8b          	ld	x,#139
4722  05a8 cd0000        	call	_STI_SendMessage
4724                     ; 412 		m_byManualShiftActiveLong = true;
4726  05ab a601          	ld	a,#1
4727  05ad c70004        	ld	_m_byManualShiftActiveLong,a
4728                     ; 413 		m_byNextPage = PAGE_NONE;
4730  05b0 4f            	clr	a
4731  05b1 c70005        	ld	_m_byNextPage,a
4733  05b4 cc06e7        	jp	L5131
4734  05b7               L7131:
4735                     ; 415 	else if ((m_byNextPage == PAGE_COR_PLUS) && (parametersGetValue(PARAM_MODE_LONG)==PARAM_MODE_MANUAL))
4737  05b7 c60005        	ld	a,_m_byNextPage
4738  05ba a127          	cp	a,#39
4739  05bc 2622          	jrne	L3231
4741  05be a60a          	ld	a,#10
4742  05c0 cd0000        	call	_parametersGetValue
4744  05c3 4d            	tnz	a
4745  05c4 2601          	jrne	L411
4746  05c6 5d            	tnz	x
4747  05c7               L411:
4748  05c7 2617          	jrne	L3231
4749                     ; 417 		STI_SendMessage(STI_FUNZ_SHIFT_REFERENCE_MAN, STI_DIRECTION_A, 0x0000);
4751  05c9 3f02          	clr	_STI_SendMessage$L+2
4752  05cb 3f03          	clr	_STI_SendMessage$L+3
4753  05cd a603          	ld	a,#3
4754  05cf ae8b          	ld	x,#139
4755  05d1 cd0000        	call	_STI_SendMessage
4757                     ; 418 		m_byManualShiftActiveLong = true;
4759  05d4 a601          	ld	a,#1
4760  05d6 c70004        	ld	_m_byManualShiftActiveLong,a
4761                     ; 419 		m_byNextPage = PAGE_NONE;
4763  05d9 4f            	clr	a
4764  05da c70005        	ld	_m_byNextPage,a
4766  05dd cc06e7        	jp	L5131
4767  05e0               L3231:
4768                     ; 421 	else if (parametersGetValue(PARAM_TRANS_ENABLE)==0x0000)
4770  05e0 a630          	ld	a,#48
4771  05e2 cd0000        	call	_parametersGetValue
4773  05e5 4d            	tnz	a
4774  05e6 2601          	jrne	L611
4775  05e8 5d            	tnz	x
4776  05e9               L611:
4777  05e9 2658          	jrne	L7231
4778                     ; 423 		if ((m_byNextPage == PAGE_COR_LEFT) && (parametersGetValue(PARAM_MODE_TRANS)==PARAM_MODE_MANUAL))
4780  05eb c60005        	ld	a,_m_byNextPage
4781  05ee a128          	cp	a,#40
4782  05f0 2622          	jrne	L1331
4784  05f2 a60b          	ld	a,#11
4785  05f4 cd0000        	call	_parametersGetValue
4787  05f7 4d            	tnz	a
4788  05f8 2601          	jrne	L021
4789  05fa 5d            	tnz	x
4790  05fb               L021:
4791  05fb 2617          	jrne	L1331
4792                     ; 425 			STI_SendMessage(STI_FUNZ_SHIFT_REFERENCE_MAN, STI_DIRECTION_O, 0x0000);
4794  05fd 3f02          	clr	_STI_SendMessage$L+2
4795  05ff 3f03          	clr	_STI_SendMessage$L+3
4796  0601 a6c0          	ld	a,#192
4797  0603 ae8b          	ld	x,#139
4798  0605 cd0000        	call	_STI_SendMessage
4800                     ; 426 			m_byManualShiftActiveLong = true;
4802  0608 a601          	ld	a,#1
4803  060a c70004        	ld	_m_byManualShiftActiveLong,a
4804                     ; 427 			m_byNextPage = PAGE_NONE;
4806  060d 4f            	clr	a
4807  060e c70005        	ld	_m_byNextPage,a
4809  0611 cc06e7        	jp	L5131
4810  0614               L1331:
4811                     ; 429 		else if ((m_byNextPage == PAGE_COR_RIGHT) && (parametersGetValue(PARAM_MODE_TRANS)==PARAM_MODE_MANUAL))
4813  0614 c60005        	ld	a,_m_byNextPage
4814  0617 a129          	cp	a,#41
4815  0619 2703          	jreq	L631
4816  061b cc06e7        	jp	L5131
4817  061e               L631:
4819  061e a60b          	ld	a,#11
4820  0620 cd0000        	call	_parametersGetValue
4822  0623 4d            	tnz	a
4823  0624 2601          	jrne	L221
4824  0626 5d            	tnz	x
4825  0627               L221:
4826  0627 2703          	jreq	L041
4827  0629 cc06e7        	jp	L5131
4828  062c               L041:
4829                     ; 431 			STI_SendMessage(STI_FUNZ_SHIFT_REFERENCE_MAN, STI_DIRECTION_T, 0x0000);
4831  062c 3f02          	clr	_STI_SendMessage$L+2
4832  062e 3f03          	clr	_STI_SendMessage$L+3
4833  0630 a630          	ld	a,#48
4834  0632 ae8b          	ld	x,#139
4835  0634 cd0000        	call	_STI_SendMessage
4837                     ; 432 			m_byManualShiftActiveLong = true;
4839  0637 a601          	ld	a,#1
4840  0639 c70004        	ld	_m_byManualShiftActiveLong,a
4841                     ; 433 			m_byNextPage = PAGE_NONE;
4843  063c 4f            	clr	a
4844  063d c70005        	ld	_m_byNextPage,a
4845  0640 cc06e7        	jp	L5131
4846  0643               L7231:
4847                     ; 436 	else if (parametersGetValue(PARAM_PULL_ENABLE)==0x0000)
4849  0643 a631          	ld	a,#49
4850  0645 cd0000        	call	_parametersGetValue
4852  0648 4d            	tnz	a
4853  0649 2601          	jrne	L421
4854  064b 5d            	tnz	x
4855  064c               L421:
4856  064c 2703          	jreq	L241
4857  064e cc06d5        	jp	L1431
4858  0651               L241:
4859                     ; 438 		if ((m_byNextPage == PAGE_COR_LEFT) && (parametersGetValue(PARAM_MODE_PULL)==PARAM_MODE_MANUAL))
4861  0651 c60005        	ld	a,_m_byNextPage
4862  0654 a128          	cp	a,#40
4863  0656 2621          	jrne	L3431
4865  0658 a60c          	ld	a,#12
4866  065a cd0000        	call	_parametersGetValue
4868  065d 4d            	tnz	a
4869  065e 2601          	jrne	L621
4870  0660 5d            	tnz	x
4871  0661               L621:
4872  0661 2616          	jrne	L3431
4873                     ; 440 			STI_SendMessage(STI_FUNZ_SHIFT_REFERENCE_MAN, STI_DIRECTION_O, 0x0000);
4875  0663 3f02          	clr	_STI_SendMessage$L+2
4876  0665 3f03          	clr	_STI_SendMessage$L+3
4877  0667 a6c0          	ld	a,#192
4878  0669 ae8b          	ld	x,#139
4879  066b cd0000        	call	_STI_SendMessage
4881                     ; 441 			m_byManualShiftActiveLong = true;
4883  066e a601          	ld	a,#1
4884  0670 c70004        	ld	_m_byManualShiftActiveLong,a
4885                     ; 442 			m_byNextPage = PAGE_NONE;
4887  0673 4f            	clr	a
4888  0674 c70005        	ld	_m_byNextPage,a
4890  0677 206e          	jra	L5131
4891  0679               L3431:
4892                     ; 444 		else if ((m_byNextPage == PAGE_COR_RIGHT) && (parametersGetValue(PARAM_MODE_PULL)==PARAM_MODE_MANUAL))
4894  0679 c60005        	ld	a,_m_byNextPage
4895  067c a129          	cp	a,#41
4896  067e 2621          	jrne	L7431
4898  0680 a60c          	ld	a,#12
4899  0682 cd0000        	call	_parametersGetValue
4901  0685 4d            	tnz	a
4902  0686 2601          	jrne	L031
4903  0688 5d            	tnz	x
4904  0689               L031:
4905  0689 2616          	jrne	L7431
4906                     ; 446 			STI_SendMessage(STI_FUNZ_SHIFT_REFERENCE_MAN, STI_DIRECTION_T, 0x0000);
4908  068b 3f02          	clr	_STI_SendMessage$L+2
4909  068d 3f03          	clr	_STI_SendMessage$L+3
4910  068f a630          	ld	a,#48
4911  0691 ae8b          	ld	x,#139
4912  0693 cd0000        	call	_STI_SendMessage
4914                     ; 447 			m_byManualShiftActiveLong = true;
4916  0696 a601          	ld	a,#1
4917  0698 c70004        	ld	_m_byManualShiftActiveLong,a
4918                     ; 448 			m_byNextPage = PAGE_NONE;
4920  069b 4f            	clr	a
4921  069c c70005        	ld	_m_byNextPage,a
4923  069f 2046          	jra	L5131
4924  06a1               L7431:
4925                     ; 450 		else if ((m_byNextPage == PAGE_COR_LEFT) && (parametersGetValue(PARAM_MODE_PULL)==PARAM_MODE_AUTO))
4927  06a1 c60005        	ld	a,_m_byNextPage
4928  06a4 a128          	cp	a,#40
4929  06a6 2613          	jrne	L3531
4931  06a8 a60c          	ld	a,#12
4932  06aa cd0000        	call	_parametersGetValue
4934  06ad a1ff          	cp	a,#255
4935  06af 2602          	jrne	L231
4936  06b1 a300          	cp	x,#0
4937  06b3               L231:
4938  06b3 2606          	jrne	L3531
4939                     ; 452 			m_byNextPage = PAGE_NONE;
4941  06b5 4f            	clr	a
4942  06b6 c70005        	ld	_m_byNextPage,a
4944  06b9 202c          	jra	L5131
4945  06bb               L3531:
4946                     ; 454 		else if ((m_byNextPage == PAGE_COR_RIGHT) && (parametersGetValue(PARAM_MODE_PULL)==PARAM_MODE_AUTO))
4948  06bb c60005        	ld	a,_m_byNextPage
4949  06be a129          	cp	a,#41
4950  06c0 2625          	jrne	L5131
4952  06c2 a60c          	ld	a,#12
4953  06c4 cd0000        	call	_parametersGetValue
4955  06c7 a1ff          	cp	a,#255
4956  06c9 2602          	jrne	L431
4957  06cb a300          	cp	x,#0
4958  06cd               L431:
4959  06cd 2618          	jrne	L5131
4960                     ; 456 			m_byNextPage = PAGE_NONE;
4962  06cf 4f            	clr	a
4963  06d0 c70005        	ld	_m_byNextPage,a
4964  06d3 2012          	jra	L5131
4965  06d5               L1431:
4966                     ; 461 		if ((m_byNextPage == PAGE_COR_LEFT) || (m_byNextPage == PAGE_COR_RIGHT))
4968  06d5 c60005        	ld	a,_m_byNextPage
4969  06d8 a128          	cp	a,#40
4970  06da 2707          	jreq	L5631
4972  06dc c60005        	ld	a,_m_byNextPage
4973  06df a129          	cp	a,#41
4974  06e1 2604          	jrne	L5131
4975  06e3               L5631:
4976                     ; 463 			m_byNextPage = PAGE_NONE;
4978  06e3 4f            	clr	a
4979  06e4 c70005        	ld	_m_byNextPage,a
4980  06e7               L5131:
4981                     ; 466 }
4984  06e7 81            	ret
5070                     	switch	.const
5071  0751               L462:
5072  0751 0ec4          	dc.w	L3441
5073  0753 142d          	dc.w	L7361
5074  0755 0f48          	dc.w	L5441
5075  0757 1008          	dc.w	L7441
5076  0759 10c7          	dc.w	L1541
5077  075b 142d          	dc.w	L7361
5078  075d 1199          	dc.w	L3541
5079  075f 11e6          	dc.w	L5541
5080  0761 125c          	dc.w	L7541
5081  0763 12bd          	dc.w	L1641
5082  0765 12c5          	dc.w	L3641
5083  0767 12cd          	dc.w	L5641
5084  0769 0a9f          	dc.w	L5141
5085  076b 0a2e          	dc.w	L3141
5086  076d 0b7c          	dc.w	L1241
5087  076f 0b10          	dc.w	L7141
5088  0771 0dcf          	dc.w	L7341
5089  0773 0dae          	dc.w	L5341
5090  0775 0bf8          	dc.w	L3241
5091  0777 095f          	dc.w	L7631
5092  0779 09c6          	dc.w	L1041
5093  077b 142d          	dc.w	L7361
5094  077d 142d          	dc.w	L7361
5095  077f 142d          	dc.w	L7361
5096  0781 142d          	dc.w	L7361
5097  0783 142d          	dc.w	L7361
5098  0785 142d          	dc.w	L7361
5099  0787 142d          	dc.w	L7361
5100  0789 142d          	dc.w	L7361
5101  078b 142d          	dc.w	L7361
5102  078d 142d          	dc.w	L7361
5103  078f 12d5          	dc.w	L7641
5104  0791 1314          	dc.w	L1741
5105  0793 1353          	dc.w	L3741
5106  0795 1385          	dc.w	L5741
5107  0797 13b8          	dc.w	L7741
5108  0799 13e9          	dc.w	L1051
5109                     ; 470 void displayAppNavigate(void)
5109                     ; 471 {
5110                     	switch	.text
5112                     	xref.b	_displayAppNavigate$L
5113  06e8               _displayAppNavigate:
5116                     ; 476 	byKey = displayGetKeyPressed();
5118  06e8 cd0000        	call	_displayGetKeyPressed
5120  06eb b7fb          	ld	_displayAppNavigate$L-5,a
5121                     ; 477 	displayKeyPressedReset();	
5123  06ed cd0000        	call	_displayKeyPressedReset
5125                     ; 478 	if (byKey != KEY_NULL)
5127  06f0 b6fb          	ld	a,_displayAppNavigate$L-5
5128  06f2 a1ff          	cp	a,#255
5129  06f4 2727          	jreq	L7351
5130                     ; 480 		m_byNextPage =  mc_displayPages[parametersGetValue(PARAM_PAGE)][byKey+3];
5132  06f6 a608          	ld	a,#8
5133  06f8 cd0000        	call	_parametersGetValue
5135  06fb 3f00          	clr	c_y
5136  06fd 90ae24        	ld	y,#36
5137  0700 cd0000        	call	c_imul
5139  0703 bbfb          	add	a,_displayAppNavigate$L-5
5140  0705 2401          	jrnc	L641
5141  0707 5c            	inc	x
5142  0708               L641:
5143  0708 ab04          	add	a,#low(L147_mc_displayPages+3)
5144  070a 88            	push	a
5145  070b 9f            	ld	a,x
5146  070c a904          	adc	a,#high(L147_mc_displayPages+3)
5147  070e 97            	ld	x,a
5148  070f 84            	pop	a
5149  0710 bf00          	ld	c_x,x
5150  0712 97            	ld	x,a
5151  0713 bf01          	ld	c_x+1,x
5152  0715 92c600        	ld	a,[c_x.w]
5153  0718 c70005        	ld	_m_byNextPage,a
5155  071b 200d          	jra	L1451
5156  071d               L7351:
5157                     ; 484 		m_byNextPage = SNI_ReceivedCmd();
5159  071d cd0000        	call	_SNI_ReceivedCmd
5161  0720 c70005        	ld	_m_byNextPage,a
5162                     ; 485 		if (m_byNextPage == PAGE_NONE)
5164  0723 c60005        	ld	a,_m_byNextPage
5165  0726 4d            	tnz	a
5166  0727 2601          	jrne	L1451
5167                     ; 487 			return;
5170  0729 81            	ret
5171  072a               L1451:
5172                     ; 493 	if(m_byNextPage != parametersGetValue(PARAM_PAGE))
5174  072a a608          	ld	a,#8
5175  072c cd0000        	call	_parametersGetValue
5177  072f 90ce0005      	ld	y,_m_byNextPage
5178  0733 3f00          	clr	c_y
5179  0735 b300          	cp	x,c_y
5180  0737 2605          	jrne	L051
5181  0739 90bf01        	ld	c_y+1,y
5182  073c b101          	cp	a,c_y+1
5183  073e               L051:
5184  073e 2713          	jreq	L5451
5185                     ; 495 		sleep(500);
5187  0740 a6f4          	ld	a,#244
5188  0742 b703          	ld	_sleep$L+3,a
5189  0744 a601          	ld	a,#1
5190  0746 b702          	ld	_sleep$L+2,a
5191  0748 a600          	ld	a,#0
5192  074a b701          	ld	_sleep$L+1,a
5193  074c a600          	ld	a,#0
5194  074e b700          	ld	_sleep$L,a
5195  0750 cd0000        	call	_sleep
5197  0753               L5451:
5198                     ; 498 	displayAppManageCorrection();
5200  0753 cd0573        	call	_displayAppManageCorrection
5202                     ; 500 	if ((parametersGetValue(PARAM_COLD_SEAL_ENABLE) 	!= 0x00) && (PAGE_F6 == m_byNextPage))	
5204  0756 a632          	ld	a,#50
5205  0758 cd0000        	call	_parametersGetValue
5207  075b 4d            	tnz	a
5208  075c 2601          	jrne	L251
5209  075e 5d            	tnz	x
5210  075f               L251:
5211  075f 270f          	jreq	L7451
5213  0761 c60005        	ld	a,_m_byNextPage
5214  0764 a10c          	cp	a,#12
5215  0766 2608          	jrne	L7451
5216                     ; 501 		{m_byNextPage = PAGE_F1;}
5218  0768 a608          	ld	a,#8
5219  076a c70005        	ld	_m_byNextPage,a
5221  076d cc08a4        	jp	L1551
5222  0770               L7451:
5223                     ; 502 	else if (((parametersGetValue(PARAM_TWIN_APPLICATION_01) == 0x00) || (parametersGetValue(PARAM_TWIN_APPLICATION_02) == 0x00)) && (PAGE_MENU_04 == m_byNextPage)) 
5225  0770 a634          	ld	a,#52
5226  0772 cd0000        	call	_parametersGetValue
5228  0775 4d            	tnz	a
5229  0776 2601          	jrne	L451
5230  0778 5d            	tnz	x
5231  0779               L451:
5232  0779 270b          	jreq	L5551
5234  077b a635          	ld	a,#53
5235  077d cd0000        	call	_parametersGetValue
5237  0780 4d            	tnz	a
5238  0781 2601          	jrne	L651
5239  0783 5d            	tnz	x
5240  0784               L651:
5241  0784 260f          	jrne	L3551
5242  0786               L5551:
5244  0786 c60005        	ld	a,_m_byNextPage
5245  0789 a11d          	cp	a,#29
5246  078b 2608          	jrne	L3551
5247                     ; 503 		{m_byNextPage = PAGE_MENU_01;}
5249  078d a61a          	ld	a,#26
5250  078f c70005        	ld	_m_byNextPage,a
5252  0792 cc08a4        	jp	L1551
5253  0795               L3551:
5254                     ; 504 	else if (((parametersGetValue(PARAM_TWIN_APPLICATION_01) == 0x00) || (parametersGetValue(PARAM_TWIN_APPLICATION_02) == 0x00)) && (PAGE_TWIN_APP_01 == m_byNextPage)) 
5256  0795 a634          	ld	a,#52
5257  0797 cd0000        	call	_parametersGetValue
5259  079a 4d            	tnz	a
5260  079b 2601          	jrne	L061
5261  079d 5d            	tnz	x
5262  079e               L061:
5263  079e 270b          	jreq	L3651
5265  07a0 a635          	ld	a,#53
5266  07a2 cd0000        	call	_parametersGetValue
5268  07a5 4d            	tnz	a
5269  07a6 2601          	jrne	L261
5270  07a8 5d            	tnz	x
5271  07a9               L261:
5272  07a9 260f          	jrne	L1651
5273  07ab               L3651:
5275  07ab c60005        	ld	a,_m_byNextPage
5276  07ae a12e          	cp	a,#46
5277  07b0 2608          	jrne	L1651
5278                     ; 506 		{m_byNextPage = PAGE_MENU_01;}
5280  07b2 a61a          	ld	a,#26
5281  07b4 c70005        	ld	_m_byNextPage,a
5283  07b7 cc08a4        	jp	L1551
5284  07ba               L1651:
5285                     ; 507 	else if (((parametersGetValue(PARAM_TWIN_APPLICATION_01) == 0x00) || (parametersGetValue(PARAM_TWIN_APPLICATION_02) == 0x00)) && (PAGE_TWIN_APP_02 == m_byNextPage)) 
5287  07ba a634          	ld	a,#52
5288  07bc cd0000        	call	_parametersGetValue
5290  07bf 4d            	tnz	a
5291  07c0 2601          	jrne	L461
5292  07c2 5d            	tnz	x
5293  07c3               L461:
5294  07c3 270b          	jreq	L1751
5296  07c5 a635          	ld	a,#53
5297  07c7 cd0000        	call	_parametersGetValue
5299  07ca 4d            	tnz	a
5300  07cb 2601          	jrne	L661
5301  07cd 5d            	tnz	x
5302  07ce               L661:
5303  07ce 260f          	jrne	L7651
5304  07d0               L1751:
5306  07d0 c60005        	ld	a,_m_byNextPage
5307  07d3 a12f          	cp	a,#47
5308  07d5 2608          	jrne	L7651
5309                     ; 509 		{m_byNextPage = PAGE_MENU_01;}
5311  07d7 a61a          	ld	a,#26
5312  07d9 c70005        	ld	_m_byNextPage,a
5314  07dc cc08a4        	jp	L1551
5315  07df               L7651:
5316                     ; 510 	else if ((parametersGetValue(PARAM_TWIN_ENCODER_ENABLE) != 0x00) && (PAGE_MENU_05  == m_byNextPage))  
5318  07df a636          	ld	a,#54
5319  07e1 cd0000        	call	_parametersGetValue
5321  07e4 4d            	tnz	a
5322  07e5 2601          	jrne	L071
5323  07e7 5d            	tnz	x
5324  07e8               L071:
5325  07e8 270f          	jreq	L5751
5327  07ea c60005        	ld	a,_m_byNextPage
5328  07ed a11e          	cp	a,#30
5329  07ef 2608          	jrne	L5751
5330                     ; 511 		{m_byNextPage = PAGE_MENU_01;}
5332  07f1 a61a          	ld	a,#26
5333  07f3 c70005        	ld	_m_byNextPage,a
5335  07f6 cc08a4        	jp	L1551
5336  07f9               L5751:
5337                     ; 512 	else if ((parametersGetValue(PARAM_TWIN_ENCODER_ENABLE) != 0x00) && (PAGE_ENCODER_01 == m_byNextPage)) 
5339  07f9 a636          	ld	a,#54
5340  07fb cd0000        	call	_parametersGetValue
5342  07fe 4d            	tnz	a
5343  07ff 2601          	jrne	L271
5344  0801 5d            	tnz	x
5345  0802               L271:
5346  0802 270f          	jreq	L1061
5348  0804 c60005        	ld	a,_m_byNextPage
5349  0807 a130          	cp	a,#48
5350  0809 2608          	jrne	L1061
5351                     ; 513 		{m_byNextPage = PAGE_MENU_01;}
5353  080b a61a          	ld	a,#26
5354  080d c70005        	ld	_m_byNextPage,a
5356  0810 cc08a4        	jp	L1551
5357  0813               L1061:
5358                     ; 514 	else if ((parametersGetValue(PARAM_TWIN_ENCODER_ENABLE) != 0x00) && (PAGE_ENCODER_02 == m_byNextPage)) 
5360  0813 a636          	ld	a,#54
5361  0815 cd0000        	call	_parametersGetValue
5363  0818 4d            	tnz	a
5364  0819 2601          	jrne	L471
5365  081b 5d            	tnz	x
5366  081c               L471:
5367  081c 270e          	jreq	L5061
5369  081e c60005        	ld	a,_m_byNextPage
5370  0821 a131          	cp	a,#49
5371  0823 2607          	jrne	L5061
5372                     ; 515 		{m_byNextPage = PAGE_MENU_01;}
5374  0825 a61a          	ld	a,#26
5375  0827 c70005        	ld	_m_byNextPage,a
5377  082a 2078          	jra	L1551
5378  082c               L5061:
5379                     ; 516 	else if ((parametersGetValue(PARAM_SH_PN_ENABLE) 		!= 0x00) && (PAGE_MENU_06  == m_byNextPage))  
5381  082c a63a          	ld	a,#58
5382  082e cd0000        	call	_parametersGetValue
5384  0831 4d            	tnz	a
5385  0832 2601          	jrne	L671
5386  0834 5d            	tnz	x
5387  0835               L671:
5388  0835 270e          	jreq	L1161
5390  0837 c60005        	ld	a,_m_byNextPage
5391  083a a11f          	cp	a,#31
5392  083c 2607          	jrne	L1161
5393                     ; 517 		{m_byNextPage = PAGE_MENU_01;}
5395  083e a61a          	ld	a,#26
5396  0840 c70005        	ld	_m_byNextPage,a
5398  0843 205f          	jra	L1551
5399  0845               L1161:
5400                     ; 518 	else if ((parametersGetValue(PARAM_SH_PN_ENABLE) 		!= 0x00) && (PAGE_SH_PN_01 == m_byNextPage))  
5402  0845 a63a          	ld	a,#58
5403  0847 cd0000        	call	_parametersGetValue
5405  084a 4d            	tnz	a
5406  084b 2601          	jrne	L002
5407  084d 5d            	tnz	x
5408  084e               L002:
5409  084e 270e          	jreq	L5161
5411  0850 c60005        	ld	a,_m_byNextPage
5412  0853 a132          	cp	a,#50
5413  0855 2607          	jrne	L5161
5414                     ; 519 		{m_byNextPage = PAGE_MENU_01;}
5416  0857 a61a          	ld	a,#26
5417  0859 c70005        	ld	_m_byNextPage,a
5419  085c 2046          	jra	L1551
5420  085e               L5161:
5421                     ; 520 	else if ((parametersGetValue(PARAM_SH_PN_ENABLE) 		!= 0x00) && (PAGE_SH_PN_02 == m_byNextPage))  
5423  085e a63a          	ld	a,#58
5424  0860 cd0000        	call	_parametersGetValue
5426  0863 4d            	tnz	a
5427  0864 2601          	jrne	L202
5428  0866 5d            	tnz	x
5429  0867               L202:
5430  0867 270e          	jreq	L1261
5432  0869 c60005        	ld	a,_m_byNextPage
5433  086c a133          	cp	a,#51
5434  086e 2607          	jrne	L1261
5435                     ; 521 		{m_byNextPage = PAGE_MENU_01;}
5437  0870 a61a          	ld	a,#26
5438  0872 c70005        	ld	_m_byNextPage,a
5440  0875 202d          	jra	L1551
5441  0877               L1261:
5442                     ; 522 	else if ((parametersGetValue(PARAM_LONG_DAC_ENABLE) != 0x00)     && 
5442                     ; 523 		 (parametersGetValue(PARAM_TRANS_DAC_ENABLE) != 0x00)    && 
5442                     ; 524 		 (parametersGetValue(PARAM_PULL_DAC_ENABLE) != 0x00)     && 
5442                     ; 525 		 (PAGE_P5 == m_byNextPage))  
5444  0877 a63b          	ld	a,#59
5445  0879 cd0000        	call	_parametersGetValue
5447  087c 4d            	tnz	a
5448  087d 2601          	jrne	L402
5449  087f 5d            	tnz	x
5450  0880               L402:
5451  0880 2722          	jreq	L1551
5453  0882 a63c          	ld	a,#60
5454  0884 cd0000        	call	_parametersGetValue
5456  0887 4d            	tnz	a
5457  0888 2601          	jrne	L602
5458  088a 5d            	tnz	x
5459  088b               L602:
5460  088b 2717          	jreq	L1551
5462  088d a63d          	ld	a,#61
5463  088f cd0000        	call	_parametersGetValue
5465  0892 4d            	tnz	a
5466  0893 2601          	jrne	L012
5467  0895 5d            	tnz	x
5468  0896               L012:
5469  0896 270c          	jreq	L1551
5471  0898 c60005        	ld	a,_m_byNextPage
5472  089b a111          	cp	a,#17
5473  089d 2605          	jrne	L1551
5474                     ; 526 		{m_byNextPage = PAGE_P1;}
5476  089f a60d          	ld	a,#13
5477  08a1 c70005        	ld	_m_byNextPage,a
5478  08a4               L1551:
5479                     ; 529 	if ((mc_displayPages[m_byNextPage][0] == VALUE) || (m_byNextPage == PAGE_SAVE)) 
5481  08a4 c60005        	ld	a,_m_byNextPage
5482  08a7 ae24          	ld	x,#36
5483  08a9 42            	mul	x,a
5484  08aa ab01          	add	a,#low(L147_mc_displayPages)
5485  08ac 88            	push	a
5486  08ad 9f            	ld	a,x
5487  08ae a901          	adc	a,#high(L147_mc_displayPages)
5488  08b0 97            	ld	x,a
5489  08b1 84            	pop	a
5490  08b2 bf00          	ld	c_x,x
5491  08b4 97            	ld	x,a
5492  08b5 bf01          	ld	c_x+1,x
5493  08b7 92c600        	ld	a,[c_x.w]
5494  08ba a10a          	cp	a,#10
5495  08bc 2707          	jreq	L1361
5497  08be c60005        	ld	a,_m_byNextPage
5498  08c1 a1e6          	cp	a,#230
5499  08c3 260f          	jrne	L7261
5500  08c5               L1361:
5501                     ; 531 		screenValue(/*Page*/&m_byNextPage, &byKey);
5503  08c5 aefb          	ld	x,#high(_displayAppNavigate$L-5)
5504  08c7 bf02          	ld	_screenValue$L+2,x
5505  08c9 a6fb          	ld	a,#low(_displayAppNavigate$L-5)
5506  08cb b703          	ld	_screenValue$L+3,a
5507  08cd a605          	ld	a,#low(_m_byNextPage)
5508  08cf ae05          	ld	x,#high(_m_byNextPage)
5509  08d1 cd0000        	call	_screenValue
5511  08d4               L7261:
5512                     ; 534 	if (mc_displayPages[m_byNextPage][0] == MENU6) //Type = Menu
5514  08d4 c60005        	ld	a,_m_byNextPage
5515  08d7 ae24          	ld	x,#36
5516  08d9 42            	mul	x,a
5517  08da ab01          	add	a,#low(L147_mc_displayPages)
5518  08dc 88            	push	a
5519  08dd 9f            	ld	a,x
5520  08de a901          	adc	a,#high(L147_mc_displayPages)
5521  08e0 97            	ld	x,a
5522  08e1 84            	pop	a
5523  08e2 bf00          	ld	c_x,x
5524  08e4 97            	ld	x,a
5525  08e5 bf01          	ld	c_x+1,x
5526  08e7 92c600        	ld	a,[c_x.w]
5527  08ea a106          	cp	a,#6
5528  08ec 262c          	jrne	L3361
5529                     ; 536 		screen6Menus(/*Page*/&m_byNextPage, /*Group*/&(mc_displayPages[m_byNextPage][1]), /*Selection*/&(mc_displayPages[m_byNextPage][2]));
5531  08ee c60005        	ld	a,_m_byNextPage
5532  08f1 ae24          	ld	x,#36
5533  08f3 42            	mul	x,a
5534  08f4 ab03          	add	a,#low(L147_mc_displayPages+2)
5535  08f6 88            	push	a
5536  08f7 9f            	ld	a,x
5537  08f8 a903          	adc	a,#high(L147_mc_displayPages+2)
5538  08fa 97            	ld	x,a
5539  08fb 84            	pop	a
5540  08fc b705          	ld	_screen6Menus$L+5,a
5541  08fe bf04          	ld	_screen6Menus$L+4,x
5542  0900 c60005        	ld	a,_m_byNextPage
5543  0903 ae24          	ld	x,#36
5544  0905 42            	mul	x,a
5545  0906 ab02          	add	a,#low(L147_mc_displayPages+1)
5546  0908 88            	push	a
5547  0909 9f            	ld	a,x
5548  090a a902          	adc	a,#high(L147_mc_displayPages+1)
5549  090c 97            	ld	x,a
5550  090d 84            	pop	a
5551  090e b703          	ld	_screen6Menus$L+3,a
5552  0910 bf02          	ld	_screen6Menus$L+2,x
5553  0912 a605          	ld	a,#low(_m_byNextPage)
5554  0914 ae05          	ld	x,#high(_m_byNextPage)
5555  0916 cd0000        	call	_screen6Menus
5557                     ; 537 		return;
5560  0919 81            	ret
5561  091a               L3361:
5562                     ; 540 	switch (m_byNextPage)
5564  091a c60005        	ld	a,_m_byNextPage
5566                     ; 1023 		default:
5566                     ; 1024 			break;
5567  091d a0c9          	sub	a,#201
5568  091f a125          	cp	a,#37
5569  0921 240b          	jruge	L262
5570  0923 48            	sll	a
5571  0924 97            	ld	x,a
5572  0925 d60752        	ld	a,(L462+1,x)
5573  0928 88            	push	a
5574  0929 d60751        	ld	a,(L462,x)
5575  092c 88            	push	a
5576  092d 81            	ret
5577  092e               L262:
5578  092e a03b          	sub	a,#59
5579  0930 2603          	jrne	L662
5580  0932 cc0c64        	jp	L5241
5581  0935               L662:
5582  0935 4a            	dec	a
5583  0936 2603          	jrne	L072
5584  0938 cc0c6e        	jp	L7241
5585  093b               L072:
5586  093b 4a            	dec	a
5587  093c 2603          	jrne	L272
5588  093e cc0cb3        	jp	L1341
5589  0941               L272:
5590  0941 4a            	dec	a
5591  0942 2603          	jrne	L472
5592  0944 cc0d15        	jp	L3341
5593  0947               L472:
5594  0947 a012          	sub	a,#18
5595  0949 2603          	jrne	L672
5596  094b cc0def        	jp	L1441
5597  094e               L672:
5598  094e a00a          	sub	a,#10
5599  0950 2603          	jrne	L003
5600  0952 cc141c        	jp	L3051
5601  0955               L003:
5602  0955 a002          	sub	a,#2
5603  0957 2603          	jrne	L203
5604  0959 cc1428        	jp	L5051
5605  095c               L203:
5606  095c cc142d        	jp	L7361
5607  095f               L7631:
5608                     ; 542 		case PAGE_GAIN_UP:
5608                     ; 543 			parametersSet(PARAM_SH_GAIN, STI_GetMessage(STI_PARAM_SH_GAIN));
5610  095f a619          	ld	a,#25
5611  0961 cd0000        	call	_STI_GetMessage
5613  0964 b702          	ld	_parametersSet$L+2,a
5614  0966 bf01          	ld	_parametersSet$L+1,x
5615  0968 a606          	ld	a,#6
5616  096a cd0000        	call	_parametersSet
5618                     ; 544 			woValue = parametersGetValue(PARAM_SH_GAIN);
5620  096d a606          	ld	a,#6
5621  096f cd0000        	call	_parametersGetValue
5623  0972 b7ff          	ld	_displayAppNavigate$L-1,a
5624  0974 bffe          	ld	_displayAppNavigate$L-2,x
5625                     ; 545 			switch(woValue)
5627  0976 b6ff          	ld	a,_displayAppNavigate$L-1
5628  0978 befe          	ld	x,_displayAppNavigate$L-2
5630                     ; 560 					break;
5631  097a 5d            	tnz	x
5632  097b 2703          	jreq	L403
5633  097d cc142d        	jp	L7361
5634  0980               L403:
5635  0980 a020          	sub	a,#32
5636  0982 270e          	jreq	L3731
5637  0984 a020          	sub	a,#32
5638  0986 2719          	jreq	L5731
5639  0988 a020          	sub	a,#32
5640  098a 2726          	jreq	L7731
5641  098c cc142d        	jp	L7361
5642  098f               L1731:
5643                     ; 547 				case 0x0000:
5643                     ; 548 					break;
5645  098f cc142d        	jp	L7361
5646  0992               L3731:
5647                     ; 549 				case 0x0020:
5647                     ; 550 					parametersSet(PARAM_SH_GAIN, 0x0000);
5649  0992 3f01          	clr	_parametersSet$L+1
5650  0994 3f02          	clr	_parametersSet$L+2
5651  0996 a606          	ld	a,#6
5652  0998 cd0000        	call	_parametersSet
5654                     ; 551 					screenUpdateCurrentScreen();
5656  099b cd0000        	call	_screenUpdateCurrentScreen
5658                     ; 552 					break;
5660  099e cc142d        	jp	L7361
5661  09a1               L5731:
5662                     ; 553 				case 0x0040:
5662                     ; 554 					parametersSet(PARAM_SH_GAIN, 0x0020);
5664  09a1 a620          	ld	a,#32
5665  09a3 b702          	ld	_parametersSet$L+2,a
5666  09a5 3f01          	clr	_parametersSet$L+1
5667  09a7 a606          	ld	a,#6
5668  09a9 cd0000        	call	_parametersSet
5670                     ; 555 					screenUpdateCurrentScreen();
5672  09ac cd0000        	call	_screenUpdateCurrentScreen
5674                     ; 556 					break;
5676  09af cc142d        	jp	L7361
5677  09b2               L7731:
5678                     ; 557 				case 0x0060:
5678                     ; 558 					parametersSet(PARAM_SH_GAIN, 0x0040);
5680  09b2 a640          	ld	a,#64
5681  09b4 b702          	ld	_parametersSet$L+2,a
5682  09b6 3f01          	clr	_parametersSet$L+1
5683  09b8 a606          	ld	a,#6
5684  09ba cd0000        	call	_parametersSet
5686                     ; 559 					screenUpdateCurrentScreen();
5688  09bd cd0000        	call	_screenUpdateCurrentScreen
5690                     ; 560 					break;
5692  09c0 cc142d        	jp	L7361
5693  09c3               L3461:
5694                     ; 562 			break;
5696  09c3 cc142d        	jp	L7361
5697  09c6               L1041:
5698                     ; 563 		case PAGE_GAIN_DOWN:
5698                     ; 564 			parametersSet(PARAM_SH_GAIN, STI_GetMessage(STI_PARAM_SH_GAIN));
5700  09c6 a619          	ld	a,#25
5701  09c8 cd0000        	call	_STI_GetMessage
5703  09cb b702          	ld	_parametersSet$L+2,a
5704  09cd bf01          	ld	_parametersSet$L+1,x
5705  09cf a606          	ld	a,#6
5706  09d1 cd0000        	call	_parametersSet
5708                     ; 565 			woValue = parametersGetValue(PARAM_SH_GAIN);
5710  09d4 a606          	ld	a,#6
5711  09d6 cd0000        	call	_parametersGetValue
5713  09d9 b7ff          	ld	_displayAppNavigate$L-1,a
5714  09db bffe          	ld	_displayAppNavigate$L-2,x
5715                     ; 566 			switch(woValue)
5717  09dd b6ff          	ld	a,_displayAppNavigate$L-1
5718  09df befe          	ld	x,_displayAppNavigate$L-2
5720                     ; 580 				case 0x0060:
5720                     ; 581 					break;
5721  09e1 5d            	tnz	x
5722  09e2 2703          	jreq	L603
5723  09e4 cc142d        	jp	L7361
5724  09e7               L603:
5725  09e7 4d            	tnz	a
5726  09e8 270b          	jreq	L3041
5727  09ea a020          	sub	a,#32
5728  09ec 2718          	jreq	L5041
5729  09ee a020          	sub	a,#32
5730  09f0 2725          	jreq	L7041
5731  09f2 cc142d        	jp	L7361
5732  09f5               L3041:
5733                     ; 568 				case 0x0000:
5733                     ; 569 					parametersSet(PARAM_SH_GAIN, 0x0020);
5735  09f5 a620          	ld	a,#32
5736  09f7 b702          	ld	_parametersSet$L+2,a
5737  09f9 3f01          	clr	_parametersSet$L+1
5738  09fb a606          	ld	a,#6
5739  09fd cd0000        	call	_parametersSet
5741                     ; 570 					screenUpdateCurrentScreen();
5743  0a00 cd0000        	call	_screenUpdateCurrentScreen
5745                     ; 571 					break;
5747  0a03 cc142d        	jp	L7361
5748  0a06               L5041:
5749                     ; 572 				case 0x0020:
5749                     ; 573 					parametersSet(PARAM_SH_GAIN, 0x0040);
5751  0a06 a640          	ld	a,#64
5752  0a08 b702          	ld	_parametersSet$L+2,a
5753  0a0a 3f01          	clr	_parametersSet$L+1
5754  0a0c a606          	ld	a,#6
5755  0a0e cd0000        	call	_parametersSet
5757                     ; 574 					screenUpdateCurrentScreen();
5759  0a11 cd0000        	call	_screenUpdateCurrentScreen
5761                     ; 575 					break;
5763  0a14 cc142d        	jp	L7361
5764  0a17               L7041:
5765                     ; 576 				case 0x0040:
5765                     ; 577 					parametersSet(PARAM_SH_GAIN, 0x0060);
5767  0a17 a660          	ld	a,#96
5768  0a19 b702          	ld	_parametersSet$L+2,a
5769  0a1b 3f01          	clr	_parametersSet$L+1
5770  0a1d a606          	ld	a,#6
5771  0a1f cd0000        	call	_parametersSet
5773                     ; 578 					screenUpdateCurrentScreen();
5775  0a22 cd0000        	call	_screenUpdateCurrentScreen
5777                     ; 579 					break;
5779  0a25 cc142d        	jp	L7361
5780  0a28               L1141:
5781                     ; 580 				case 0x0060:
5781                     ; 581 					break;
5783  0a28 cc142d        	jp	L7361
5784  0a2b               L7461:
5785                     ; 583 			break;
5787  0a2b cc142d        	jp	L7361
5788  0a2e               L3141:
5789                     ; 584 		case PAGE_ZOOM_IN:
5789                     ; 585 			if (parametersGetValue(PARAM_OSCIL_ZOOM)>1)
5791  0a2e a610          	ld	a,#16
5792  0a30 cd0000        	call	_parametersGetValue
5794  0a33 a002          	sub	a,#2
5795  0a35 9f            	ld	a,x
5796  0a36 a200          	sbc	a,#0
5797  0a38 2403          	jruge	L013
5798  0a3a cc142d        	jp	L7361
5799  0a3d               L013:
5800                     ; 587 				woValue = parametersGetValue(PARAM_OSCIL_ZOOM)/2;
5802  0a3d a610          	ld	a,#16
5803  0a3f cd0000        	call	_parametersGetValue
5805  0a42 54            	srl	x
5806  0a43 46            	rrc	a
5807  0a44 b7ff          	ld	_displayAppNavigate$L-1,a
5808  0a46 bffe          	ld	_displayAppNavigate$L-2,x
5809                     ; 588 				parametersSet(PARAM_OSCIL_ZOOM,  woValue);
5811  0a48 befe          	ld	x,_displayAppNavigate$L-2
5812  0a4a bf01          	ld	_parametersSet$L+1,x
5813  0a4c b6ff          	ld	a,_displayAppNavigate$L-1
5814  0a4e b702          	ld	_parametersSet$L+2,a
5815  0a50 a610          	ld	a,#16
5816  0a52 cd0000        	call	_parametersSet
5818                     ; 589 				woValueOffset = 32;
5820  0a55 a620          	ld	a,#32
5821  0a57 b7fd          	ld	_displayAppNavigate$L-3,a
5822  0a59 3ffc          	clr	_displayAppNavigate$L-4
5824  0a5b 2008          	jra	L7561
5825  0a5d               L3561:
5826                     ; 592 					woValueOffset *= 2; 
5828  0a5d 38fd          	sll	_displayAppNavigate$L-3
5829  0a5f 39fc          	rlc	_displayAppNavigate$L-4
5830                     ; 593 					woValue = woValue>>1;
5832  0a61 34fe          	srl	_displayAppNavigate$L-2
5833  0a63 36ff          	rrc	_displayAppNavigate$L-1
5834  0a65               L7561:
5835                     ; 590 				while(woValue > 0x0000)
5837  0a65 b6ff          	ld	a,_displayAppNavigate$L-1
5838  0a67 bafe          	or	a,_displayAppNavigate$L-2
5839  0a69 26f2          	jrne	L3561
5840                     ; 596 				woValue = (parametersGetValue(PARAM_OSCIL_OFFSET) + woValueOffset)&(ENCODER_PULSES-1)&(ENCODER_PULSES-1);
5842  0a6b a611          	ld	a,#17
5843  0a6d cd0000        	call	_parametersGetValue
5845  0a70 bbfd          	add	a,_displayAppNavigate$L-3
5846  0a72 88            	push	a
5847  0a73 9f            	ld	a,x
5848  0a74 b9fc          	adc	a,_displayAppNavigate$L-4
5849  0a76 97            	ld	x,a
5850  0a77 84            	pop	a
5851  0a78 a4ff          	and	a,#255
5852  0a7a 88            	push	a
5853  0a7b 9f            	ld	a,x
5854  0a7c a403          	and	a,#3
5855  0a7e 97            	ld	x,a
5856  0a7f 84            	pop	a
5857  0a80 a4ff          	and	a,#255
5858  0a82 88            	push	a
5859  0a83 9f            	ld	a,x
5860  0a84 a403          	and	a,#3
5861  0a86 97            	ld	x,a
5862  0a87 84            	pop	a
5863  0a88 b7ff          	ld	_displayAppNavigate$L-1,a
5864  0a8a bffe          	ld	_displayAppNavigate$L-2,x
5865                     ; 597 				parametersSet(PARAM_OSCIL_OFFSET, woValue);
5867  0a8c befe          	ld	x,_displayAppNavigate$L-2
5868  0a8e bf01          	ld	_parametersSet$L+1,x
5869  0a90 b6ff          	ld	a,_displayAppNavigate$L-1
5870  0a92 b702          	ld	_parametersSet$L+2,a
5871  0a94 a611          	ld	a,#17
5872  0a96 cd0000        	call	_parametersSet
5874                     ; 599 				screenUpdateCurrentScreen();
5876  0a99 cd0000        	call	_screenUpdateCurrentScreen
5878  0a9c cc142d        	jp	L7361
5879  0a9f               L5141:
5880                     ; 602 		case PAGE_ZOOM_OUT:
5880                     ; 603 			if (parametersGetValue(PARAM_OSCIL_ZOOM)<16)  
5882  0a9f a610          	ld	a,#16
5883  0aa1 cd0000        	call	_parametersGetValue
5885  0aa4 a010          	sub	a,#16
5886  0aa6 9f            	ld	a,x
5887  0aa7 a200          	sbc	a,#0
5888  0aa9 2503          	jrult	L213
5889  0aab cc142d        	jp	L7361
5890  0aae               L213:
5891                     ; 605 				woValue = parametersGetValue(PARAM_OSCIL_ZOOM)*2;
5893  0aae a610          	ld	a,#16
5894  0ab0 cd0000        	call	_parametersGetValue
5896  0ab3 48            	sll	a
5897  0ab4 59            	rlc	x
5898  0ab5 b7ff          	ld	_displayAppNavigate$L-1,a
5899  0ab7 bffe          	ld	_displayAppNavigate$L-2,x
5900                     ; 606 				parametersSet(PARAM_OSCIL_ZOOM,  woValue);
5902  0ab9 befe          	ld	x,_displayAppNavigate$L-2
5903  0abb bf01          	ld	_parametersSet$L+1,x
5904  0abd b6ff          	ld	a,_displayAppNavigate$L-1
5905  0abf b702          	ld	_parametersSet$L+2,a
5906  0ac1 a610          	ld	a,#16
5907  0ac3 cd0000        	call	_parametersSet
5909                     ; 607 				woValueOffset = 16;
5911  0ac6 a610          	ld	a,#16
5912  0ac8 b7fd          	ld	_displayAppNavigate$L-3,a
5913  0aca 3ffc          	clr	_displayAppNavigate$L-4
5915  0acc 2008          	jra	L1761
5916  0ace               L5661:
5917                     ; 610 					woValueOffset *= 2; 
5919  0ace 38fd          	sll	_displayAppNavigate$L-3
5920  0ad0 39fc          	rlc	_displayAppNavigate$L-4
5921                     ; 611 					woValue = woValue>>1;
5923  0ad2 34fe          	srl	_displayAppNavigate$L-2
5924  0ad4 36ff          	rrc	_displayAppNavigate$L-1
5925  0ad6               L1761:
5926                     ; 608 				while(woValue > 0x0000)
5928  0ad6 b6ff          	ld	a,_displayAppNavigate$L-1
5929  0ad8 bafe          	or	a,_displayAppNavigate$L-2
5930  0ada 26f2          	jrne	L5661
5931                     ; 614 				woValue = (ENCODER_PULSES+parametersGetValue(PARAM_OSCIL_OFFSET) - woValueOffset)&(ENCODER_PULSES-1);
5933  0adc a611          	ld	a,#17
5934  0ade cd0000        	call	_parametersGetValue
5936  0ae1 ab00          	add	a,#0
5937  0ae3 88            	push	a
5938  0ae4 9f            	ld	a,x
5939  0ae5 a904          	adc	a,#4
5940  0ae7 97            	ld	x,a
5941  0ae8 84            	pop	a
5942  0ae9 b0fd          	sub	a,_displayAppNavigate$L-3
5943  0aeb 88            	push	a
5944  0aec 9f            	ld	a,x
5945  0aed b2fc          	sbc	a,_displayAppNavigate$L-4
5946  0aef 97            	ld	x,a
5947  0af0 84            	pop	a
5948  0af1 a4ff          	and	a,#255
5949  0af3 88            	push	a
5950  0af4 9f            	ld	a,x
5951  0af5 a403          	and	a,#3
5952  0af7 97            	ld	x,a
5953  0af8 84            	pop	a
5954  0af9 b7ff          	ld	_displayAppNavigate$L-1,a
5955  0afb bffe          	ld	_displayAppNavigate$L-2,x
5956                     ; 615 				parametersSet(PARAM_OSCIL_OFFSET, woValue);
5958  0afd befe          	ld	x,_displayAppNavigate$L-2
5959  0aff bf01          	ld	_parametersSet$L+1,x
5960  0b01 b6ff          	ld	a,_displayAppNavigate$L-1
5961  0b03 b702          	ld	_parametersSet$L+2,a
5962  0b05 a611          	ld	a,#17
5963  0b07 cd0000        	call	_parametersSet
5965                     ; 617 				screenUpdateCurrentScreen();
5967  0b0a cd0000        	call	_screenUpdateCurrentScreen
5969  0b0d cc142d        	jp	L7361
5970  0b10               L7141:
5971                     ; 620 		case PAGE_GATE_LEFT:
5971                     ; 621 			woValue = (parametersGetValue(PARAM_OSCIL_OFFSET)+4*parametersGetValue(PARAM_OSCIL_ZOOM))&(ENCODER_PULSES-1);
5973  0b10 a610          	ld	a,#16
5974  0b12 cd0000        	call	_parametersGetValue
5976  0b15 48            	sll	a
5977  0b16 59            	rlc	x
5978  0b17 48            	sll	a
5979  0b18 59            	rlc	x
5980  0b19 b7fa          	ld	_displayAppNavigate$L-6,a
5981  0b1b bff9          	ld	_displayAppNavigate$L-7,x
5982  0b1d a611          	ld	a,#17
5983  0b1f cd0000        	call	_parametersGetValue
5985  0b22 bbfa          	add	a,_displayAppNavigate$L-6
5986  0b24 88            	push	a
5987  0b25 9f            	ld	a,x
5988  0b26 b9f9          	adc	a,_displayAppNavigate$L-7
5989  0b28 97            	ld	x,a
5990  0b29 84            	pop	a
5991  0b2a a4ff          	and	a,#255
5992  0b2c 88            	push	a
5993  0b2d 9f            	ld	a,x
5994  0b2e a403          	and	a,#3
5995  0b30 97            	ld	x,a
5996  0b31 84            	pop	a
5997  0b32 b7ff          	ld	_displayAppNavigate$L-1,a
5998  0b34 bffe          	ld	_displayAppNavigate$L-2,x
5999                     ; 622 			parametersSet(PARAM_OSCIL_OFFSET, woValue);
6001  0b36 befe          	ld	x,_displayAppNavigate$L-2
6002  0b38 bf01          	ld	_parametersSet$L+1,x
6003  0b3a b6ff          	ld	a,_displayAppNavigate$L-1
6004  0b3c b702          	ld	_parametersSet$L+2,a
6005  0b3e a611          	ld	a,#17
6006  0b40 cd0000        	call	_parametersSet
6008                     ; 624 			woValue = (parametersGetValue(PARAM_OSCIL_MANUAL_OFFSET)+4*parametersGetValue(PARAM_OSCIL_ZOOM))&(ENCODER_PULSES-1);
6010  0b43 a610          	ld	a,#16
6011  0b45 cd0000        	call	_parametersGetValue
6013  0b48 48            	sll	a
6014  0b49 59            	rlc	x
6015  0b4a 48            	sll	a
6016  0b4b 59            	rlc	x
6017  0b4c b7fa          	ld	_displayAppNavigate$L-6,a
6018  0b4e bff9          	ld	_displayAppNavigate$L-7,x
6019  0b50 a612          	ld	a,#18
6020  0b52 cd0000        	call	_parametersGetValue
6022  0b55 bbfa          	add	a,_displayAppNavigate$L-6
6023  0b57 88            	push	a
6024  0b58 9f            	ld	a,x
6025  0b59 b9f9          	adc	a,_displayAppNavigate$L-7
6026  0b5b 97            	ld	x,a
6027  0b5c 84            	pop	a
6028  0b5d a4ff          	and	a,#255
6029  0b5f 88            	push	a
6030  0b60 9f            	ld	a,x
6031  0b61 a403          	and	a,#3
6032  0b63 97            	ld	x,a
6033  0b64 84            	pop	a
6034  0b65 b7ff          	ld	_displayAppNavigate$L-1,a
6035  0b67 bffe          	ld	_displayAppNavigate$L-2,x
6036                     ; 625 			parametersSet(PARAM_OSCIL_MANUAL_OFFSET, woValue);
6038  0b69 befe          	ld	x,_displayAppNavigate$L-2
6039  0b6b bf01          	ld	_parametersSet$L+1,x
6040  0b6d b6ff          	ld	a,_displayAppNavigate$L-1
6041  0b6f b702          	ld	_parametersSet$L+2,a
6042  0b71 a612          	ld	a,#18
6043  0b73 cd0000        	call	_parametersSet
6045                     ; 627 			screenUpdateCurrentScreen();
6047  0b76 cd0000        	call	_screenUpdateCurrentScreen
6049                     ; 628 			break;
6051  0b79 cc142d        	jp	L7361
6052  0b7c               L1241:
6053                     ; 629 		case PAGE_GATE_RIGHT:
6053                     ; 630 			woValue = (ENCODER_PULSES+parametersGetValue(PARAM_OSCIL_OFFSET)-4*parametersGetValue(PARAM_OSCIL_ZOOM))&(ENCODER_PULSES-1);
6055  0b7c a610          	ld	a,#16
6056  0b7e cd0000        	call	_parametersGetValue
6058  0b81 48            	sll	a
6059  0b82 59            	rlc	x
6060  0b83 48            	sll	a
6061  0b84 59            	rlc	x
6062  0b85 b7fa          	ld	_displayAppNavigate$L-6,a
6063  0b87 bff9          	ld	_displayAppNavigate$L-7,x
6064  0b89 a611          	ld	a,#17
6065  0b8b cd0000        	call	_parametersGetValue
6067  0b8e ab00          	add	a,#0
6068  0b90 88            	push	a
6069  0b91 9f            	ld	a,x
6070  0b92 a904          	adc	a,#4
6071  0b94 97            	ld	x,a
6072  0b95 84            	pop	a
6073  0b96 b0fa          	sub	a,_displayAppNavigate$L-6
6074  0b98 88            	push	a
6075  0b99 9f            	ld	a,x
6076  0b9a b2f9          	sbc	a,_displayAppNavigate$L-7
6077  0b9c 97            	ld	x,a
6078  0b9d 84            	pop	a
6079  0b9e a4ff          	and	a,#255
6080  0ba0 88            	push	a
6081  0ba1 9f            	ld	a,x
6082  0ba2 a403          	and	a,#3
6083  0ba4 97            	ld	x,a
6084  0ba5 84            	pop	a
6085  0ba6 b7ff          	ld	_displayAppNavigate$L-1,a
6086  0ba8 bffe          	ld	_displayAppNavigate$L-2,x
6087                     ; 631 			parametersSet(PARAM_OSCIL_OFFSET, woValue);
6089  0baa befe          	ld	x,_displayAppNavigate$L-2
6090  0bac bf01          	ld	_parametersSet$L+1,x
6091  0bae b6ff          	ld	a,_displayAppNavigate$L-1
6092  0bb0 b702          	ld	_parametersSet$L+2,a
6093  0bb2 a611          	ld	a,#17
6094  0bb4 cd0000        	call	_parametersSet
6096                     ; 633 			woValue = (ENCODER_PULSES+parametersGetValue(PARAM_OSCIL_MANUAL_OFFSET)-4*parametersGetValue(PARAM_OSCIL_ZOOM))&(ENCODER_PULSES-1);
6098  0bb7 a610          	ld	a,#16
6099  0bb9 cd0000        	call	_parametersGetValue
6101  0bbc 48            	sll	a
6102  0bbd 59            	rlc	x
6103  0bbe 48            	sll	a
6104  0bbf 59            	rlc	x
6105  0bc0 b7fa          	ld	_displayAppNavigate$L-6,a
6106  0bc2 bff9          	ld	_displayAppNavigate$L-7,x
6107  0bc4 a612          	ld	a,#18
6108  0bc6 cd0000        	call	_parametersGetValue
6110  0bc9 ab00          	add	a,#0
6111  0bcb 88            	push	a
6112  0bcc 9f            	ld	a,x
6113  0bcd a904          	adc	a,#4
6114  0bcf 97            	ld	x,a
6115  0bd0 84            	pop	a
6116  0bd1 b0fa          	sub	a,_displayAppNavigate$L-6
6117  0bd3 88            	push	a
6118  0bd4 9f            	ld	a,x
6119  0bd5 b2f9          	sbc	a,_displayAppNavigate$L-7
6120  0bd7 97            	ld	x,a
6121  0bd8 84            	pop	a
6122  0bd9 a4ff          	and	a,#255
6123  0bdb 88            	push	a
6124  0bdc 9f            	ld	a,x
6125  0bdd a403          	and	a,#3
6126  0bdf 97            	ld	x,a
6127  0be0 84            	pop	a
6128  0be1 b7ff          	ld	_displayAppNavigate$L-1,a
6129  0be3 bffe          	ld	_displayAppNavigate$L-2,x
6130                     ; 634 			parametersSet(PARAM_OSCIL_MANUAL_OFFSET, woValue);
6132  0be5 befe          	ld	x,_displayAppNavigate$L-2
6133  0be7 bf01          	ld	_parametersSet$L+1,x
6134  0be9 b6ff          	ld	a,_displayAppNavigate$L-1
6135  0beb b702          	ld	_parametersSet$L+2,a
6136  0bed a612          	ld	a,#18
6137  0bef cd0000        	call	_parametersSet
6139                     ; 636 			screenUpdateCurrentScreen();
6141  0bf2 cd0000        	call	_screenUpdateCurrentScreen
6143                     ; 637 			break;
6145  0bf5 cc142d        	jp	L7361
6146  0bf8               L3241:
6147                     ; 638 		case PAGE_OFF:
6147                     ; 639 			if (!parametersGetValue(PARAM_OFF))
6149  0bf8 a615          	ld	a,#21
6150  0bfa cd0000        	call	_parametersGetValue
6152  0bfd 4d            	tnz	a
6153  0bfe 2601          	jrne	L612
6154  0c00 5d            	tnz	x
6155  0c01               L612:
6156  0c01 264c          	jrne	L5761
6157                     ; 641 				parametersSet(PARAM_MODE_LONG, PARAM_MODE_MANUAL);
6159  0c03 3f01          	clr	_parametersSet$L+1
6160  0c05 3f02          	clr	_parametersSet$L+2
6161  0c07 a60a          	ld	a,#10
6162  0c09 cd0000        	call	_parametersSet
6164                     ; 642 				parametersSet(PARAM_MODE_TRANS, PARAM_MODE_MANUAL);
6166  0c0c 3f01          	clr	_parametersSet$L+1
6167  0c0e 3f02          	clr	_parametersSet$L+2
6168  0c10 a60b          	ld	a,#11
6169  0c12 cd0000        	call	_parametersSet
6171                     ; 643 				parametersSet(PARAM_MODE_PULL, PARAM_MODE_MANUAL);
6173  0c15 3f01          	clr	_parametersSet$L+1
6174  0c17 3f02          	clr	_parametersSet$L+2
6175  0c19 a60c          	ld	a,#12
6176  0c1b cd0000        	call	_parametersSet
6178                     ; 645 				STI_SendMessage(STI_FUNZ_WRITE_PARAM, STI_PARAM_MODE_LONG, PARAM_MODE_MANUAL);
6180  0c1e 3f02          	clr	_STI_SendMessage$L+2
6181  0c20 3f03          	clr	_STI_SendMessage$L+3
6182  0c22 a60d          	ld	a,#13
6183  0c24 ae81          	ld	x,#129
6184  0c26 cd0000        	call	_STI_SendMessage
6186                     ; 646 				STI_SendMessage(STI_FUNZ_WRITE_PARAM, STI_PARAM_MODE_TRANS, PARAM_MODE_MANUAL);
6188  0c29 3f02          	clr	_STI_SendMessage$L+2
6189  0c2b 3f03          	clr	_STI_SendMessage$L+3
6190  0c2d a60e          	ld	a,#14
6191  0c2f ae81          	ld	x,#129
6192  0c31 cd0000        	call	_STI_SendMessage
6194                     ; 647 				STI_SendMessage(STI_FUNZ_WRITE_PARAM, STI_PARAM_MODE_PULL, PARAM_MODE_MANUAL);
6196  0c34 3f02          	clr	_STI_SendMessage$L+2
6197  0c36 3f03          	clr	_STI_SendMessage$L+3
6198  0c38 a623          	ld	a,#35
6199  0c3a ae81          	ld	x,#129
6200  0c3c cd0000        	call	_STI_SendMessage
6202                     ; 648 				STI_SendMessage(STI_FUNZ_RESET, 0x00,0x0000);
6204  0c3f 3f02          	clr	_STI_SendMessage$L+2
6205  0c41 3f03          	clr	_STI_SendMessage$L+3
6206  0c43 4f            	clr	a
6207  0c44 ae93          	ld	x,#147
6208  0c46 cd0000        	call	_STI_SendMessage
6210                     ; 649 				displayOff();
6212  0c49 cd0000        	call	_displayOff
6215  0c4c cc142d        	jp	L7361
6216  0c4f               L5761:
6217                     ; 653 				displayOff();
6219  0c4f cd0000        	call	_displayOff
6221                     ; 654 				displayInit();
6223  0c52 cd0000        	call	_displayInit
6225                     ; 655 				displayAppInit();
6227  0c55 cd0000        	call	_displayAppInit
6229                     ; 656 				sleepSec(1);
6231  0c58 5f            	clr	x
6232  0c59 a601          	ld	a,#1
6233  0c5b cd0000        	call	_sleepSec
6235                     ; 657 				screenRegister();
6237  0c5e cd0000        	call	_screenRegister
6239  0c61 cc142d        	jp	L7361
6240  0c64               L5241:
6241                     ; 661 		case PAGE_REGISTER:
6241                     ; 662 			m_byPageWaitingAnswer = PAGE_NONE;
6243  0c64 4f            	clr	a
6244  0c65 c70001        	ld	_m_byPageWaitingAnswer,a
6245                     ; 663 			screenRegister();
6247  0c68 cd0000        	call	_screenRegister
6249                     ; 664 			break;
6251  0c6b cc142d        	jp	L7361
6252  0c6e               L7241:
6253                     ; 665 		case PAGE_OSCILLOSCOPE:
6253                     ; 666 			screenBigStdMessage(SCREEN_STD_MSG_VISUAL_OSCILLOSCOPE);
6255  0c6e a615          	ld	a,#21
6256  0c70 cd0000        	call	_screenBigStdMessage
6258                     ; 667 			parametersSet(PARAM_SPEED, STI_GetMessage(STI_PARAM_SPEED));
6260  0c73 a620          	ld	a,#32
6261  0c75 cd0000        	call	_STI_GetMessage
6263  0c78 b702          	ld	_parametersSet$L+2,a
6264  0c7a bf01          	ld	_parametersSet$L+1,x
6265  0c7c a605          	ld	a,#5
6266  0c7e cd0000        	call	_parametersSet
6268                     ; 668 			if (parametersGetValue(PARAM_SPEED)==0x0000)
6270  0c81 a605          	ld	a,#5
6271  0c83 cd0000        	call	_parametersGetValue
6273  0c86 4d            	tnz	a
6274  0c87 2601          	jrne	L022
6275  0c89 5d            	tnz	x
6276  0c8a               L022:
6277  0c8a 2615          	jrne	L1071
6278                     ; 670 				sleepFix();
6280  0c8c cd0000        	call	_sleepFix
6282                     ; 671 				screenBigStdMessage(SCREEN_STD_MSG_SPEED_ZERO);
6284  0c8f a60e          	ld	a,#14
6285  0c91 cd0000        	call	_screenBigStdMessage
6287                     ; 672 				sleepFix();
6289  0c94 cd0000        	call	_sleepFix
6291                     ; 673 				m_byPageWaitingAnswer = PAGE_NONE;
6293  0c97 4f            	clr	a
6294  0c98 c70001        	ld	_m_byPageWaitingAnswer,a
6295                     ; 674 				screenRegister();
6297  0c9b cd0000        	call	_screenRegister
6300  0c9e cc142d        	jp	L7361
6301  0ca1               L1071:
6302                     ; 679 				scanningHeadSignalAcquireGate();
6304  0ca1 cd0000        	call	_scanningHeadSignalAcquireGate
6306                     ; 680 				scanningHeadSignalAcquire();
6308  0ca4 cd0000        	call	_scanningHeadSignalAcquire
6310                     ; 681 				m_byManualShiftActiveLong = false;
6312  0ca7 4f            	clr	a
6313  0ca8 c70004        	ld	_m_byManualShiftActiveLong,a
6314                     ; 682 				screenOscilloscope(PAGE_OSCILLOSCOPE);
6316  0cab a605          	ld	a,#5
6317  0cad cd0000        	call	_screenOscilloscope
6319  0cb0 cc142d        	jp	L7361
6320  0cb3               L1341:
6321                     ; 685 		case PAGE_PHASE_OSCILL:
6321                     ; 686 			screenBigStdMessage(SCREEN_STD_MSG_PHASE_OSCIL);
6323  0cb3 a603          	ld	a,#3
6324  0cb5 cd0000        	call	_screenBigStdMessage
6326                     ; 687 			parametersSet(PARAM_SPEED, STI_GetMessage(STI_PARAM_SPEED));
6328  0cb8 a620          	ld	a,#32
6329  0cba cd0000        	call	_STI_GetMessage
6331  0cbd b702          	ld	_parametersSet$L+2,a
6332  0cbf bf01          	ld	_parametersSet$L+1,x
6333  0cc1 a605          	ld	a,#5
6334  0cc3 cd0000        	call	_parametersSet
6336                     ; 688 			if (parametersGetValue(PARAM_SPEED)==0x0000)
6338  0cc6 a605          	ld	a,#5
6339  0cc8 cd0000        	call	_parametersGetValue
6341  0ccb 4d            	tnz	a
6342  0ccc 2601          	jrne	L222
6343  0cce 5d            	tnz	x
6344  0ccf               L222:
6345  0ccf 2615          	jrne	L5071
6346                     ; 690 				sleepFix();
6348  0cd1 cd0000        	call	_sleepFix
6350                     ; 691 				screenBigStdMessage(SCREEN_STD_MSG_SPEED_ZERO);
6352  0cd4 a60e          	ld	a,#14
6353  0cd6 cd0000        	call	_screenBigStdMessage
6355                     ; 692 				sleepFix();
6357  0cd9 cd0000        	call	_sleepFix
6359                     ; 693 				m_byPageWaitingAnswer = PAGE_NONE;
6361  0cdc 4f            	clr	a
6362  0cdd c70001        	ld	_m_byPageWaitingAnswer,a
6363                     ; 694 				screenRegister();
6365  0ce0 cd0000        	call	_screenRegister
6368  0ce3 cc142d        	jp	L7361
6369  0ce6               L5071:
6370                     ; 699 				parametersSet(PARAM_SH_GAIN, 0x0000);	//Set maximum gain
6372  0ce6 3f01          	clr	_parametersSet$L+1
6373  0ce8 3f02          	clr	_parametersSet$L+2
6374  0cea a606          	ld	a,#6
6375  0cec cd0000        	call	_parametersSet
6377                     ; 700 				STI_SendMessage(STI_FUNZ_WRITE_PARAM, STI_PARAM_SH_GAIN, 0x0000);
6379  0cef 3f02          	clr	_STI_SendMessage$L+2
6380  0cf1 3f03          	clr	_STI_SendMessage$L+3
6381  0cf3 a619          	ld	a,#25
6382  0cf5 ae81          	ld	x,#129
6383  0cf7 cd0000        	call	_STI_SendMessage
6385                     ; 701 				scanningHeadSignalAcquireGate();
6387  0cfa cd0000        	call	_scanningHeadSignalAcquireGate
6389                     ; 702 				scanningHeadSignalAcquire();
6391  0cfd cd0000        	call	_scanningHeadSignalAcquire
6393                     ; 703 				m_byManualShiftActiveLong = false;
6395  0d00 4f            	clr	a
6396  0d01 c70004        	ld	_m_byManualShiftActiveLong,a
6397                     ; 704 				parametersSet(PARAM_OSCIL_MANUAL_OFFSET, 0x0000);
6399  0d04 3f01          	clr	_parametersSet$L+1
6400  0d06 3f02          	clr	_parametersSet$L+2
6401  0d08 a612          	ld	a,#18
6402  0d0a cd0000        	call	_parametersSet
6404                     ; 705 				screenOscilloscope(PAGE_PHASE_OSCILL);
6406  0d0d a606          	ld	a,#6
6407  0d0f cd0000        	call	_screenOscilloscope
6409  0d12 cc142d        	jp	L7361
6410  0d15               L3341:
6411                     ; 708 		case PAGE_PHASE_FAST:
6411                     ; 709 			if (parametersGetValue(PARAM_COLD_SEAL_ENABLE) == 0x00)
6413  0d15 a632          	ld	a,#50
6414  0d17 cd0000        	call	_parametersGetValue
6416  0d1a 4d            	tnz	a
6417  0d1b 2601          	jrne	L422
6418  0d1d 5d            	tnz	x
6419  0d1e               L422:
6420  0d1e 2703          	jreq	L413
6421  0d20 cc142d        	jp	L7361
6422  0d23               L413:
6423                     ; 711 				screenBigStdMessage(SCREEN_STD_MSG_PHASE_FAST);
6425  0d23 a602          	ld	a,#2
6426  0d25 cd0000        	call	_screenBigStdMessage
6428                     ; 712 				parametersSet(PARAM_SPEED, STI_GetMessage(STI_PARAM_SPEED));
6430  0d28 a620          	ld	a,#32
6431  0d2a cd0000        	call	_STI_GetMessage
6433  0d2d b702          	ld	_parametersSet$L+2,a
6434  0d2f bf01          	ld	_parametersSet$L+1,x
6435  0d31 a605          	ld	a,#5
6436  0d33 cd0000        	call	_parametersSet
6438                     ; 713 				if (parametersGetValue(PARAM_SPEED)==0x0000)
6440  0d36 a605          	ld	a,#5
6441  0d38 cd0000        	call	_parametersGetValue
6443  0d3b 4d            	tnz	a
6444  0d3c 2601          	jrne	L622
6445  0d3e 5d            	tnz	x
6446  0d3f               L622:
6447  0d3f 2615          	jrne	L3171
6448                     ; 715 					sleepFix();
6450  0d41 cd0000        	call	_sleepFix
6452                     ; 716 					screenBigStdMessage(SCREEN_STD_MSG_SPEED_ZERO);
6454  0d44 a60e          	ld	a,#14
6455  0d46 cd0000        	call	_screenBigStdMessage
6457                     ; 717 					sleepFix();
6459  0d49 cd0000        	call	_sleepFix
6461                     ; 718 					m_byPageWaitingAnswer = PAGE_NONE;
6463  0d4c 4f            	clr	a
6464  0d4d c70001        	ld	_m_byPageWaitingAnswer,a
6465                     ; 719 					screenRegister();
6467  0d50 cd0000        	call	_screenRegister
6470  0d53 cc142d        	jp	L7361
6471  0d56               L3171:
6472                     ; 723 					m_byPageWaitingAnswer = PAGE_PHASE_FAST;
6474  0d56 a607          	ld	a,#7
6475  0d58 c70001        	ld	_m_byPageWaitingAnswer,a
6476                     ; 724 					m_byPageAnswerReceived = false;
6478  0d5b 4f            	clr	a
6479  0d5c c70000        	ld	_m_byPageAnswerReceived,a
6480                     ; 725 					STI_SendMessage(STI_FUNZ_PHASE_FAST, 0x00, 0x0000);
6482  0d5f 3f02          	clr	_STI_SendMessage$L+2
6483  0d61 3f03          	clr	_STI_SendMessage$L+3
6484  0d63 4f            	clr	a
6485  0d64 ae8d          	ld	x,#141
6486  0d66 cd0000        	call	_STI_SendMessage
6488                     ; 727 					scanningHeadSignalAcquireGate();
6490  0d69 cd0000        	call	_scanningHeadSignalAcquireGate
6492                     ; 728 					scanningHeadSignalAcquire();
6494  0d6c cd0000        	call	_scanningHeadSignalAcquire
6496                     ; 729 					parametersSet(PARAM_MODE_LONG, STI_GetMessage(STI_PARAM_MODE_LONG));
6498  0d6f a60d          	ld	a,#13
6499  0d71 cd0000        	call	_STI_GetMessage
6501  0d74 b702          	ld	_parametersSet$L+2,a
6502  0d76 bf01          	ld	_parametersSet$L+1,x
6503  0d78 a60a          	ld	a,#10
6504  0d7a cd0000        	call	_parametersSet
6506                     ; 730 					parametersSet(PARAM_MODE_TRANS, STI_GetMessage(STI_PARAM_MODE_TRANS));
6508  0d7d a60e          	ld	a,#14
6509  0d7f cd0000        	call	_STI_GetMessage
6511  0d82 b702          	ld	_parametersSet$L+2,a
6512  0d84 bf01          	ld	_parametersSet$L+1,x
6513  0d86 a60b          	ld	a,#11
6514  0d88 cd0000        	call	_parametersSet
6516                     ; 731 					parametersSet(PARAM_MODE_PULL, STI_GetMessage(STI_PARAM_MODE_PULL));
6518  0d8b a623          	ld	a,#35
6519  0d8d cd0000        	call	_STI_GetMessage
6521  0d90 b702          	ld	_parametersSet$L+2,a
6522  0d92 bf01          	ld	_parametersSet$L+1,x
6523  0d94 a60c          	ld	a,#12
6524  0d96 cd0000        	call	_parametersSet
6526                     ; 734 					m_byManualShiftActiveLong = false;
6528  0d99 4f            	clr	a
6529  0d9a c70004        	ld	_m_byManualShiftActiveLong,a
6530                     ; 735 					parametersSet(PARAM_OSCIL_MANUAL_OFFSET, 0x0000);
6532  0d9d 3f01          	clr	_parametersSet$L+1
6533  0d9f 3f02          	clr	_parametersSet$L+2
6534  0da1 a612          	ld	a,#18
6535  0da3 cd0000        	call	_parametersSet
6537                     ; 736 					screenOscilloscope(PAGE_PHASE_FAST);
6539  0da6 a607          	ld	a,#7
6540  0da8 cd0000        	call	_screenOscilloscope
6542  0dab cc142d        	jp	L7361
6543  0dae               L5341:
6544                     ; 740 		case PAGE_MODE_LONG:
6544                     ; 741 			displayAppUpdateMode(true);
6546  0dae a601          	ld	a,#1
6547  0db0 cd003a        	call	_displayAppUpdateMode
6549                     ; 742 			parametersSet(PARAM_ALARM, (STI_GetMessage(STI_PARAM_ALARM_STATUS) & STI_ANSWER_ALARMS));
6551  0db3 a626          	ld	a,#38
6552  0db5 cd0000        	call	_STI_GetMessage
6554  0db8 a41f          	and	a,#31
6555  0dba 88            	push	a
6556  0dbb 9f            	ld	a,x
6557  0dbc a4bf          	and	a,#191
6558  0dbe 97            	ld	x,a
6559  0dbf 84            	pop	a
6560  0dc0 b702          	ld	_parametersSet$L+2,a
6561  0dc2 bf01          	ld	_parametersSet$L+1,x
6562  0dc4 a607          	ld	a,#7
6563  0dc6 cd0000        	call	_parametersSet
6565                     ; 743 			screenUpdateCurrentScreen();
6567  0dc9 cd0000        	call	_screenUpdateCurrentScreen
6569                     ; 744 			break;
6571  0dcc cc142d        	jp	L7361
6572  0dcf               L7341:
6573                     ; 745 		case PAGE_MODE_LAT:
6573                     ; 746 			displayAppUpdateMode(false);
6575  0dcf 4f            	clr	a
6576  0dd0 cd003a        	call	_displayAppUpdateMode
6578                     ; 747 			parametersSet(PARAM_ALARM, (STI_GetMessage(STI_PARAM_ALARM_STATUS) & STI_ANSWER_ALARMS));
6580  0dd3 a626          	ld	a,#38
6581  0dd5 cd0000        	call	_STI_GetMessage
6583  0dd8 a41f          	and	a,#31
6584  0dda 88            	push	a
6585  0ddb 9f            	ld	a,x
6586  0ddc a4bf          	and	a,#191
6587  0dde 97            	ld	x,a
6588  0ddf 84            	pop	a
6589  0de0 b702          	ld	_parametersSet$L+2,a
6590  0de2 bf01          	ld	_parametersSet$L+1,x
6591  0de4 a607          	ld	a,#7
6592  0de6 cd0000        	call	_parametersSet
6594                     ; 748 			screenUpdateCurrentScreen();
6596  0de9 cd0000        	call	_screenUpdateCurrentScreen
6598                     ; 749 			break;
6600  0dec cc142d        	jp	L7361
6601  0def               L1441:
6602                     ; 750 		case PAGE_SETUP:
6602                     ; 751 			if(parametersGetValue(PARAM_PAGE) != PAGE_SETUP)
6604  0def a608          	ld	a,#8
6605  0df1 cd0000        	call	_parametersGetValue
6607  0df4 a119          	cp	a,#25
6608  0df6 2602          	jrne	L032
6609  0df8 a300          	cp	x,#0
6610  0dfa               L032:
6611  0dfa 2603          	jrne	L613
6612  0dfc cc0e95        	jp	L7171
6613  0dff               L613:
6614                     ; 753 				woValue = 5000;
6616  0dff ae13          	ld	x,#19
6617  0e01 bffe          	ld	_displayAppNavigate$L-2,x
6618  0e03 a688          	ld	a,#136
6619  0e05 b7ff          	ld	_displayAppNavigate$L-1,a
6621  0e07 203d          	jra	L5271
6622  0e09               L1271:
6623                     ; 756 					woValue = MIN(woValue-1, woValue);
6625  0e09 b6ff          	ld	a,_displayAppNavigate$L-1
6626  0e0b befe          	ld	x,_displayAppNavigate$L-2
6627  0e0d 4d            	tnz	a
6628  0e0e 2601          	jrne	L432
6629  0e10 5a            	dec	x
6630  0e11               L432:
6631  0e11 4a            	dec	a
6632  0e12 b700          	ld	c_x,a
6633  0e14 b6ff          	ld	a,_displayAppNavigate$L-1
6634  0e16 b000          	sub	a,c_x
6635  0e18 bf00          	ld	c_x,x
6636  0e1a b6fe          	ld	a,_displayAppNavigate$L-2
6637  0e1c b200          	sbc	a,c_x
6638  0e1e 2406          	jruge	L232
6639  0e20 b6ff          	ld	a,_displayAppNavigate$L-1
6640  0e22 befe          	ld	x,_displayAppNavigate$L-2
6641  0e24 2009          	jra	L632
6642  0e26               L232:
6643  0e26 b6ff          	ld	a,_displayAppNavigate$L-1
6644  0e28 befe          	ld	x,_displayAppNavigate$L-2
6645  0e2a 4d            	tnz	a
6646  0e2b 2601          	jrne	L042
6647  0e2d 5a            	dec	x
6648  0e2e               L042:
6649  0e2e 4a            	dec	a
6650  0e2f               L632:
6651  0e2f b7ff          	ld	_displayAppNavigate$L-1,a
6652  0e31 bffe          	ld	_displayAppNavigate$L-2,x
6653                     ; 757 					sleep(50);
6655  0e33 a632          	ld	a,#50
6656  0e35 b703          	ld	_sleep$L+3,a
6657  0e37 a600          	ld	a,#0
6658  0e39 b702          	ld	_sleep$L+2,a
6659  0e3b a600          	ld	a,#0
6660  0e3d b701          	ld	_sleep$L+1,a
6661  0e3f a600          	ld	a,#0
6662  0e41 b700          	ld	_sleep$L,a
6663  0e43 cd0000        	call	_sleep
6665  0e46               L5271:
6666                     ; 754 				while((displayGetKeyPressed() != KEY_RELEASED) && (woValue>0))
6668  0e46 cd0000        	call	_displayGetKeyPressed
6670  0e49 a120          	cp	a,#32
6671  0e4b 2706          	jreq	L1371
6673  0e4d b6ff          	ld	a,_displayAppNavigate$L-1
6674  0e4f bafe          	or	a,_displayAppNavigate$L-2
6675  0e51 26b6          	jrne	L1271
6676  0e53               L1371:
6677                     ; 759 				if(woValue==0) //If full setup, go to manual
6679  0e53 b6ff          	ld	a,_displayAppNavigate$L-1
6680  0e55 bafe          	or	a,_displayAppNavigate$L-2
6681  0e57 263c          	jrne	L7171
6682                     ; 761 					parametersSet(PARAM_MODE_LONG, PARAM_MODE_MANUAL);
6684  0e59 3f01          	clr	_parametersSet$L+1
6685  0e5b 3f02          	clr	_parametersSet$L+2
6686  0e5d a60a          	ld	a,#10
6687  0e5f cd0000        	call	_parametersSet
6689                     ; 762 					parametersSet(PARAM_MODE_TRANS, PARAM_MODE_MANUAL);
6691  0e62 3f01          	clr	_parametersSet$L+1
6692  0e64 3f02          	clr	_parametersSet$L+2
6693  0e66 a60b          	ld	a,#11
6694  0e68 cd0000        	call	_parametersSet
6696                     ; 763 					parametersSet(PARAM_MODE_PULL, PARAM_MODE_MANUAL);
6698  0e6b 3f01          	clr	_parametersSet$L+1
6699  0e6d 3f02          	clr	_parametersSet$L+2
6700  0e6f a60c          	ld	a,#12
6701  0e71 cd0000        	call	_parametersSet
6703                     ; 765 					STI_SendMessage(STI_FUNZ_WRITE_PARAM, STI_PARAM_MODE_LONG, PARAM_MODE_MANUAL);
6705  0e74 3f02          	clr	_STI_SendMessage$L+2
6706  0e76 3f03          	clr	_STI_SendMessage$L+3
6707  0e78 a60d          	ld	a,#13
6708  0e7a ae81          	ld	x,#129
6709  0e7c cd0000        	call	_STI_SendMessage
6711                     ; 766 					STI_SendMessage(STI_FUNZ_WRITE_PARAM, STI_PARAM_MODE_TRANS, PARAM_MODE_MANUAL);
6713  0e7f 3f02          	clr	_STI_SendMessage$L+2
6714  0e81 3f03          	clr	_STI_SendMessage$L+3
6715  0e83 a60e          	ld	a,#14
6716  0e85 ae81          	ld	x,#129
6717  0e87 cd0000        	call	_STI_SendMessage
6719                     ; 767 					STI_SendMessage(STI_FUNZ_WRITE_PARAM, STI_PARAM_MODE_PULL, PARAM_MODE_MANUAL);
6721  0e8a 3f02          	clr	_STI_SendMessage$L+2
6722  0e8c 3f03          	clr	_STI_SendMessage$L+3
6723  0e8e a623          	ld	a,#35
6724  0e90 ae81          	ld	x,#129
6725  0e92 cd0000        	call	_STI_SendMessage
6727  0e95               L7171:
6728                     ; 770 			screenSetUpParameter(byKey, (woValue==0));
6730  0e95 b6ff          	ld	a,_displayAppNavigate$L-1
6731  0e97 bafe          	or	a,_displayAppNavigate$L-2
6732  0e99 2604          	jrne	L242
6733  0e9b a601          	ld	a,#1
6734  0e9d 2001          	jra	L442
6735  0e9f               L242:
6736  0e9f 4f            	clr	a
6737  0ea0               L442:
6738  0ea0 befb          	ld	x,_displayAppNavigate$L-5
6739  0ea2 cd0000        	call	_screenSetUpParameter
6741                     ; 771 			if((byKey == KEY_OK) && (parametersGetValue(PARAM_PAGE_SEL) == PARAM_SNI_TIMER-PARAMETER_SETUP_INITIAL_INDEX))
6743  0ea5 b6fb          	ld	a,_displayAppNavigate$L-5
6744  0ea7 a10a          	cp	a,#10
6745  0ea9 2703          	jreq	L023
6746  0eab cc142d        	jp	L7361
6747  0eae               L023:
6749  0eae a609          	ld	a,#9
6750  0eb0 cd0000        	call	_parametersGetValue
6752  0eb3 a127          	cp	a,#39
6753  0eb5 2602          	jrne	L642
6754  0eb7 a300          	cp	x,#0
6755  0eb9               L642:
6756  0eb9 2703          	jreq	L223
6757  0ebb cc142d        	jp	L7361
6758  0ebe               L223:
6759                     ; 773 				SNI_Init();
6761  0ebe cd0000        	call	_SNI_Init
6763  0ec1 cc142d        	jp	L7361
6764  0ec4               L3441:
6765                     ; 776 		case PAGE_EXECUTE_F1:
6765                     ; 777 			screenBigStdMessage(SCREEN_STD_MSG_RESET_ERROR);
6767  0ec4 a626          	ld	a,#38
6768  0ec6 cd0000        	call	_screenBigStdMessage
6770                     ; 778 			STI_SendMessage(STI_FUNZ_GATE_CENTER, 0x00, 0x0000);
6772  0ec9 3f02          	clr	_STI_SendMessage$L+2
6773  0ecb 3f03          	clr	_STI_SendMessage$L+3
6774  0ecd 4f            	clr	a
6775  0ece ae90          	ld	x,#144
6776  0ed0 cd0000        	call	_STI_SendMessage
6778                     ; 779 			sleepFix();
6780  0ed3 cd0000        	call	_sleepFix
6782                     ; 780 			parametersSet(PARAM_ERR_LONG, 0x8000);		//reset the error
6784  0ed6 a680          	ld	a,#128
6785  0ed8 b701          	ld	_parametersSet$L+1,a
6786  0eda 3f02          	clr	_parametersSet$L+2
6787  0edc a60e          	ld	a,#14
6788  0ede cd0000        	call	_parametersSet
6790                     ; 781 			parametersSet(PARAM_MODE_TRANS, 0x8000);	//reset the error
6792  0ee1 a680          	ld	a,#128
6793  0ee3 b701          	ld	_parametersSet$L+1,a
6794  0ee5 3f02          	clr	_parametersSet$L+2
6795  0ee7 a60b          	ld	a,#11
6796  0ee9 cd0000        	call	_parametersSet
6798                     ; 782 			parametersSet(PARAM_MODE_LONG, STI_GetMessage(STI_PARAM_MODE_LONG));
6800  0eec a60d          	ld	a,#13
6801  0eee cd0000        	call	_STI_GetMessage
6803  0ef1 b702          	ld	_parametersSet$L+2,a
6804  0ef3 bf01          	ld	_parametersSet$L+1,x
6805  0ef5 a60a          	ld	a,#10
6806  0ef7 cd0000        	call	_parametersSet
6808                     ; 783 			parametersSet(PARAM_MODE_TRANS, STI_GetMessage(STI_PARAM_MODE_TRANS));
6810  0efa a60e          	ld	a,#14
6811  0efc cd0000        	call	_STI_GetMessage
6813  0eff b702          	ld	_parametersSet$L+2,a
6814  0f01 bf01          	ld	_parametersSet$L+1,x
6815  0f03 a60b          	ld	a,#11
6816  0f05 cd0000        	call	_parametersSet
6818                     ; 784 			parametersSet(PARAM_MODE_PULL, STI_GetMessage(STI_PARAM_MODE_PULL));
6820  0f08 a623          	ld	a,#35
6821  0f0a cd0000        	call	_STI_GetMessage
6823  0f0d b702          	ld	_parametersSet$L+2,a
6824  0f0f bf01          	ld	_parametersSet$L+1,x
6825  0f11 a60c          	ld	a,#12
6826  0f13 cd0000        	call	_parametersSet
6828                     ; 785 			parametersSet(PARAM_CORRECTION, STI_GetMessage(STI_PARAM_CORRECTIONS));
6830  0f16 a61c          	ld	a,#28
6831  0f18 cd0000        	call	_STI_GetMessage
6833  0f1b b702          	ld	_parametersSet$L+2,a
6834  0f1d bf01          	ld	_parametersSet$L+1,x
6835  0f1f a60d          	ld	a,#13
6836  0f21 cd0000        	call	_parametersSet
6838                     ; 786 			parametersSet(PARAM_ALARM, (STI_GetMessage(STI_PARAM_ALARM_STATUS) & STI_ANSWER_ALARMS));
6840  0f24 a626          	ld	a,#38
6841  0f26 cd0000        	call	_STI_GetMessage
6843  0f29 a41f          	and	a,#31
6844  0f2b 88            	push	a
6845  0f2c 9f            	ld	a,x
6846  0f2d a4bf          	and	a,#191
6847  0f2f 97            	ld	x,a
6848  0f30 84            	pop	a
6849  0f31 b702          	ld	_parametersSet$L+2,a
6850  0f33 bf01          	ld	_parametersSet$L+1,x
6851  0f35 a607          	ld	a,#7
6852  0f37 cd0000        	call	_parametersSet
6854                     ; 787 			m_byManualShiftActiveLong = false;
6856  0f3a 4f            	clr	a
6857  0f3b c70004        	ld	_m_byManualShiftActiveLong,a
6858                     ; 788 			m_byPageWaitingAnswer = PAGE_NONE;
6860  0f3e 4f            	clr	a
6861  0f3f c70001        	ld	_m_byPageWaitingAnswer,a
6862                     ; 789 			screenRegister();
6864  0f42 cd0000        	call	_screenRegister
6866                     ; 790 			break;
6868  0f45 cc142d        	jp	L7361
6869  0f48               L5441:
6870                     ; 791 		case PAGE_EXECUTE_F3:
6870                     ; 792 			screenBigStdMessage(SCREEN_STD_MSG_PHASE_OK);
6872  0f48 a60d          	ld	a,#13
6873  0f4a cd0000        	call	_screenBigStdMessage
6875                     ; 793 			woValueOffset = STI_GetMessage(STI_PARAM_PHASE_START);
6877  0f4d a628          	ld	a,#40
6878  0f4f cd0000        	call	_STI_GetMessage
6880  0f52 b7fd          	ld	_displayAppNavigate$L-3,a
6881  0f54 bffc          	ld	_displayAppNavigate$L-4,x
6882                     ; 794 			woValueOffset += ((ENCODER_PULSES + parametersGetValue(PARAM_OSCIL_MANUAL_OFFSET) - 8) *4);
6884  0f56 a612          	ld	a,#18
6885  0f58 cd0000        	call	_parametersGetValue
6887  0f5b abf8          	add	a,#248
6888  0f5d 88            	push	a
6889  0f5e 9f            	ld	a,x
6890  0f5f a903          	adc	a,#3
6891  0f61 97            	ld	x,a
6892  0f62 84            	pop	a
6893  0f63 48            	sll	a
6894  0f64 59            	rlc	x
6895  0f65 48            	sll	a
6896  0f66 59            	rlc	x
6897  0f67 b7fa          	ld	_displayAppNavigate$L-6,a
6898  0f69 bff9          	ld	_displayAppNavigate$L-7,x
6899  0f6b b6fd          	ld	a,_displayAppNavigate$L-3
6900  0f6d bbfa          	add	a,_displayAppNavigate$L-6
6901  0f6f b7fd          	ld	_displayAppNavigate$L-3,a
6902  0f71 b6fc          	ld	a,_displayAppNavigate$L-4
6903  0f73 b9f9          	adc	a,_displayAppNavigate$L-7
6904  0f75 b7fc          	ld	_displayAppNavigate$L-4,a
6905                     ; 795 			woValueOffset = woValueOffset & ((ENCODER_PULSES*4) -1);
6907  0f77 b6fd          	ld	a,_displayAppNavigate$L-3
6908  0f79 a4ff          	and	a,#255
6909  0f7b b7fd          	ld	_displayAppNavigate$L-3,a
6910  0f7d b6fc          	ld	a,_displayAppNavigate$L-4
6911  0f7f a40f          	and	a,#15
6912  0f81 b7fc          	ld	_displayAppNavigate$L-4,a
6913                     ; 796 			STI_SendMessage(STI_FUNZ_WRITE_PARAM, STI_PARAM_PHASE_START, woValueOffset);
6915  0f83 befc          	ld	x,_displayAppNavigate$L-4
6916  0f85 bf02          	ld	_STI_SendMessage$L+2,x
6917  0f87 b6fd          	ld	a,_displayAppNavigate$L-3
6918  0f89 b703          	ld	_STI_SendMessage$L+3,a
6919  0f8b a628          	ld	a,#40
6920  0f8d ae81          	ld	x,#129
6921  0f8f cd0000        	call	_STI_SendMessage
6923                     ; 797 			sleepFix();
6925  0f92 cd0000        	call	_sleepFix
6927                     ; 798 			parametersSet(PARAM_MODE_LONG, STI_GetMessage(STI_PARAM_MODE_LONG));
6929  0f95 a60d          	ld	a,#13
6930  0f97 cd0000        	call	_STI_GetMessage
6932  0f9a b702          	ld	_parametersSet$L+2,a
6933  0f9c bf01          	ld	_parametersSet$L+1,x
6934  0f9e a60a          	ld	a,#10
6935  0fa0 cd0000        	call	_parametersSet
6937                     ; 799 			parametersSet(PARAM_MODE_TRANS, STI_GetMessage(STI_PARAM_MODE_TRANS));
6939  0fa3 a60e          	ld	a,#14
6940  0fa5 cd0000        	call	_STI_GetMessage
6942  0fa8 b702          	ld	_parametersSet$L+2,a
6943  0faa bf01          	ld	_parametersSet$L+1,x
6944  0fac a60b          	ld	a,#11
6945  0fae cd0000        	call	_parametersSet
6947                     ; 800 			parametersSet(PARAM_MODE_PULL, STI_GetMessage(STI_PARAM_MODE_PULL));
6949  0fb1 a623          	ld	a,#35
6950  0fb3 cd0000        	call	_STI_GetMessage
6952  0fb6 b702          	ld	_parametersSet$L+2,a
6953  0fb8 bf01          	ld	_parametersSet$L+1,x
6954  0fba a60c          	ld	a,#12
6955  0fbc cd0000        	call	_parametersSet
6957                     ; 801 			parametersSet(PARAM_CORRECTION, STI_GetMessage(STI_PARAM_CORRECTIONS));
6959  0fbf a61c          	ld	a,#28
6960  0fc1 cd0000        	call	_STI_GetMessage
6962  0fc4 b702          	ld	_parametersSet$L+2,a
6963  0fc6 bf01          	ld	_parametersSet$L+1,x
6964  0fc8 a60d          	ld	a,#13
6965  0fca cd0000        	call	_parametersSet
6967                     ; 802 			parametersSet(PARAM_MODE_LONG, PARAM_MODE_MANUAL);
6969  0fcd 3f01          	clr	_parametersSet$L+1
6970  0fcf 3f02          	clr	_parametersSet$L+2
6971  0fd1 a60a          	ld	a,#10
6972  0fd3 cd0000        	call	_parametersSet
6974                     ; 803 			parametersSet(PARAM_MODE_TRANS, PARAM_MODE_MANUAL);
6976  0fd6 3f01          	clr	_parametersSet$L+1
6977  0fd8 3f02          	clr	_parametersSet$L+2
6978  0fda a60b          	ld	a,#11
6979  0fdc cd0000        	call	_parametersSet
6981                     ; 804 			parametersSet(PARAM_MODE_PULL, PARAM_MODE_MANUAL);			
6983  0fdf 3f01          	clr	_parametersSet$L+1
6984  0fe1 3f02          	clr	_parametersSet$L+2
6985  0fe3 a60c          	ld	a,#12
6986  0fe5 cd0000        	call	_parametersSet
6988                     ; 805 			parametersSet(PARAM_ALARM, (STI_GetMessage(STI_PARAM_ALARM_STATUS) & STI_ANSWER_ALARMS));
6990  0fe8 a626          	ld	a,#38
6991  0fea cd0000        	call	_STI_GetMessage
6993  0fed a41f          	and	a,#31
6994  0fef 88            	push	a
6995  0ff0 9f            	ld	a,x
6996  0ff1 a4bf          	and	a,#191
6997  0ff3 97            	ld	x,a
6998  0ff4 84            	pop	a
6999  0ff5 b702          	ld	_parametersSet$L+2,a
7000  0ff7 bf01          	ld	_parametersSet$L+1,x
7001  0ff9 a607          	ld	a,#7
7002  0ffb cd0000        	call	_parametersSet
7004                     ; 806 			m_byPageWaitingAnswer = PAGE_NONE;
7006  0ffe 4f            	clr	a
7007  0fff c70001        	ld	_m_byPageWaitingAnswer,a
7008                     ; 807 			screenRegister();
7010  1002 cd0000        	call	_screenRegister
7012                     ; 808 			break;				
7014  1005 cc142d        	jp	L7361
7015  1008               L7441:
7016                     ; 809 		case PAGE_EXECUTE_F4:
7016                     ; 810 			screenBigStdMessage(SCREEN_STD_MSG_PHASE_AUTO);
7018  1008 a604          	ld	a,#4
7019  100a cd0000        	call	_screenBigStdMessage
7021                     ; 811 			parametersSet(PARAM_SPEED, STI_GetMessage(STI_PARAM_SPEED));
7023  100d a620          	ld	a,#32
7024  100f cd0000        	call	_STI_GetMessage
7026  1012 b702          	ld	_parametersSet$L+2,a
7027  1014 bf01          	ld	_parametersSet$L+1,x
7028  1016 a605          	ld	a,#5
7029  1018 cd0000        	call	_parametersSet
7031                     ; 812 			if (parametersGetValue(PARAM_SPEED)==0x0000)
7033  101b a605          	ld	a,#5
7034  101d cd0000        	call	_parametersGetValue
7036  1020 4d            	tnz	a
7037  1021 2601          	jrne	L052
7038  1023 5d            	tnz	x
7039  1024               L052:
7040  1024 2615          	jrne	L7371
7041                     ; 814 				sleepFix();
7043  1026 cd0000        	call	_sleepFix
7045                     ; 815 				screenBigStdMessage(SCREEN_STD_MSG_SPEED_ZERO);
7047  1029 a60e          	ld	a,#14
7048  102b cd0000        	call	_screenBigStdMessage
7050                     ; 816 				sleepFix();
7052  102e cd0000        	call	_sleepFix
7054                     ; 817 				m_byPageWaitingAnswer = PAGE_NONE;
7056  1031 4f            	clr	a
7057  1032 c70001        	ld	_m_byPageWaitingAnswer,a
7058                     ; 818 				screenRegister();
7060  1035 cd0000        	call	_screenRegister
7063  1038 cc142d        	jp	L7361
7064  103b               L7371:
7065                     ; 822 				parametersSet(PARAM_ERR_LONG, 0x8000);		//reset the error
7067  103b a680          	ld	a,#128
7068  103d b701          	ld	_parametersSet$L+1,a
7069  103f 3f02          	clr	_parametersSet$L+2
7070  1041 a60e          	ld	a,#14
7071  1043 cd0000        	call	_parametersSet
7073                     ; 823 				parametersSet(PARAM_MODE_TRANS, 0x8000);	//reset the error
7075  1046 a680          	ld	a,#128
7076  1048 b701          	ld	_parametersSet$L+1,a
7077  104a 3f02          	clr	_parametersSet$L+2
7078  104c a60b          	ld	a,#11
7079  104e cd0000        	call	_parametersSet
7081                     ; 824 				parametersSet(PARAM_MODE_LONG, STI_GetMessage(STI_PARAM_MODE_LONG));
7083  1051 a60d          	ld	a,#13
7084  1053 cd0000        	call	_STI_GetMessage
7086  1056 b702          	ld	_parametersSet$L+2,a
7087  1058 bf01          	ld	_parametersSet$L+1,x
7088  105a a60a          	ld	a,#10
7089  105c cd0000        	call	_parametersSet
7091                     ; 825 				parametersSet(PARAM_MODE_TRANS, STI_GetMessage(STI_PARAM_MODE_TRANS));
7093  105f a60e          	ld	a,#14
7094  1061 cd0000        	call	_STI_GetMessage
7096  1064 b702          	ld	_parametersSet$L+2,a
7097  1066 bf01          	ld	_parametersSet$L+1,x
7098  1068 a60b          	ld	a,#11
7099  106a cd0000        	call	_parametersSet
7101                     ; 826 				parametersSet(PARAM_MODE_PULL, STI_GetMessage(STI_PARAM_MODE_PULL));
7103  106d a623          	ld	a,#35
7104  106f cd0000        	call	_STI_GetMessage
7106  1072 b702          	ld	_parametersSet$L+2,a
7107  1074 bf01          	ld	_parametersSet$L+1,x
7108  1076 a60c          	ld	a,#12
7109  1078 cd0000        	call	_parametersSet
7111                     ; 827 				parametersSet(PARAM_CORRECTION, STI_GetMessage(STI_PARAM_CORRECTIONS));				
7113  107b a61c          	ld	a,#28
7114  107d cd0000        	call	_STI_GetMessage
7116  1080 b702          	ld	_parametersSet$L+2,a
7117  1082 bf01          	ld	_parametersSet$L+1,x
7118  1084 a60d          	ld	a,#13
7119  1086 cd0000        	call	_parametersSet
7121                     ; 828 				parametersSet(PARAM_MODE_LONG, PARAM_MODE_MANUAL);
7123  1089 3f01          	clr	_parametersSet$L+1
7124  108b 3f02          	clr	_parametersSet$L+2
7125  108d a60a          	ld	a,#10
7126  108f cd0000        	call	_parametersSet
7128                     ; 829 				parametersSet(PARAM_MODE_TRANS, PARAM_MODE_MANUAL);
7130  1092 3f01          	clr	_parametersSet$L+1
7131  1094 3f02          	clr	_parametersSet$L+2
7132  1096 a60b          	ld	a,#11
7133  1098 cd0000        	call	_parametersSet
7135                     ; 830 				parametersSet(PARAM_MODE_PULL, PARAM_MODE_MANUAL);
7137  109b 3f01          	clr	_parametersSet$L+1
7138  109d 3f02          	clr	_parametersSet$L+2
7139  109f a60c          	ld	a,#12
7140  10a1 cd0000        	call	_parametersSet
7142                     ; 831 				parametersSet(PARAM_CORRECTION, 0x0000);
7144  10a4 3f01          	clr	_parametersSet$L+1
7145  10a6 3f02          	clr	_parametersSet$L+2
7146  10a8 a60d          	ld	a,#13
7147  10aa cd0000        	call	_parametersSet
7149                     ; 833 				m_byPageWaitingAnswer = PAGE_EXECUTE_F4;
7151  10ad a6cc          	ld	a,#204
7152  10af c70001        	ld	_m_byPageWaitingAnswer,a
7153                     ; 834 				m_byPageAnswerReceived = false;
7155  10b2 4f            	clr	a
7156  10b3 c70000        	ld	_m_byPageAnswerReceived,a
7157                     ; 835 				m_byManualShiftActiveLong = false;
7159  10b6 4f            	clr	a
7160  10b7 c70004        	ld	_m_byManualShiftActiveLong,a
7161                     ; 836 				STI_SendMessage(STI_FUNZ_PHASE_AUTO, 0x00, 0x0000);
7163  10ba 3f02          	clr	_STI_SendMessage$L+2
7164  10bc 3f03          	clr	_STI_SendMessage$L+3
7165  10be 4f            	clr	a
7166  10bf ae82          	ld	x,#130
7167  10c1 cd0000        	call	_STI_SendMessage
7169  10c4 cc142d        	jp	L7361
7170  10c7               L1541:
7171                     ; 839 		case PAGE_EXECUTE_F5:
7171                     ; 840 			screenBigStdMessage(SCREEN_STD_MSG_PHASE_MAN);
7173  10c7 a601          	ld	a,#1
7174  10c9 cd0000        	call	_screenBigStdMessage
7176                     ; 841 			parametersSet(PARAM_SPEED, STI_GetMessage(STI_PARAM_SPEED));
7178  10cc a620          	ld	a,#32
7179  10ce cd0000        	call	_STI_GetMessage
7181  10d1 b702          	ld	_parametersSet$L+2,a
7182  10d3 bf01          	ld	_parametersSet$L+1,x
7183  10d5 a605          	ld	a,#5
7184  10d7 cd0000        	call	_parametersSet
7186                     ; 842 			if (parametersGetValue(PARAM_SPEED)>0x0000)
7188  10da a605          	ld	a,#5
7189  10dc cd0000        	call	_parametersGetValue
7191  10df 4d            	tnz	a
7192  10e0 2601          	jrne	L252
7193  10e2 5d            	tnz	x
7194  10e3               L252:
7195  10e3 2715          	jreq	L3471
7196                     ; 844 				sleepFix();
7198  10e5 cd0000        	call	_sleepFix
7200                     ; 845 				screenBigStdMessage(SCREEN_STD_MSG_PHASE_MAN_ERR);
7202  10e8 a610          	ld	a,#16
7203  10ea cd0000        	call	_screenBigStdMessage
7205                     ; 846 				sleepFix();
7207  10ed cd0000        	call	_sleepFix
7209                     ; 847 				m_byPageWaitingAnswer = PAGE_NONE;
7211  10f0 4f            	clr	a
7212  10f1 c70001        	ld	_m_byPageWaitingAnswer,a
7213                     ; 848 				screenRegister();
7215  10f4 cd0000        	call	_screenRegister
7218  10f7 cc142d        	jp	L7361
7219  10fa               L3471:
7220                     ; 852 				STI_SendMessage(STI_FUNZ_PHASE_MANUAL, 0x00, 0x0000);
7222  10fa 3f02          	clr	_STI_SendMessage$L+2
7223  10fc 3f03          	clr	_STI_SendMessage$L+3
7224  10fe 4f            	clr	a
7225  10ff ae91          	ld	x,#145
7226  1101 cd0000        	call	_STI_SendMessage
7228                     ; 853 				sleepFix();
7230  1104 cd0000        	call	_sleepFix
7232                     ; 854 				screenBigStdMessage(SCREEN_STD_MSG_PHASE_OK);
7234  1107 a60d          	ld	a,#13
7235  1109 cd0000        	call	_screenBigStdMessage
7237                     ; 855 				STI_SendMessage(STI_FUNZ_GATE_CENTER, 0x00, 0x0000);
7239  110c 3f02          	clr	_STI_SendMessage$L+2
7240  110e 3f03          	clr	_STI_SendMessage$L+3
7241  1110 4f            	clr	a
7242  1111 ae90          	ld	x,#144
7243  1113 cd0000        	call	_STI_SendMessage
7245                     ; 856 				sleepFix();
7247  1116 cd0000        	call	_sleepFix
7249                     ; 857 				parametersSet(PARAM_MODE_LONG, STI_GetMessage(STI_PARAM_MODE_LONG));
7251  1119 a60d          	ld	a,#13
7252  111b cd0000        	call	_STI_GetMessage
7254  111e b702          	ld	_parametersSet$L+2,a
7255  1120 bf01          	ld	_parametersSet$L+1,x
7256  1122 a60a          	ld	a,#10
7257  1124 cd0000        	call	_parametersSet
7259                     ; 858 				parametersSet(PARAM_MODE_TRANS, STI_GetMessage(STI_PARAM_MODE_TRANS));
7261  1127 a60e          	ld	a,#14
7262  1129 cd0000        	call	_STI_GetMessage
7264  112c b702          	ld	_parametersSet$L+2,a
7265  112e bf01          	ld	_parametersSet$L+1,x
7266  1130 a60b          	ld	a,#11
7267  1132 cd0000        	call	_parametersSet
7269                     ; 859 				parametersSet(PARAM_MODE_PULL, STI_GetMessage(STI_PARAM_MODE_PULL));
7271  1135 a623          	ld	a,#35
7272  1137 cd0000        	call	_STI_GetMessage
7274  113a b702          	ld	_parametersSet$L+2,a
7275  113c bf01          	ld	_parametersSet$L+1,x
7276  113e a60c          	ld	a,#12
7277  1140 cd0000        	call	_parametersSet
7279                     ; 860 				parametersSet(PARAM_CORRECTION, STI_GetMessage(STI_PARAM_CORRECTIONS));
7281  1143 a61c          	ld	a,#28
7282  1145 cd0000        	call	_STI_GetMessage
7284  1148 b702          	ld	_parametersSet$L+2,a
7285  114a bf01          	ld	_parametersSet$L+1,x
7286  114c a60d          	ld	a,#13
7287  114e cd0000        	call	_parametersSet
7289                     ; 861 				parametersSet(PARAM_MODE_LONG, PARAM_MODE_MANUAL);
7291  1151 3f01          	clr	_parametersSet$L+1
7292  1153 3f02          	clr	_parametersSet$L+2
7293  1155 a60a          	ld	a,#10
7294  1157 cd0000        	call	_parametersSet
7296                     ; 862 				parametersSet(PARAM_MODE_TRANS, PARAM_MODE_MANUAL);
7298  115a 3f01          	clr	_parametersSet$L+1
7299  115c 3f02          	clr	_parametersSet$L+2
7300  115e a60b          	ld	a,#11
7301  1160 cd0000        	call	_parametersSet
7303                     ; 863 				parametersSet(PARAM_MODE_PULL, PARAM_MODE_MANUAL);
7305  1163 3f01          	clr	_parametersSet$L+1
7306  1165 3f02          	clr	_parametersSet$L+2
7307  1167 a60c          	ld	a,#12
7308  1169 cd0000        	call	_parametersSet
7310                     ; 864 				parametersSet(PARAM_CORRECTION, 0x0000);				
7312  116c 3f01          	clr	_parametersSet$L+1
7313  116e 3f02          	clr	_parametersSet$L+2
7314  1170 a60d          	ld	a,#13
7315  1172 cd0000        	call	_parametersSet
7317                     ; 865 				parametersSet(PARAM_ALARM, (STI_GetMessage(STI_PARAM_ALARM_STATUS) & STI_ANSWER_ALARMS));
7319  1175 a626          	ld	a,#38
7320  1177 cd0000        	call	_STI_GetMessage
7322  117a a41f          	and	a,#31
7323  117c 88            	push	a
7324  117d 9f            	ld	a,x
7325  117e a4bf          	and	a,#191
7326  1180 97            	ld	x,a
7327  1181 84            	pop	a
7328  1182 b702          	ld	_parametersSet$L+2,a
7329  1184 bf01          	ld	_parametersSet$L+1,x
7330  1186 a607          	ld	a,#7
7331  1188 cd0000        	call	_parametersSet
7333                     ; 866 				m_byManualShiftActiveLong = false;
7335  118b 4f            	clr	a
7336  118c c70004        	ld	_m_byManualShiftActiveLong,a
7337                     ; 867 				m_byPageWaitingAnswer = PAGE_NONE;
7339  118f 4f            	clr	a
7340  1190 c70001        	ld	_m_byPageWaitingAnswer,a
7341                     ; 868 				screenRegister();
7343  1193 cd0000        	call	_screenRegister
7345  1196 cc142d        	jp	L7361
7346  1199               L3541:
7347                     ; 871 		case PAGE_EXECUTE_T1:
7347                     ; 872 			screenBigStdMessage(SCREEN_STD_MSG_TEST_SH);
7349  1199 a605          	ld	a,#5
7350  119b cd0000        	call	_screenBigStdMessage
7352                     ; 873 			parametersSet(PARAM_SPEED, STI_GetMessage(STI_PARAM_SPEED));
7354  119e a620          	ld	a,#32
7355  11a0 cd0000        	call	_STI_GetMessage
7357  11a3 b702          	ld	_parametersSet$L+2,a
7358  11a5 bf01          	ld	_parametersSet$L+1,x
7359  11a7 a605          	ld	a,#5
7360  11a9 cd0000        	call	_parametersSet
7362                     ; 874 			if (parametersGetValue(PARAM_SPEED)==0x0000)
7364  11ac a605          	ld	a,#5
7365  11ae cd0000        	call	_parametersGetValue
7367  11b1 4d            	tnz	a
7368  11b2 2601          	jrne	L452
7369  11b4 5d            	tnz	x
7370  11b5               L452:
7371  11b5 2615          	jrne	L7471
7372                     ; 876 				sleepFix();
7374  11b7 cd0000        	call	_sleepFix
7376                     ; 877 				screenBigStdMessage(SCREEN_STD_MSG_SPEED_ZERO);
7378  11ba a60e          	ld	a,#14
7379  11bc cd0000        	call	_screenBigStdMessage
7381                     ; 878 				sleepFix();
7383  11bf cd0000        	call	_sleepFix
7385                     ; 879 				m_byPageWaitingAnswer = PAGE_NONE;
7387  11c2 4f            	clr	a
7388  11c3 c70001        	ld	_m_byPageWaitingAnswer,a
7389                     ; 880 				screenRegister();
7391  11c6 cd0000        	call	_screenRegister
7394  11c9 cc142d        	jp	L7361
7395  11cc               L7471:
7396                     ; 884 				m_byManualShiftActiveLong = false;
7398  11cc 4f            	clr	a
7399  11cd c70004        	ld	_m_byManualShiftActiveLong,a
7400                     ; 885 				m_byPageWaitingAnswer = PAGE_EXECUTE_T1;
7402  11d0 a6cf          	ld	a,#207
7403  11d2 c70001        	ld	_m_byPageWaitingAnswer,a
7404                     ; 886 				m_byPageAnswerReceived = false;
7406  11d5 4f            	clr	a
7407  11d6 c70000        	ld	_m_byPageAnswerReceived,a
7408                     ; 887 				STI_SendMessage(STI_FUNZ_TEST_SCANNING_HEAD, 0x00, 0x0000);
7410  11d9 3f02          	clr	_STI_SendMessage$L+2
7411  11db 3f03          	clr	_STI_SendMessage$L+3
7412  11dd 4f            	clr	a
7413  11de ae84          	ld	x,#132
7414  11e0 cd0000        	call	_STI_SendMessage
7416  11e3 cc142d        	jp	L7361
7417  11e6               L5541:
7418                     ; 890 		case PAGE_EXECUTE_T2:
7418                     ; 891 			screenBigStdMessage(SCREEN_STD_MSG_TEST_ENC);
7420  11e6 a606          	ld	a,#6
7421  11e8 cd0000        	call	_screenBigStdMessage
7423                     ; 892 			parametersSet(PARAM_SPEED, STI_GetMessage(STI_PARAM_SPEED));
7425  11eb a620          	ld	a,#32
7426  11ed cd0000        	call	_STI_GetMessage
7428  11f0 b702          	ld	_parametersSet$L+2,a
7429  11f2 bf01          	ld	_parametersSet$L+1,x
7430  11f4 a605          	ld	a,#5
7431  11f6 cd0000        	call	_parametersSet
7433                     ; 893 			if (parametersGetValue(PARAM_SPEED)==0x0000)
7435  11f9 a605          	ld	a,#5
7436  11fb cd0000        	call	_parametersGetValue
7438  11fe 4d            	tnz	a
7439  11ff 2601          	jrne	L652
7440  1201 5d            	tnz	x
7441  1202               L652:
7442  1202 2615          	jrne	L3571
7443                     ; 895 				sleepFix();
7445  1204 cd0000        	call	_sleepFix
7447                     ; 896 				screenBigStdMessage(SCREEN_STD_MSG_SPEED_ZERO);
7449  1207 a60e          	ld	a,#14
7450  1209 cd0000        	call	_screenBigStdMessage
7452                     ; 897 				sleepFix();
7454  120c cd0000        	call	_sleepFix
7456                     ; 898 				m_byPageWaitingAnswer = PAGE_NONE;
7458  120f 4f            	clr	a
7459  1210 c70001        	ld	_m_byPageWaitingAnswer,a
7460                     ; 899 				screenRegister();
7462  1213 cd0000        	call	_screenRegister
7465  1216 cc142d        	jp	L7361
7466  1219               L3571:
7467                     ; 901 			else if (parametersGetValue(PARAM_SPEED)>60)
7469  1219 a605          	ld	a,#5
7470  121b cd0000        	call	_parametersGetValue
7472  121e a03d          	sub	a,#61
7473  1220 9f            	ld	a,x
7474  1221 a200          	sbc	a,#0
7475  1223 2515          	jrult	L7571
7476                     ; 903 				sleepFix();
7478  1225 cd0000        	call	_sleepFix
7480                     ; 904 				screenBigStdMessage(SCREEN_STD_MSG_SPEED_TOO_FAST);
7482  1228 a60f          	ld	a,#15
7483  122a cd0000        	call	_screenBigStdMessage
7485                     ; 905 				sleepFix();
7487  122d cd0000        	call	_sleepFix
7489                     ; 906 				m_byPageWaitingAnswer = PAGE_NONE;
7491  1230 4f            	clr	a
7492  1231 c70001        	ld	_m_byPageWaitingAnswer,a
7493                     ; 907 				screenRegister();
7495  1234 cd0000        	call	_screenRegister
7498  1237 cc142d        	jp	L7361
7499  123a               L7571:
7500                     ; 911 				screenBigStdMessage(SCREEN_STD_MSG_TEST_ENC);
7502  123a a606          	ld	a,#6
7503  123c cd0000        	call	_screenBigStdMessage
7505                     ; 912 				scanningHeadSignalEncoderAutoSet(); //Recognize Encoder Zero Channel NPN o PNP
7507  123f cd0000        	call	_scanningHeadSignalEncoderAutoSet
7509                     ; 913 				m_byManualShiftActiveLong = false;
7511  1242 4f            	clr	a
7512  1243 c70004        	ld	_m_byManualShiftActiveLong,a
7513                     ; 914 				m_byPageWaitingAnswer = PAGE_EXECUTE_T2;
7515  1246 a6d0          	ld	a,#208
7516  1248 c70001        	ld	_m_byPageWaitingAnswer,a
7517                     ; 915 				m_byPageAnswerReceived = false;
7519  124b 4f            	clr	a
7520  124c c70000        	ld	_m_byPageAnswerReceived,a
7521                     ; 916 				STI_SendMessage(STI_FUNZ_TEST_ENCODER, 0x00, 0x0000);					
7523  124f 3f02          	clr	_STI_SendMessage$L+2
7524  1251 3f03          	clr	_STI_SendMessage$L+3
7525  1253 4f            	clr	a
7526  1254 ae85          	ld	x,#133
7527  1256 cd0000        	call	_STI_SendMessage
7529  1259 cc142d        	jp	L7361
7530  125c               L7541:
7531                     ; 919 		case PAGE_EXECUTE_T3:
7531                     ; 920 			if(m_byPageWaitingAnswer != PAGE_EXECUTE_T3)
7533  125c c60001        	ld	a,_m_byPageWaitingAnswer
7534  125f a1d1          	cp	a,#209
7535  1261 2753          	jreq	L3671
7536                     ; 922 				screenBigStdMessage(SCREEN_STD_MSG_TEST_OUTPUT);
7538  1263 a607          	ld	a,#7
7539  1265 cd0000        	call	_screenBigStdMessage
7541                     ; 923 				parametersSet(PARAM_SPEED, STI_GetMessage(STI_PARAM_SPEED));
7543  1268 a620          	ld	a,#32
7544  126a cd0000        	call	_STI_GetMessage
7546  126d b702          	ld	_parametersSet$L+2,a
7547  126f bf01          	ld	_parametersSet$L+1,x
7548  1271 a605          	ld	a,#5
7549  1273 cd0000        	call	_parametersSet
7551                     ; 924 				if (parametersGetValue(PARAM_SPEED)>0x0000)
7553  1276 a605          	ld	a,#5
7554  1278 cd0000        	call	_parametersGetValue
7556  127b 4d            	tnz	a
7557  127c 2601          	jrne	L062
7558  127e 5d            	tnz	x
7559  127f               L062:
7560  127f 2718          	jreq	L5671
7561                     ; 926 					sleepFix();
7563  1281 cd0000        	call	_sleepFix
7565                     ; 927 					screenBigStdMessage(SCREEN_STD_MSG_ERR_TEST_OUTPUT);
7567  1284 a62c          	ld	a,#44
7568  1286 cd0000        	call	_screenBigStdMessage
7570                     ; 928 					sleepFix();
7572  1289 cd0000        	call	_sleepFix
7574                     ; 929 					m_byPageWaitingAnswer = PAGE_NONE;
7576  128c 4f            	clr	a
7577  128d c70001        	ld	_m_byPageWaitingAnswer,a
7578                     ; 930 					screenRegister();
7580  1290 cd0000        	call	_screenRegister
7582                     ; 931 					SNI_ResetData();
7584  1293 cd0000        	call	_SNI_ResetData
7587  1296 cc142d        	jp	L7361
7588  1299               L5671:
7589                     ; 935 					m_byPageWaitingAnswer = PAGE_EXECUTE_T3;
7591  1299 a6d1          	ld	a,#209
7592  129b c70001        	ld	_m_byPageWaitingAnswer,a
7593                     ; 936 					m_byPageAnswerReceived = false;
7595  129e 4f            	clr	a
7596  129f c70000        	ld	_m_byPageAnswerReceived,a
7597                     ; 937 					STI_SendMessage(STI_FUNZ_TEST_OUTPUT, 0x00, 0x0000);
7599  12a2 3f02          	clr	_STI_SendMessage$L+2
7600  12a4 3f03          	clr	_STI_SendMessage$L+3
7601  12a6 4f            	clr	a
7602  12a7 ae92          	ld	x,#146
7603  12a9 cd0000        	call	_STI_SendMessage
7605                     ; 938 					SNI_ResetData();
7607  12ac cd0000        	call	_SNI_ResetData
7609                     ; 939 					m_byNextPage = PAGE_NONE;
7611  12af 4f            	clr	a
7612  12b0 c70005        	ld	_m_byNextPage,a
7613  12b3 cc142d        	jp	L7361
7614  12b6               L3671:
7615                     ; 944 					m_byNextPage = PAGE_NONE;
7617  12b6 4f            	clr	a
7618  12b7 c70005        	ld	_m_byNextPage,a
7619  12ba cc142d        	jp	L7361
7620  12bd               L1641:
7621                     ; 947 		case PAGE_EXECUTE_T4:
7621                     ; 948 			screenBigStdMessage(SCREEN_STD_MSG_TEST_4);
7623  12bd a608          	ld	a,#8
7624  12bf cd0000        	call	_screenBigStdMessage
7626                     ; 949 			break;
7628  12c2 cc142d        	jp	L7361
7629  12c5               L3641:
7630                     ; 950 		case PAGE_EXECUTE_T5:
7630                     ; 951 			screenBigStdMessage(SCREEN_STD_MSG_TEST_5);
7632  12c5 a609          	ld	a,#9
7633  12c7 cd0000        	call	_screenBigStdMessage
7635                     ; 952 			break;
7637  12ca cc142d        	jp	L7361
7638  12cd               L5641:
7639                     ; 953 		case PAGE_EXECUTE_T6:
7639                     ; 954 			screenBigStdMessage(SCREEN_STD_MSG_TEST_6);
7641  12cd a60a          	ld	a,#10
7642  12cf cd0000        	call	_screenBigStdMessage
7644                     ; 955 			break;
7646  12d2 cc142d        	jp	L7361
7647  12d5               L7641:
7648                     ; 956 		case PAGE_EXECUTE_APP_01:
7648                     ; 957 			screenBigStdMessage(SCREEN_STD_MSG_CMD_DONE);
7650  12d5 a619          	ld	a,#25
7651  12d7 cd0000        	call	_screenBigStdMessage
7653                     ; 958 			parametersSet(PARAM_MODE_LONG, PARAM_MODE_MANUAL);
7655  12da 3f01          	clr	_parametersSet$L+1
7656  12dc 3f02          	clr	_parametersSet$L+2
7657  12de a60a          	ld	a,#10
7658  12e0 cd0000        	call	_parametersSet
7660                     ; 959 			parametersSet(PARAM_MODE_TRANS, PARAM_MODE_MANUAL);
7662  12e3 3f01          	clr	_parametersSet$L+1
7663  12e5 3f02          	clr	_parametersSet$L+2
7664  12e7 a60b          	ld	a,#11
7665  12e9 cd0000        	call	_parametersSet
7667                     ; 960 			parametersSet(PARAM_MODE_PULL, PARAM_MODE_MANUAL);
7669  12ec 3f01          	clr	_parametersSet$L+1
7670  12ee 3f02          	clr	_parametersSet$L+2
7671  12f0 a60c          	ld	a,#12
7672  12f2 cd0000        	call	_parametersSet
7674                     ; 961 			parametersSaveAll();
7676  12f5 cd0000        	call	_parametersSaveAll
7678                     ; 962 			parametersSet(PARAM_TWIN_CURRENT_APPLICATION, parametersGetValue(PARAM_TWIN_APPLICATION_01));
7680  12f8 a634          	ld	a,#52
7681  12fa cd0000        	call	_parametersGetValue
7683  12fd b702          	ld	_parametersSet$L+2,a
7684  12ff bf01          	ld	_parametersSet$L+1,x
7685  1301 a616          	ld	a,#22
7686  1303 cd0000        	call	_parametersSet
7688                     ; 963 			parametersLoadAll(true);
7690  1306 a601          	ld	a,#1
7691  1308 cd0000        	call	_parametersLoadAll
7693                     ; 964 			sleepFix();
7695  130b cd0000        	call	_sleepFix
7697                     ; 965 			screenRegister();
7699  130e cd0000        	call	_screenRegister
7701                     ; 966 			break;
7703  1311 cc142d        	jp	L7361
7704  1314               L1741:
7705                     ; 967 		case PAGE_EXECUTE_APP_02:
7705                     ; 968 			screenBigStdMessage(SCREEN_STD_MSG_CMD_DONE);
7707  1314 a619          	ld	a,#25
7708  1316 cd0000        	call	_screenBigStdMessage
7710                     ; 969 			parametersSet(PARAM_MODE_LONG, PARAM_MODE_MANUAL);
7712  1319 3f01          	clr	_parametersSet$L+1
7713  131b 3f02          	clr	_parametersSet$L+2
7714  131d a60a          	ld	a,#10
7715  131f cd0000        	call	_parametersSet
7717                     ; 970 			parametersSet(PARAM_MODE_TRANS, PARAM_MODE_MANUAL);
7719  1322 3f01          	clr	_parametersSet$L+1
7720  1324 3f02          	clr	_parametersSet$L+2
7721  1326 a60b          	ld	a,#11
7722  1328 cd0000        	call	_parametersSet
7724                     ; 971 			parametersSet(PARAM_MODE_PULL, PARAM_MODE_MANUAL);
7726  132b 3f01          	clr	_parametersSet$L+1
7727  132d 3f02          	clr	_parametersSet$L+2
7728  132f a60c          	ld	a,#12
7729  1331 cd0000        	call	_parametersSet
7731                     ; 972 			parametersSaveAll();
7733  1334 cd0000        	call	_parametersSaveAll
7735                     ; 973 			parametersSet(PARAM_TWIN_CURRENT_APPLICATION, parametersGetValue(PARAM_TWIN_APPLICATION_02));
7737  1337 a635          	ld	a,#53
7738  1339 cd0000        	call	_parametersGetValue
7740  133c b702          	ld	_parametersSet$L+2,a
7741  133e bf01          	ld	_parametersSet$L+1,x
7742  1340 a616          	ld	a,#22
7743  1342 cd0000        	call	_parametersSet
7745                     ; 974 			parametersLoadAll(true);
7747  1345 a601          	ld	a,#1
7748  1347 cd0000        	call	_parametersLoadAll
7750                     ; 975 			sleepFix();
7752  134a cd0000        	call	_sleepFix
7754                     ; 976 			screenRegister();
7756  134d cd0000        	call	_screenRegister
7758                     ; 977 			break;
7760  1350 cc142d        	jp	L7361
7761  1353               L3741:
7762                     ; 978 		case PAGE_EXECUTE_ENC_01:
7762                     ; 979 			screenBigStdMessage(SCREEN_STD_MSG_CMD_DONE);
7764  1353 a619          	ld	a,#25
7765  1355 cd0000        	call	_screenBigStdMessage
7767                     ; 980 			parametersSet(PARAM_MODE_LONG, PARAM_MODE_MANUAL);
7769  1358 3f01          	clr	_parametersSet$L+1
7770  135a 3f02          	clr	_parametersSet$L+2
7771  135c a60a          	ld	a,#10
7772  135e cd0000        	call	_parametersSet
7774                     ; 981 			parametersSet(PARAM_MODE_TRANS, PARAM_MODE_MANUAL);
7776  1361 3f01          	clr	_parametersSet$L+1
7777  1363 3f02          	clr	_parametersSet$L+2
7778  1365 a60b          	ld	a,#11
7779  1367 cd0000        	call	_parametersSet
7781                     ; 982 			parametersSet(PARAM_MODE_PULL, PARAM_MODE_MANUAL);
7783  136a 3f01          	clr	_parametersSet$L+1
7784  136c 3f02          	clr	_parametersSet$L+2
7785  136e a60c          	ld	a,#12
7786  1370 cd0000        	call	_parametersSet
7788                     ; 983 			parametersSet(PARAM_CURRENT_ENCODER, 0x0000);
7790  1373 3f01          	clr	_parametersSet$L+1
7791  1375 3f02          	clr	_parametersSet$L+2
7792  1377 a617          	ld	a,#23
7793  1379 cd0000        	call	_parametersSet
7795                     ; 984 			sleepFix();
7797  137c cd0000        	call	_sleepFix
7799                     ; 985 			screenRegister();
7801  137f cd0000        	call	_screenRegister
7803                     ; 986 			break;
7805  1382 cc142d        	jp	L7361
7806  1385               L5741:
7807                     ; 987 		case PAGE_EXECUTE_ENC_02:
7807                     ; 988 			screenBigStdMessage(SCREEN_STD_MSG_CMD_DONE);
7809  1385 a619          	ld	a,#25
7810  1387 cd0000        	call	_screenBigStdMessage
7812                     ; 989 			parametersSet(PARAM_MODE_LONG, PARAM_MODE_MANUAL);
7814  138a 3f01          	clr	_parametersSet$L+1
7815  138c 3f02          	clr	_parametersSet$L+2
7816  138e a60a          	ld	a,#10
7817  1390 cd0000        	call	_parametersSet
7819                     ; 990 			parametersSet(PARAM_MODE_TRANS, PARAM_MODE_MANUAL);
7821  1393 3f01          	clr	_parametersSet$L+1
7822  1395 3f02          	clr	_parametersSet$L+2
7823  1397 a60b          	ld	a,#11
7824  1399 cd0000        	call	_parametersSet
7826                     ; 991 			parametersSet(PARAM_MODE_PULL, PARAM_MODE_MANUAL);
7828  139c 3f01          	clr	_parametersSet$L+1
7829  139e 3f02          	clr	_parametersSet$L+2
7830  13a0 a60c          	ld	a,#12
7831  13a2 cd0000        	call	_parametersSet
7833                     ; 992 			parametersSet(PARAM_CURRENT_ENCODER, 0x0001);
7835  13a5 a601          	ld	a,#1
7836  13a7 b702          	ld	_parametersSet$L+2,a
7837  13a9 3f01          	clr	_parametersSet$L+1
7838  13ab a617          	ld	a,#23
7839  13ad cd0000        	call	_parametersSet
7841                     ; 993 			sleepFix();
7843  13b0 cd0000        	call	_sleepFix
7845                     ; 994 			screenRegister();
7847  13b3 cd0000        	call	_screenRegister
7849                     ; 995 			break;
7851  13b6 2075          	jra	L7361
7852  13b8               L7741:
7853                     ; 996 		case PAGE_EXECUTE_SH_PN_01:
7853                     ; 997 			screenBigStdMessage(SCREEN_STD_MSG_CMD_DONE);
7855  13b8 a619          	ld	a,#25
7856  13ba cd0000        	call	_screenBigStdMessage
7858                     ; 998 			parametersSet(PARAM_MODE_LONG, PARAM_MODE_MANUAL);
7860  13bd 3f01          	clr	_parametersSet$L+1
7861  13bf 3f02          	clr	_parametersSet$L+2
7862  13c1 a60a          	ld	a,#10
7863  13c3 cd0000        	call	_parametersSet
7865                     ; 999 			parametersSet(PARAM_MODE_TRANS, PARAM_MODE_MANUAL);
7867  13c6 3f01          	clr	_parametersSet$L+1
7868  13c8 3f02          	clr	_parametersSet$L+2
7869  13ca a60b          	ld	a,#11
7870  13cc cd0000        	call	_parametersSet
7872                     ; 1000 			parametersSet(PARAM_MODE_PULL, PARAM_MODE_MANUAL);
7874  13cf 3f01          	clr	_parametersSet$L+1
7875  13d1 3f02          	clr	_parametersSet$L+2
7876  13d3 a60c          	ld	a,#12
7877  13d5 cd0000        	call	_parametersSet
7879                     ; 1001 			parametersSet(PARAM_SH_PN, 0x0000);
7881  13d8 3f01          	clr	_parametersSet$L+1
7882  13da 3f02          	clr	_parametersSet$L+2
7883  13dc a61a          	ld	a,#26
7884  13de cd0000        	call	_parametersSet
7886                     ; 1002 			sleepFix();
7888  13e1 cd0000        	call	_sleepFix
7890                     ; 1003 			screenRegister();
7892  13e4 cd0000        	call	_screenRegister
7894                     ; 1004 			break;
7896  13e7 2044          	jra	L7361
7897  13e9               L1051:
7898                     ; 1005 		case PAGE_EXECUTE_SH_PN_02:
7898                     ; 1006 			screenBigStdMessage(SCREEN_STD_MSG_CMD_DONE);
7900  13e9 a619          	ld	a,#25
7901  13eb cd0000        	call	_screenBigStdMessage
7903                     ; 1007 			parametersSet(PARAM_MODE_LONG, PARAM_MODE_MANUAL);
7905  13ee 3f01          	clr	_parametersSet$L+1
7906  13f0 3f02          	clr	_parametersSet$L+2
7907  13f2 a60a          	ld	a,#10
7908  13f4 cd0000        	call	_parametersSet
7910                     ; 1008 			parametersSet(PARAM_MODE_TRANS, PARAM_MODE_MANUAL);
7912  13f7 3f01          	clr	_parametersSet$L+1
7913  13f9 3f02          	clr	_parametersSet$L+2
7914  13fb a60b          	ld	a,#11
7915  13fd cd0000        	call	_parametersSet
7917                     ; 1009 			parametersSet(PARAM_MODE_PULL, PARAM_MODE_MANUAL);
7919  1400 3f01          	clr	_parametersSet$L+1
7920  1402 3f02          	clr	_parametersSet$L+2
7921  1404 a60c          	ld	a,#12
7922  1406 cd0000        	call	_parametersSet
7924                     ; 1010 			parametersSet(PARAM_SH_PN, 0x0001);
7926  1409 a601          	ld	a,#1
7927  140b b702          	ld	_parametersSet$L+2,a
7928  140d 3f01          	clr	_parametersSet$L+1
7929  140f a61a          	ld	a,#26
7930  1411 cd0000        	call	_parametersSet
7932                     ; 1011 			sleepFix();
7934  1414 cd0000        	call	_sleepFix
7936                     ; 1012 			screenRegister();
7938  1417 cd0000        	call	_screenRegister
7940                     ; 1013 			break;				
7942  141a 2011          	jra	L7361
7943  141c               L3051:
7944                     ; 1014 		case PAGE_P4_VALUE:
7944                     ; 1015 			screenVersion();
7946  141c cd0000        	call	_screenVersion
7948                     ; 1016 			m_byPageWaitingAnswer = PAGE_NONE;
7950  141f 4f            	clr	a
7951  1420 c70001        	ld	_m_byPageWaitingAnswer,a
7952                     ; 1017 			screenRegister();				
7954  1423 cd0000        	call	_screenRegister
7956                     ; 1018 			break;
7958  1426 2005          	jra	L7361
7959  1428               L5051:
7960                     ; 1019 		case PAGE_P6_VALUE:
7960                     ; 1020 			screenBigStdMessage(SCREEN_STD_MSG_PARAM_6);
7962  1428 a60c          	ld	a,#12
7963  142a cd0000        	call	_screenBigStdMessage
7965                     ; 1022 			break;
7967  142d               L7051:
7968                     ; 1023 		default:
7968                     ; 1024 			break;
7970  142d               L7361:
7971                     ; 1026 }
7974  142d 81            	ret
8001                     ; 1031 void displayAppLoop(void)
8001                     ; 1032 {
8002                     	switch	.text
8003  142e               _displayAppLoop:
8006                     ; 1033 	screenRegister();
8008  142e cd0000        	call	_screenRegister
8010  1431               L3002:
8011                     ; 1036 		displayAppRequestCom();
8013  1431 cd033d        	call	_displayAppRequestCom
8015                     ; 1037 		displayAppManageAnswer();
8017  1434 cd0360        	call	_displayAppManageAnswer
8019                     ; 1038 		displayAppRefreshVisualization();
8021  1437 cd018b        	call	_displayAppRefreshVisualization
8023                     ; 1039 		displayAppNavigate();
8025  143a cd06e8        	call	_displayAppNavigate
8028  143d 20f2          	jra	L3002
8139                     	xdef	_displayAppManageAnswer
8140                     	xdef	_displayAppManageCorrection
8141                     	xdef	_displayAppRefreshVisualization
8142                     	xdef	_displayAppUpdateMode
8143                     	xdef	_displayAppManageParameter
8144                     	xdef	_displayAppNavigate
8145                     	xdef	_displayAppRequestCom
8146                     	switch	.bss
8147  0000               _m_byPageAnswerReceived:
8148  0000 00            	ds.b	1
8149                     	xdef	_m_byPageAnswerReceived
8150  0001               _m_byPageWaitingAnswer:
8151  0001 00            	ds.b	1
8152                     	xdef	_m_byPageWaitingAnswer
8153  0002               _m_byManualShiftActivePull:
8154  0002 00            	ds.b	1
8155                     	xdef	_m_byManualShiftActivePull
8156  0003               _m_byManualShiftActiveTrans:
8157  0003 00            	ds.b	1
8158                     	xdef	_m_byManualShiftActiveTrans
8159  0004               _m_byManualShiftActiveLong:
8160  0004 00            	ds.b	1
8161                     	xdef	_m_byManualShiftActiveLong
8162  0005               _m_byNextPage:
8163  0005 00            	ds.b	1
8164                     	xdef	_m_byNextPage
8165  0006               _m_woValue:
8166  0006 0000          	ds.b	2
8167                     	xdef	_m_woValue
8168  0008               _m_byAdditionalCode:
8169  0008 00            	ds.b	1
8170                     	xdef	_m_byAdditionalCode
8171  0009               _m_byCode:
8172  0009 00            	ds.b	1
8173                     	xdef	_m_byCode
8174                     	xref	_formatNumber
8175                     	xref	_memcpy
8176                     	xref	_sleepFix
8177                     	xref	_sleep
8178                     	xref	_sleepSec
8179                     	xdef	_displayAppShowMessages
8180                     	xdef	_displayAppLoop
8181                     	xdef	_displayAppInit
8182                     	xref	_screenVersion
8183                     	xref	_screenSetUpParameter
8184                     	xref	_screenValue
8185                     	xref	_screen6Menus
8186                     	xref	_screenBigStdMessage
8187                     	xref	_screenAlarm
8188                     	xref	_screenRegister
8189                     	xref	_screenOscilloscope
8190                     	xref	_screenUpdateCurrentScreen
8191                     	xref	_screenInit
8192                     	xref	_displayWriteString
8193                     	xref	_displayOff
8194                     	xref	_displayIsKeyPressed
8195                     	xref	_displayKeyPressedReset
8196                     	xref	_displayGetKeyPressed
8197                     	xref	_displayInit
8198                     	xref	_scanningHeadSignalEncoderAutoSet
8199                     	xref	_scanningHeadSignalAcquireGate
8200                     	xref	_scanningHeadSignalAcquire
8201                     	xref	_parametersSet
8202                     	xref	_parametersGetValue
8203                     	xref	_parametersSaveAll
8204                     	xref	_parametersLoadAll
8205                     	xref	_parametersInit
8206                     	xref	_SNI_ReceivedCmd
8207                     	xref	_SNI_ResetData
8208                     	xref	_SNI_Init
8209                     	xref	_STI_ReceiveMessage
8210                     	xref	_STI_SendMessage
8211                     	xref	_STI_GetMessage
8212                     	switch	.const
8213  079b               L7311:
8214  079b 4572726f7220  	dc.b	"Error  =-",0
8215  07a5               L5311:
8216  07a5 4572726f7220  	dc.b	"Error =+",0
8217  07ae               L3311:
8218  07ae 537065656420  	dc.b	"Speed  = ",0
8219  07b8               L1311:
8220  07b8 4c6564202020  	dc.b	"Led    = ",0
8221  07c2               L1211:
8222  07c2 537461747573  	dc.b	"Status  = ",0
8223                     	xref.b	c_x
8224                     	xref.b	c_y
8244                     	xref	c_imul
8245                     	xref.b	_screen6Menus$L
8246                     	xref.b	_screenValue$L
8247                     	xref.b	_sleep$L
8248                     	xref.b	_displayWriteString$L
8249                     	xref.b	_formatNumber$L
8250                     	xref.b	_memcpy$L
8251                     	xref.b	_STI_ReceiveMessage$L
8252                     	xref.b	_parametersSet$L
8253                     	xref.b	_STI_SendMessage$L
8254                     	end
